

Microchip MPLAB XC8 Assembler V2.45 build 20230818022343 
                                                                                               Tue Nov 07 01:39:01 2023

Microchip MPLAB XC8 C Compiler v2.45 (Free license) build 20230818022343 Og1 
     1                           	processor	18F67K40
     2                           	fnconf	rparam,??,?,0
     3                           	pagewidth 120
     4                           	opt	flic
     5                           	psect	idataCOMRAM,global,class=CODE,delta=1,noexec
     6                           	psect	idataBANK0,global,class=CODE,delta=1,noexec
     7                           	psect	smallconst,global,reloc=2,class=SMALLCONST,delta=1,noexec
     8                           	psect	cinit,global,reloc=2,class=CODE,delta=1
     9                           	psect	bssCOMRAM,global,class=COMRAM,space=1,delta=1,lowdata,noexec
    10                           	psect	dataCOMRAM,global,class=COMRAM,space=1,delta=1,lowdata,noexec
    11                           	psect	bssBANK0,global,class=BANK0,space=1,delta=1,lowdata,noexec
    12                           	psect	dataBANK0,global,class=BANK0,space=1,delta=1,lowdata,noexec
    13                           	psect	bssBANK1,global,class=BANK1,space=1,delta=1,lowdata,noexec
    14                           	psect	cstackBANK0,global,class=BANK0,space=1,delta=1,lowdata,noexec
    15                           	psect	cstackCOMRAM,global,class=COMRAM,space=1,delta=1,lowdata,noexec
    16                           	psect	text0,global,reloc=2,class=CODE,delta=1
    17                           	psect	text1,global,reloc=2,class=CODE,delta=1
    18                           	psect	text2,global,reloc=2,class=CODE,delta=1,group=3
    19                           	psect	text3,global,reloc=2,class=CODE,delta=1,group=1
    20                           	psect	text4,global,reloc=2,class=CODE,delta=1,group=1
    21                           	psect	text5,global,reloc=2,class=CODE,delta=1,group=1
    22                           	psect	text6,global,reloc=2,class=CODE,delta=1,group=1
    23                           	psect	text7,global,reloc=2,class=CODE,delta=1,group=1
    24                           	psect	text8,global,reloc=2,class=CODE,delta=1,group=3
    25                           	psect	text9,global,reloc=2,class=CODE,delta=1,group=3
    26                           	psect	text10,global,reloc=2,class=CODE,delta=1,group=3
    27                           	psect	text11,global,reloc=2,class=CODE,delta=1,group=3
    28                           	psect	text12,global,reloc=2,class=CODE,delta=1,group=2
    29                           	psect	text13,global,reloc=2,class=CODE,delta=1,group=2
    30                           	psect	text14,global,reloc=2,class=CODE,delta=1
    31                           	psect	text15,global,reloc=2,class=CODE,delta=1
    32                           	psect	text16,global,reloc=2,class=CODE,delta=1
    33                           	psect	text17,global,reloc=2,class=CODE,delta=1
    34                           	psect	text18,global,reloc=2,class=CODE,delta=1
    35                           	psect	text19,global,reloc=2,class=CODE,delta=1
    36                           	psect	text20,global,reloc=2,class=CODE,delta=1
    37                           	psect	text21,global,reloc=2,class=CODE,delta=1
    38                           	psect	text22,global,reloc=2,class=CODE,delta=1
    39                           	psect	text23,global,reloc=2,class=CODE,delta=1
    40                           	psect	text24,global,reloc=2,class=CODE,delta=1
    41                           	psect	text25,global,reloc=2,class=CODE,delta=1
    42                           	psect	text26,global,reloc=2,class=CODE,delta=1
    43                           	psect	text27,global,reloc=2,class=CODE,delta=1
    44                           	psect	text28,global,reloc=2,class=CODE,delta=1
    45                           	psect	text29,global,reloc=2,class=CODE,delta=1
    46                           	psect	text30,global,reloc=2,class=CODE,delta=1
    47                           	psect	text31,global,reloc=2,class=CODE,delta=1
    48                           	psect	text32,global,reloc=2,class=CODE,delta=1
    49                           	psect	text33,global,reloc=2,class=CODE,delta=1
    50                           	psect	text34,global,reloc=2,class=CODE,delta=1,group=3
    51                           	psect	text35,global,reloc=2,class=CODE,delta=1,group=3
    52                           	psect	text36,global,reloc=2,class=CODE,delta=1,group=3
    53                           	psect	text37,global,reloc=2,class=CODE,delta=1,group=3
    54                           	psect	text38,global,reloc=2,class=CODE,delta=1,group=2
    55                           	psect	text39,global,reloc=2,class=CODE,delta=1,group=2
    56                           	psect	text40,global,reloc=2,class=CODE,delta=1,group=2
    57                           	psect	text41,global,reloc=2,class=CODE,delta=1,group=2
    58                           	psect	text42,global,reloc=2,class=CODE,delta=1,group=3
    59                           	psect	text43,global,reloc=2,class=CODE,delta=1,group=2
    60                           	psect	text44,global,reloc=2,class=CODE,delta=1,group=2
    61                           	psect	text45,global,reloc=2,class=CODE,delta=1,group=2
    62                           	psect	text46,global,reloc=2,class=CODE,delta=1,group=2
    63                           	psect	text47,global,reloc=2,class=CODE,delta=1,group=2
    64                           	psect	text48,global,reloc=2,class=CODE,delta=1,group=2
    65                           	psect	text49,global,reloc=2,class=CODE,delta=1
    66                           	psect	intcodelo,global,reloc=2,class=CODE,delta=1
    67                           	psect	intcode,global,reloc=2,class=CODE,delta=1
    68                           	psect	intcode_body,global,reloc=2,class=CODE,delta=1
    69                           	psect	intsave_regs,global,class=BIGRAM,space=1,delta=1,noexec
    70                           	psect	rparam,global,class=COMRAM,space=1,delta=1,noexec
    71                           	psect	temp,global,ovrld,common,class=COMRAM,space=1,delta=1
    72                           	psect	config,global,abs,ovrld,class=CONFIG,space=4,delta=1,noexec
    73   000000                     
    74                           ; Generated 21/07/2023 GMT
    75                           ; 
    76                           ; Copyright © 2023, Microchip Technology Inc. and its subsidiaries ("Microchip")
    77                           ; All rights reserved.
    78                           ; 
    79                           ; This software is developed by Microchip Technology Inc. and its subsidiaries ("Microch
      +                          ip").
    80                           ; 
    81                           ; Redistribution and use in source and binary forms, with or without modification, are
    82                           ; permitted provided that the following conditions are met:
    83                           ; 
    84                           ;     1. Redistributions of source code must retain the above copyright notice, this lis
      +                          t of
    85                           ;        conditions and the following disclaimer.
    86                           ; 
    87                           ;     2. Redistributions in binary form must reproduce the above copyright notice, this 
      +                          list
    88                           ;        of conditions and the following disclaimer in the documentation and/or other
    89                           ;        materials provided with the distribution. Publication is not required when
    90                           ;        this file is used in an embedded application.
    91                           ; 
    92                           ;     3. Microchip's name may not be used to endorse or promote products derived from th
      +                          is
    93                           ;        software without specific prior written permission.
    94                           ; 
    95                           ; THIS SOFTWARE IS PROVIDED BY MICROCHIP "AS IS" AND ANY EXPRESS OR IMPLIED WARRANTIES,
    96                           ; INCLUDING, BUT NOT LIMITED TO, THE IMPLIED WARRANTIES OF MERCHANTABILITY AND FITNESS F
      +                          OR
    97                           ; PURPOSE ARE DISCLAIMED.  IN NO EVENT SHALL MICROCHIP BE LIABLE FOR ANY DIRECT, INDIREC
      +                          T,
    98                           ; INCIDENTAL, SPECIAL, EXEMPLARY, OR CONSEQUENTIAL DAMAGES (INCLUDING BUT NOT LIMITED TO
    99                           ; PROCUREMENT OF SUBSTITUTE GOODS OR SERVICES; LOSS OF USE, DATA OR PROFITS; OR BUSINESS
   100                           ; INTERRUPTION) HOWSOEVER CAUSED AND ON ANY THEORY OF LIABILITY, WHETHER IN CONTRACT, ST
      +                          RICT
   101                           ; LIABILITY, OR TORT (INCLUDING NEGLIGENCE OR OTHERWISE) ARISING IN ANY WAY OUT OF THE U
      +                          SE OF
   102                           ; THIS SOFTWARE, EVEN IF ADVISED OF THE POSSIBILITY OF SUCH DAMAGE.
   103                           ; 
   104                           ; 
   105                           ; Code-generator required, PIC18F67K40 Definitions
   106                           ; 
   107                           ; SFR Addresses
   108   000000                     
   109                           	psect	idataCOMRAM
   110   0041A4                     __pidataCOMRAM:
   111                           	callstack 0
   112                           
   113                           ;initializer for _month
   114   0041A4  0003               	dw	3
   115                           
   116                           	psect	idataBANK0
   117   00417E                     __pidataBANK0:
   118                           	callstack 0
   119                           
   120                           ;initializer for _sunrisetime
   121   00417E  0182               	dw	386
   122                           
   123                           ;initializer for _year
   124   004180  07E8               	dw	2024
   125                           
   126                           ;initializer for _weekday
   127   004182  0006               	dw	6
   128                           
   129                           ;initializer for _day
   130   004184  000A               	dw	10
   131                           
   132                           ;initializer for _hour
   133   004186  0011               	dw	17
   134                           
   135                           ;initializer for _minute
   136   004188  0037               	dw	55
   137                           
   138                           ;initializer for _second
   139   00418A  001E               	dw	30
   140                           
   141                           	psect	smallconst
   142   000E00                     __psmallconst:
   143                           	callstack 0
   144   000E00  00                 	db	0
   145   000E01  6C3C               	dw	27708
   146   000E03  3636               	dw	13878
   147   000E05                     __end_of_S4:
   148                           	callstack 0
   149   000E05  07CF               	dw	1999
   150   000E07  B950               	dw	47440
   151   000E09                     __end_of_S3:
   152                           	callstack 0
   153   000E09  8884               	dw	34948
   154   000E0B  3C08               	dw	15368
   155   000E0D                     __end_of_S2:
   156                           	callstack 0
   157   000E0D  AAAB               	dw	43691
   158   000E0F  BE2A               	dw	48682
   159   000E11                     __end_of_S1:
   160                           	callstack 0
   161   000E11  85A3               	dw	34211
   162   000E13  3288               	dw	12936
   163   000E15                     __end_of_pio2_1t:
   164                           	callstack 0
   165   000E15  0FDA               	dw	4058
   166   000E17  3FC9               	dw	16329
   167   000E19                     __end_of_pio2_1:
   168                           	callstack 0
   169   000E19  F983               	dw	63875
   170   000E1B  3F22               	dw	16162
   171   000E1D                     __end_of_invpio2:
   172                           	callstack 0
   173   000E1D  0000               	dw	0
   174   000E1F  3F00               	dw	16128
   175   000E21                     __end_of_half:
   176                           	callstack 0
   177   000E21  9A17               	dw	39447
   178   000E23  37CC               	dw	14284
   179   000E25                     __end_of_C3:
   180                           	callstack 0
   181   000E25  043F               	dw	1087
   182   000E27  BAB6               	dw	47798
   183   000E29                     __end_of_C2:
   184                           	callstack 0
   185   000E29  AA9F               	dw	43679
   186   000E2B  3D2A               	dw	15658
   187   000E2D                     __end_of_C1:
   188                           	callstack 0
   189   000E2D  0000               	dw	0
   190   000E2F  BF00               	dw	48896
   191   000E31                     __end_of_C0:
   192                           	callstack 0
   193   000E31  0FDB               	dw	4059
   194   000E33  40C9               	dw	16585
   195   000E35                     __end_of_s4pio2:
   196                           	callstack 0
   197   000E35  CBE4               	dw	52196
   198   000E37  4096               	dw	16534
   199   000E39                     __end_of_s3pio2:
   200                           	callstack 0
   201   000E39  0FDB               	dw	4059
   202   000E3B  4049               	dw	16457
   203   000E3D                     __end_of_s2pio2:
   204                           	callstack 0
   205   000E3D  0FDB               	dw	4059
   206   000E3F  3FC9               	dw	16329
   207   000E41                     __end_of_s1pio2:
   208                           	callstack 0
   209   000000                     _T0CON0bits	set	4053
   210   000000                     _T0CON1bits	set	4054
   211   000000                     _TRISDbits	set	3972
   212   000000                     _LATDbits	set	3964
   213   000000                     _LATHbits	set	3968
   214   000000                     _CM1CON1bits	set	3793
   215   000000                     _LATFbits	set	3966
   216   000000                     _LATGbits	set	3967
   217   000000                     _TRISFbits	set	3974
   218   000000                     _TRISGbits	set	3975
   219   000000                     _TRISEbits	set	3973
   220   000000                     _TRISBbits	set	3970
   221   000000                     _TRISCbits	set	3971
   222   000000                     _LATEbits	set	3965
   223   000000                     _IPR0bits	set	3615
   224   000000                     _IPR2bits	set	3617
   225   000000                     _PIE0bits	set	3625
   226   000000                     _ANSELAbits	set	3730
   227   000000                     _TRISAbits	set	3969
   228   000000                     _ANSELBbits	set	3738
   229   000000                     _ANSELFbits	set	3764
   230   000000                     _ANSELGbits	set	3772
   231   000000                     _ADREFbits	set	3928
   232   000000                     _ADPCH	set	3935
   233   000000                     _ADRESH	set	3940
   234   000000                     _ADCON0bits	set	3936
   235   000000                     _LATAbits	set	3961
   236   000000                     _LATBbits	set	3962
   237   000000                     _LATCbits	set	3963
   238   000000                     _TMR0L	set	4051
   239   000000                     _TMR0H	set	4052
   240   000000                     _INTCONbits	set	4082
   241   000000                     _TRISHbits	set	3976
   242   000000                     _DAC1CON0bits	set	3782
   243   000000                     _CM1CON0bits	set	3792
   244   000000                     _CM1NCHbits	set	3794
   245   000000                     _DAC1CON1bits	set	3783
   246   000000                     _CM1PCHbits	set	3795
   247   000000                     _PIE2bits	set	3627
   248   000000                     _PIR0bits	set	3635
   249   000000                     _PIR2bits	set	3637
   250   000E41                     STR_1:
   251                           
   252                           ; BSR set to: 14
   253   000E41  25                 	db	37
   254   000E42  30                 	db	48	;'0'
   255   000E43  32                 	db	50	;'2'
   256   000E44  64                 	db	100	;'d'
   257   000E45  3A                 	db	58	;':'
   258   000E46  25                 	db	37
   259   000E47  30                 	db	48	;'0'
   260   000E48  32                 	db	50	;'2'
   261   000E49  64                 	db	100	;'d'
   262   000E4A  20                 	db	32
   263   000E4B  25                 	db	37
   264   000E4C  30                 	db	48	;'0'
   265   000E4D  32                 	db	50	;'2'
   266   000E4E  64                 	db	100	;'d'
   267   000E4F  2F                 	db	47
   268   000E50  25                 	db	37
   269   000E51  30                 	db	48	;'0'
   270   000E52  32                 	db	50	;'2'
   271   000E53  64                 	db	100	;'d'
   272   000E54  2F                 	db	47
   273   000E55  25                 	db	37
   274   000E56  30                 	db	48	;'0'
   275   000E57  34                 	db	52	;'4'
   276   000E58  64                 	db	100	;'d'
   277   000E59  00                 	db	0
   278   000E5A  00                 	db	0	; dummy byte at the end
   279   000000                     
   280                           ; #config settings
   281                           
   282                           	psect	cinit
   283   003D3A                     __pcinit:
   284                           	callstack 0
   285   003D3A                     start_initialization:
   286                           	callstack 0
   287   003D3A                     __initialization:
   288                           	callstack 0
   289                           
   290                           ; Initialize objects allocated to BANK0 (14 bytes)
   291                           ; load TBLPTR registers with __pidataBANK0
   292   003D3A  0E7E               	movlw	low __pidataBANK0
   293   003D3C  6EF6               	movwf	tblptrl,c
   294   003D3E  0E41               	movlw	high __pidataBANK0
   295   003D40  6EF7               	movwf	tblptrh,c
   296   003D42  0E00               	movlw	low (__pidataBANK0 shr (0+16))
   297   003D44  6EF8               	movwf	tblptru,c
   298   003D46  EE00  F0F0         	lfsr	0,__pdataBANK0
   299   003D4A  EE10 F00E          	lfsr	1,14
   300   003D4E                     copy_data0:
   301   003D4E  0009               	tblrd		*+
   302   003D50  CFF5 FFEE          	movff	tablat,postinc0
   303   003D54  50E5               	movf	postdec1,w,c
   304   003D56  50E1               	movf	fsr1l,w,c
   305   003D58  E1FA               	bnz	copy_data0
   306                           
   307                           ; Initialize objects allocated to COMRAM (2 bytes)
   308                           ; load TBLPTR registers with __pidataCOMRAM
   309   003D5A  0EA4               	movlw	low __pidataCOMRAM
   310   003D5C  6EF6               	movwf	tblptrl,c
   311   003D5E  0E41               	movlw	high __pidataCOMRAM
   312   003D60  6EF7               	movwf	tblptrh,c
   313   003D62  0E00               	movlw	low (__pidataCOMRAM shr (0+16))
   314   003D64  6EF8               	movwf	tblptru,c
   315   003D66  0009               	tblrd		*+	;fetch initializer
   316   003D68  CFF5 F059          	movff	tablat,__pdataCOMRAM
   317   003D6C  0009               	tblrd		*+	;fetch initializer
   318   003D6E  CFF5 F05A          	movff	tablat,__pdataCOMRAM+1
   319                           
   320                           ; Clear objects allocated to BANK1 (56 bytes)
   321   003D72  EE01  F000         	lfsr	0,__pbssBANK1
   322   003D76  0E38               	movlw	56
   323   003D78                     clear_0:
   324   003D78  6AEE               	clrf	postinc0,c
   325   003D7A  06E8               	decf	wreg,f,c
   326   003D7C  E1FD               	bnz	clear_0
   327                           
   328                           ; Clear objects allocated to BANK0 (20 bytes)
   329   003D7E  EE00  F0DC         	lfsr	0,__pbssBANK0
   330   003D82  0E14               	movlw	20
   331   003D84                     clear_1:
   332   003D84  6AEE               	clrf	postinc0,c
   333   003D86  06E8               	decf	wreg,f,c
   334   003D88  E1FD               	bnz	clear_1
   335                           
   336                           ; Clear objects allocated to COMRAM (1 bytes)
   337   003D8A  6A5B               	clrf	__pbssCOMRAM& (0+255),c
   338   003D8C                     end_of_initialization:
   339                           	callstack 0
   340   003D8C                     __end_of__initialization:
   341                           	callstack 0
   342   003D8C  905C               	bcf	int$flags,0,c	;clear compiler interrupt flag (level 1)
   343   003D8E  925C               	bcf	int$flags,1,c	;clear compiler interrupt flag (level 2)
   344   003D90  0100               	movlb	0
   345   003D92  EFF1  F01E         	goto	_main	;jump to C main() function
   346                           
   347                           	psect	bssCOMRAM
   348   00005B                     __pbssCOMRAM:
   349                           	callstack 0
   350   00005B                     _flags:
   351                           	callstack 0
   352   00005B                     	ds	1
   353                           
   354                           	psect	dataCOMRAM
   355   000059                     __pdataCOMRAM:
   356                           	callstack 0
   357   000059                     _month:
   358                           	callstack 0
   359   000059                     	ds	2
   360                           
   361                           	psect	bssBANK0
   362   0000DC                     __pbssBANK0:
   363                           	callstack 0
   364   0000DC                     ___rem_pio2f@F526:
   365                           	callstack 0
   366   0000DC                     	ds	4
   367   0000E0                     _width:
   368                           	callstack 0
   369   0000E0                     	ds	2
   370   0000E2                     _prec:
   371                           	callstack 0
   372   0000E2                     	ds	2
   373   0000E4                     _EoT:
   374                           	callstack 0
   375   0000E4                     	ds	2
   376   0000E6                     _solarnoonminutes:
   377                           	callstack 0
   378   0000E6                     	ds	2
   379   0000E8                     _difference:
   380                           	callstack 0
   381   0000E8                     	ds	2
   382   0000EA                     _sunsettime:
   383                           	callstack 0
   384   0000EA                     	ds	2
   385   0000EC                     _longitudestz:
   386                           	callstack 0
   387   0000EC                     	ds	2
   388   0000EE                     _longitude:
   389                           	callstack 0
   390   0000EE                     	ds	2
   391                           
   392                           	psect	dataBANK0
   393   0000F0                     __pdataBANK0:
   394                           	callstack 0
   395   0000F0                     _sunrisetime:
   396                           	callstack 0
   397   0000F0                     	ds	2
   398   0000F2                     _year:
   399                           	callstack 0
   400   0000F2                     	ds	2
   401   0000F4                     _weekday:
   402                           	callstack 0
   403   0000F4                     	ds	2
   404   0000F6                     _day:
   405                           	callstack 0
   406   0000F6                     	ds	2
   407   0000F8                     _hour:
   408                           	callstack 0
   409   0000F8                     	ds	2
   410   0000FA                     _minute:
   411                           	callstack 0
   412   0000FA                     	ds	2
   413   0000FC                     _second:
   414                           	callstack 0
   415   0000FC                     	ds	2
   416                           
   417                           	psect	bssBANK1
   418   000100                     __pbssBANK1:
   419                           	callstack 0
   420   000100                     _syncString:
   421                           	callstack 0
   422   000100                     	ds	10
   423   00010A                     fabsf@F465:
   424                           	callstack 0
   425   00010A                     	ds	4
   426   00010E                     _dbuf:
   427                           	callstack 0
   428   00010E                     	ds	32
   429   00012E                     _timeString:
   430                           	callstack 0
   431   00012E                     	ds	10
   432                           
   433                           	psect	cstackBANK0
   434   000060                     __pcstackBANK0:
   435                           	callstack 0
   436   000060                     ___flmul@sign:
   437                           	callstack 0
   438                           
   439                           ; 1 bytes @ 0x0
   440   000060                     	ds	1
   441   000061                     ___flmul@grs:
   442                           	callstack 0
   443                           
   444                           ; 4 bytes @ 0x1
   445   000061                     	ds	4
   446   000065                     ___flmul@aexp:
   447                           	callstack 0
   448                           
   449                           ; 1 bytes @ 0x5
   450   000065                     	ds	1
   451   000066                     ___flmul@bexp:
   452                           	callstack 0
   453                           
   454                           ; 1 bytes @ 0x6
   455   000066                     	ds	1
   456   000067                     ___flmul@prod:
   457                           	callstack 0
   458                           
   459                           ; 4 bytes @ 0x7
   460   000067                     	ds	4
   461   00006B                     ___flmul@temp:
   462                           	callstack 0
   463                           
   464                           ; 2 bytes @ 0xB
   465   00006B                     	ds	2
   466   00006D                     ?___fltol:
   467                           	callstack 0
   468   00006D                     ___fltol@f1:
   469                           	callstack 0
   470   00006D                     ___cosdf@r:
   471                           	callstack 0
   472   00006D                     ___sindf@r:
   473                           	callstack 0
   474                           
   475                           ; 4 bytes @ 0xD
   476   00006D                     	ds	4
   477   000071                     ??___fltol:
   478   000071                     ___sindf@w:
   479                           	callstack 0
   480   000071                     ___cosdf$2463:
   481                           	callstack 0
   482                           
   483                           ; 4 bytes @ 0x11
   484   000071                     	ds	4
   485   000075                     ___fltol@sign1:
   486                           	callstack 0
   487   000075                     ___cosdf$2464:
   488                           	callstack 0
   489   000075                     ___sindf$2467:
   490                           	callstack 0
   491                           
   492                           ; 4 bytes @ 0x15
   493   000075                     	ds	1
   494   000076                     ___fltol@exp1:
   495                           	callstack 0
   496                           
   497                           ; 1 bytes @ 0x16
   498   000076                     	ds	3
   499   000079                     ___cosdf$2465:
   500                           	callstack 0
   501   000079                     ___sindf$2468:
   502                           	callstack 0
   503                           
   504                           ; 4 bytes @ 0x19
   505   000079                     	ds	4
   506   00007D                     ___cosdf@w:
   507                           	callstack 0
   508   00007D                     ___sindf$2469:
   509                           	callstack 0
   510                           
   511                           ; 4 bytes @ 0x1D
   512   00007D                     	ds	4
   513   000081                     ___cosdf@z:
   514                           	callstack 0
   515   000081                     ___sindf@s:
   516                           	callstack 0
   517                           
   518                           ; 4 bytes @ 0x21
   519   000081                     	ds	4
   520   000085                     ?___rem_pio2f:
   521                           	callstack 0
   522   000085                     ___rem_pio2f@x:
   523                           	callstack 0
   524   000085                     ___sindf@z:
   525                           	callstack 0
   526                           
   527                           ; 4 bytes @ 0x25
   528   000085                     	ds	4
   529   000089                     ___rem_pio2f@y:
   530                           	callstack 0
   531                           
   532                           ; 1 bytes @ 0x29
   533   000089                     	ds	1
   534   00008A                     ??___rem_pio2f:
   535                           
   536                           ; 1 bytes @ 0x2A
   537   00008A                     	ds	2
   538   00008C                     ___rem_pio2f@ty:
   539                           	callstack 0
   540                           
   541                           ; 4 bytes @ 0x2C
   542   00008C                     	ds	4
   543   000090                     ___rem_pio2f$2466:
   544                           	callstack 0
   545                           
   546                           ; 4 bytes @ 0x30
   547   000090                     	ds	4
   548   000094                     ___rem_pio2f@sign:
   549                           	callstack 0
   550                           
   551                           ; 1 bytes @ 0x34
   552   000094                     	ds	1
   553   000095                     ___rem_pio2f@ux:
   554                           	callstack 0
   555                           
   556                           ; 4 bytes @ 0x35
   557   000095                     	ds	4
   558   000099                     ___rem_pio2f@fn:
   559                           	callstack 0
   560                           
   561                           ; 4 bytes @ 0x39
   562   000099                     	ds	4
   563   00009D                     ___rem_pio2f@t:
   564                           	callstack 0
   565                           
   566                           ; 4 bytes @ 0x3D
   567   00009D                     	ds	4
   568   0000A1                     ___rem_pio2f@n:
   569                           	callstack 0
   570                           
   571                           ; 4 bytes @ 0x41
   572   0000A1                     	ds	4
   573   0000A5                     ?_sinf:
   574                           	callstack 0
   575   0000A5                     sinf@x:
   576                           	callstack 0
   577                           
   578                           ; 4 bytes @ 0x45
   579   0000A5                     	ds	4
   580   0000A9                     ??_sinf:
   581                           
   582                           ; 1 bytes @ 0x49
   583   0000A9                     	ds	2
   584   0000AB                     _sinf$2171:
   585                           	callstack 0
   586                           
   587                           ; 4 bytes @ 0x4B
   588   0000AB                     	ds	4
   589   0000AF                     _sinf$2172:
   590                           	callstack 0
   591                           
   592                           ; 4 bytes @ 0x4F
   593   0000AF                     	ds	4
   594   0000B3                     sinf@n:
   595                           	callstack 0
   596                           
   597                           ; 1 bytes @ 0x53
   598   0000B3                     	ds	1
   599   0000B4                     sinf@sign:
   600                           	callstack 0
   601                           
   602                           ; 1 bytes @ 0x54
   603   0000B4                     	ds	1
   604   0000B5                     _sinf$2462:
   605                           	callstack 0
   606                           
   607                           ; 4 bytes @ 0x55
   608   0000B5                     	ds	4
   609   0000B9                     sinf@y:
   610                           	callstack 0
   611                           
   612                           ; 4 bytes @ 0x59
   613   0000B9                     	ds	4
   614   0000BD                     sinf@ux:
   615                           	callstack 0
   616                           
   617                           ; 4 bytes @ 0x5D
   618   0000BD                     	ds	4
   619   0000C1                     ??_Callibrate:
   620                           
   621                           ; 1 bytes @ 0x61
   622   0000C1                     	ds	4
   623   0000C5                     _Callibrate$2456:
   624                           	callstack 0
   625                           
   626                           ; 4 bytes @ 0x65
   627   0000C5                     	ds	4
   628   0000C9                     _Callibrate$2457:
   629                           	callstack 0
   630                           
   631                           ; 4 bytes @ 0x69
   632   0000C9                     	ds	4
   633   0000CD                     _Callibrate$2458:
   634                           	callstack 0
   635                           
   636                           ; 4 bytes @ 0x6D
   637   0000CD                     	ds	4
   638   0000D1                     _Callibrate$2459:
   639                           	callstack 0
   640                           
   641                           ; 4 bytes @ 0x71
   642   0000D1                     	ds	4
   643   0000D5                     _Callibrate$2460:
   644                           	callstack 0
   645                           
   646                           ; 4 bytes @ 0x75
   647   0000D5                     	ds	4
   648   0000D9                     _Callibrate$2461:
   649                           	callstack 0
   650                           
   651                           ; 2 bytes @ 0x79
   652   0000D9                     	ds	2
   653   0000DB                     ??_main:
   654                           
   655                           ; 1 bytes @ 0x7B
   656   0000DB                     	ds	1
   657                           
   658                           	psect	cstackCOMRAM
   659   000001                     __pcstackCOMRAM:
   660                           	callstack 0
   661   000001                     ??_LowISR:
   662   000001                     
   663                           ; 1 bytes @ 0x0
   664   000001                     	ds	3
   665   000004                     ?_get16bitTMR0val:
   666                           	callstack 0
   667   000004                     ?_DST_adjust:
   668                           	callstack 0
   669   000004                     ?___awdiv:
   670                           	callstack 0
   671   000004                     ?___awmod:
   672                           	callstack 0
   673   000004                     ?___lwmod:
   674                           	callstack 0
   675   000004                     ?_fabsf:
   676                           	callstack 0
   677   000004                     LCD_sendnibble@number:
   678                           	callstack 0
   679   000004                     LEDarray_disp_bin@number:
   680                           	callstack 0
   681   000004                     DST_adjust@month:
   682                           	callstack 0
   683   000004                     ___awdiv@dividend:
   684                           	callstack 0
   685   000004                     ___awmod@dividend:
   686                           	callstack 0
   687   000004                     ___lwmod@dividend:
   688                           	callstack 0
   689   000004                     fputc@c:
   690                           	callstack 0
   691   000004                     fabsf@x:
   692                           	callstack 0
   693                           
   694                           ; 4 bytes @ 0x3
   695   000004                     	ds	1
   696   000005                     LCD_sendbyte@type:
   697                           	callstack 0
   698                           
   699                           ; 1 bytes @ 0x4
   700   000005                     	ds	1
   701   000006                     LCD_sendbyte@Byte:
   702                           	callstack 0
   703   000006                     fputc@fp:
   704                           	callstack 0
   705   000006                     DST_adjust@hour:
   706                           	callstack 0
   707   000006                     get16bitTMR0val@time:
   708                           	callstack 0
   709   000006                     ___awdiv@divisor:
   710                           	callstack 0
   711   000006                     ___awmod@divisor:
   712                           	callstack 0
   713   000006                     ___lwmod@divisor:
   714                           	callstack 0
   715                           
   716                           ; 2 bytes @ 0x5
   717   000006                     	ds	1
   718   000007                     ??_fputc:
   719   000007                     ??_LCD_Init:
   720   000007                     LCD_setline@line:
   721                           	callstack 0
   722   000007                     LCD_sendstring@string:
   723                           	callstack 0
   724                           
   725                           ; 2 bytes @ 0x6
   726   000007                     	ds	1
   727   000008                     ?___wmul:
   728                           	callstack 0
   729   000008                     ___awdiv@counter:
   730                           	callstack 0
   731   000008                     ___awmod@counter:
   732                           	callstack 0
   733   000008                     ___lwmod@counter:
   734                           	callstack 0
   735   000008                     ___wmul@multiplier:
   736                           	callstack 0
   737   000008                     fabsf@u:
   738                           	callstack 0
   739                           
   740                           ; 4 bytes @ 0x7
   741   000008                     	ds	1
   742   000009                     ?_month_days:
   743                           	callstack 0
   744   000009                     ___awdiv@sign:
   745                           	callstack 0
   746   000009                     ___awmod@sign:
   747                           	callstack 0
   748   000009                     LEDarray_control@day:
   749                           	callstack 0
   750   000009                     month_days@month:
   751                           	callstack 0
   752                           
   753                           ; 2 bytes @ 0x8
   754   000009                     	ds	1
   755   00000A                     ?_abs:
   756                           	callstack 0
   757   00000A                     ___wmul@multiplicand:
   758                           	callstack 0
   759   00000A                     ___awdiv@quotient:
   760                           	callstack 0
   761   00000A                     abs@a:
   762                           	callstack 0
   763                           
   764                           ; 2 bytes @ 0x9
   765   00000A                     	ds	1
   766   00000B                     LEDarray_control@temp:
   767                           	callstack 0
   768   00000B                     month_days@year:
   769                           	callstack 0
   770                           
   771                           ; 2 bytes @ 0xA
   772   00000B                     	ds	1
   773   00000C                     ??_abs:
   774   00000C                     ___wmul@product:
   775                           	callstack 0
   776   00000C                     fputs@s:
   777                           	callstack 0
   778                           
   779                           ; 2 bytes @ 0xB
   780   00000C                     	ds	1
   781   00000D                     ??_month_days:
   782   00000D                     
   783                           ; 1 bytes @ 0xC
   784   00000D                     	ds	1
   785   00000E                     ?___lwdiv:
   786                           	callstack 0
   787   00000E                     ?_read_prec_or_width:
   788                           	callstack 0
   789   00000E                     ?___xxtofl:
   790                           	callstack 0
   791   00000E                     read_prec_or_width@fmt:
   792                           	callstack 0
   793   00000E                     fputs@fp:
   794                           	callstack 0
   795   00000E                     ___lwdiv@dividend:
   796                           	callstack 0
   797   00000E                     ___xxtofl@val:
   798                           	callstack 0
   799                           
   800                           ; 4 bytes @ 0xD
   801   00000E                     	ds	1
   802   00000F                     read_prec_or_width@ap:
   803                           	callstack 0
   804   00000F                     fputs@c:
   805                           	callstack 0
   806   00000F                     month_days@monthDays:
   807                           	callstack 0
   808                           
   809                           ; 2 bytes @ 0xE
   810   00000F                     	ds	1
   811   000010                     read_prec_or_width@c:
   812                           	callstack 0
   813   000010                     ___lwdiv@divisor:
   814                           	callstack 0
   815   000010                     fputs@i:
   816                           	callstack 0
   817                           
   818                           ; 2 bytes @ 0xF
   819   000010                     	ds	1
   820   000011                     read_prec_or_width@n:
   821                           	callstack 0
   822                           
   823                           ; 2 bytes @ 0x10
   824   000011                     	ds	1
   825   000012                     ??___xxtofl:
   826   000012                     pad@fp:
   827                           	callstack 0
   828   000012                     ___lwdiv@quotient:
   829                           	callstack 0
   830                           
   831                           ; 2 bytes @ 0x11
   832   000012                     	ds	1
   833   000013                     pad@buf:
   834                           	callstack 0
   835                           
   836                           ; 2 bytes @ 0x12
   837   000013                     	ds	1
   838   000014                     ___lwdiv@counter:
   839                           	callstack 0
   840                           
   841                           ; 1 bytes @ 0x13
   842   000014                     	ds	1
   843   000015                     pad@p:
   844                           	callstack 0
   845                           
   846                           ; 2 bytes @ 0x14
   847   000015                     	ds	1
   848   000016                     ___xxtofl@sign:
   849                           	callstack 0
   850                           
   851                           ; 1 bytes @ 0x15
   852   000016                     	ds	1
   853   000017                     ??_pad:
   854   000017                     ___xxtofl@exp:
   855                           	callstack 0
   856                           
   857                           ; 1 bytes @ 0x16
   858   000017                     	ds	1
   859   000018                     pad@i:
   860                           	callstack 0
   861   000018                     ___xxtofl@arg:
   862                           	callstack 0
   863                           
   864                           ; 4 bytes @ 0x17
   865   000018                     	ds	2
   866   00001A                     dtoa@fp:
   867                           	callstack 0
   868                           
   869                           ; 1 bytes @ 0x19
   870   00001A                     	ds	1
   871   00001B                     dtoa@d:
   872                           	callstack 0
   873                           
   874                           ; 2 bytes @ 0x1A
   875   00001B                     	ds	1
   876   00001C                     ?___fldiv:
   877                           	callstack 0
   878   00001C                     ___fldiv@b:
   879                           	callstack 0
   880                           
   881                           ; 4 bytes @ 0x1B
   882   00001C                     	ds	1
   883   00001D                     _dtoa$2068:
   884                           	callstack 0
   885                           
   886                           ; 2 bytes @ 0x1C
   887   00001D                     	ds	2
   888   00001F                     dtoa@p:
   889                           	callstack 0
   890                           
   891                           ; 1 bytes @ 0x1E
   892   00001F                     	ds	1
   893   000020                     dtoa@w:
   894                           	callstack 0
   895   000020                     ___fldiv@a:
   896                           	callstack 0
   897                           
   898                           ; 4 bytes @ 0x1F
   899   000020                     	ds	2
   900   000022                     dtoa@s:
   901                           	callstack 0
   902                           
   903                           ; 1 bytes @ 0x21
   904   000022                     	ds	1
   905   000023                     dtoa@i:
   906                           	callstack 0
   907                           
   908                           ; 2 bytes @ 0x22
   909   000023                     	ds	1
   910   000024                     ??___fldiv:
   911                           
   912                           ; 1 bytes @ 0x23
   913   000024                     	ds	1
   914   000025                     vfpfcnvrt@fp:
   915                           	callstack 0
   916                           
   917                           ; 1 bytes @ 0x24
   918   000025                     	ds	1
   919   000026                     vfpfcnvrt@fmt:
   920                           	callstack 0
   921                           
   922                           ; 1 bytes @ 0x25
   923   000026                     	ds	1
   924   000027                     vfpfcnvrt@ap:
   925                           	callstack 0
   926                           
   927                           ; 1 bytes @ 0x26
   928   000027                     	ds	1
   929   000028                     ??_vfpfcnvrt:
   930   000028                     ___fldiv@rem:
   931                           	callstack 0
   932                           
   933                           ; 4 bytes @ 0x27
   934   000028                     	ds	2
   935   00002A                     vfpfcnvrt@convarg:
   936                           	callstack 0
   937                           
   938                           ; 4 bytes @ 0x29
   939   00002A                     	ds	2
   940   00002C                     ___fldiv@sign:
   941                           	callstack 0
   942                           
   943                           ; 1 bytes @ 0x2B
   944   00002C                     	ds	1
   945   00002D                     ___fldiv@new_exp:
   946                           	callstack 0
   947                           
   948                           ; 2 bytes @ 0x2C
   949   00002D                     	ds	1
   950   00002E                     vfpfcnvrt@done:
   951                           	callstack 0
   952                           
   953                           ; 1 bytes @ 0x2D
   954   00002E                     	ds	1
   955   00002F                     vfpfcnvrt@cp:
   956                           	callstack 0
   957   00002F                     ___fldiv@grs:
   958                           	callstack 0
   959                           
   960                           ; 4 bytes @ 0x2E
   961   00002F                     	ds	1
   962   000030                     ?_vfprintf:
   963                           	callstack 0
   964   000030                     vfprintf@fp:
   965                           	callstack 0
   966                           
   967                           ; 1 bytes @ 0x2F
   968   000030                     	ds	1
   969   000031                     vfprintf@fmt:
   970                           	callstack 0
   971                           
   972                           ; 1 bytes @ 0x30
   973   000031                     	ds	1
   974   000032                     vfprintf@ap:
   975                           	callstack 0
   976                           
   977                           ; 1 bytes @ 0x31
   978   000032                     	ds	1
   979   000033                     ___fldiv@bexp:
   980                           	callstack 0
   981   000033                     vfprintf@cfmt:
   982                           	callstack 0
   983                           
   984                           ; 1 bytes @ 0x32
   985   000033                     	ds	1
   986   000034                     ?_sprintf:
   987                           	callstack 0
   988   000034                     ___fldiv@aexp:
   989                           	callstack 0
   990   000034                     sprintf@s:
   991                           	callstack 0
   992                           
   993                           ; 2 bytes @ 0x33
   994   000034                     	ds	1
   995   000035                     ?___fladd:
   996                           	callstack 0
   997   000035                     ___fladd@b:
   998                           	callstack 0
   999                           
  1000                           ; 4 bytes @ 0x34
  1001   000035                     	ds	1
  1002   000036                     sprintf@fmt:
  1003                           	callstack 0
  1004                           
  1005                           ; 1 bytes @ 0x35
  1006   000036                     	ds	3
  1007   000039                     ___fladd@a:
  1008                           	callstack 0
  1009                           
  1010                           ; 4 bytes @ 0x38
  1011   000039                     	ds	4
  1012   00003D                     ??___fladd:
  1013                           
  1014                           ; 1 bytes @ 0x3C
  1015   00003D                     	ds	4
  1016   000041                     ___fladd@signs:
  1017                           	callstack 0
  1018   000041                     sprintf@ap:
  1019                           	callstack 0
  1020                           
  1021                           ; 1 bytes @ 0x40
  1022   000041                     	ds	1
  1023   000042                     ___fladd@aexp:
  1024                           	callstack 0
  1025   000042                     sprintf@f:
  1026                           	callstack 0
  1027                           
  1028                           ; 12 bytes @ 0x41
  1029   000042                     	ds	1
  1030   000043                     ___fladd@bexp:
  1031                           	callstack 0
  1032                           
  1033                           ; 1 bytes @ 0x42
  1034   000043                     	ds	1
  1035   000044                     ___fladd@grs:
  1036                           	callstack 0
  1037                           
  1038                           ; 1 bytes @ 0x43
  1039   000044                     	ds	1
  1040   000045                     ?___flmul:
  1041                           	callstack 0
  1042   000045                     ___flmul@b:
  1043                           	callstack 0
  1044                           
  1045                           ; 4 bytes @ 0x44
  1046   000045                     	ds	4
  1047   000049                     ___flmul@a:
  1048                           	callstack 0
  1049                           
  1050                           ; 4 bytes @ 0x48
  1051   000049                     	ds	4
  1052   00004D                     ??___flmul:
  1053                           
  1054                           ; 1 bytes @ 0x4C
  1055   00004D                     	ds	1
  1056   00004E                     
  1057                           ; 1 bytes @ 0x4D
  1058   00004E                     	ds	3
  1059   000051                     ?___flsub:
  1060                           	callstack 0
  1061   000051                     ?___sindf:
  1062                           	callstack 0
  1063   000051                     ?___cosdf:
  1064                           	callstack 0
  1065   000051                     ___flsub@b:
  1066                           	callstack 0
  1067   000051                     ___cosdf@x:
  1068                           	callstack 0
  1069   000051                     ___sindf@x:
  1070                           	callstack 0
  1071                           
  1072                           ; 4 bytes @ 0x50
  1073   000051                     	ds	4
  1074   000055                     ?___flneg:
  1075                           	callstack 0
  1076   000055                     ___flneg@f1:
  1077                           	callstack 0
  1078   000055                     ___flsub@a:
  1079                           	callstack 0
  1080                           
  1081                           ; 4 bytes @ 0x54
  1082   000055                     	ds	4
  1083   000059                     
  1084                           ; 1 bytes @ 0x58
  1085 ;;
  1086 ;;Main: autosize = 0, tempsize = 1, incstack = 0, save=0
  1087 ;;
  1088 ;; *************** function _main *****************
  1089 ;; Defined at:
  1090 ;;		line 20 in file "main.c"
  1091 ;; Parameters:    Size  Location     Type
  1092 ;;		None
  1093 ;; Auto vars:     Size  Location     Type
  1094 ;;  lightString     4    0        unsigned char [4]
  1095 ;; Return value:  Size  Location     Type
  1096 ;;                  1    wreg      void 
  1097 ;; Registers used:
  1098 ;;		wreg, fsr1l, fsr1h, fsr2l, fsr2h, status,2, status,0, tblptrl, tblptrh, tblptru, prodl, prodh, cstack
  1099 ;; Tracked objects:
  1100 ;;		On entry : 0/0
  1101 ;;		On exit  : 0/0
  1102 ;;		Unchanged: 0/0
  1103 ;; Data sizes:     COMRAM   BANK0   BANK1   BANK2   BANK3   BANK4   BANK5   BANK6   BANK7   BANK8   BANK9  BANK10  BANK1
      +1  BANK12  BANK13
  1104 ;;      Params:         0       0       0       0       0       0       0       0       0       0       0       0       
      +0       0       0
  1105 ;;      Locals:         0       0       0       0       0       0       0       0       0       0       0       0       
      +0       0       0
  1106 ;;      Temps:          0       1       0       0       0       0       0       0       0       0       0       0       
      +0       0       0
  1107 ;;      Totals:         0       1       0       0       0       0       0       0       0       0       0       0       
      +0       0       0
  1108 ;;Total ram usage:        1 bytes
  1109 ;; Hardware stack levels required when called: 11
  1110 ;; This function calls:
  1111 ;;		_ADC_init
  1112 ;;		_Callibrate
  1113 ;;		_Comp1_init
  1114 ;;		_Interrupts_init
  1115 ;;		_LCD_Init
  1116 ;;		_LED_activation
  1117 ;;		_LEDarray_init
  1118 ;;		_Timer0_init
  1119 ;;		_calc_time
  1120 ;;		_datetime_init
  1121 ;;		_disp_time
  1122 ;; This function is called by:
  1123 ;;		Startup code after reset
  1124 ;; This function uses a non-reentrant model
  1125 ;;
  1126                           
  1127                           	psect	text0
  1128   003DE2                     __ptext0:
  1129                           	callstack 0
  1130   003DE2                     _main:
  1131                           	callstack 20
  1132   003DE2                     
  1133                           ;main.c: 22:     LCD_Init();
  1134   003DE2  EC6C  F01A         	call	_LCD_Init	;wreg free
  1135   003DE6                     
  1136                           ;main.c: 23:     Comp1_init();
  1137   003DE6  EC50  F020         	call	_Comp1_init	;wreg free
  1138   003DEA                     
  1139                           ;main.c: 24:  ADC_init();
  1140   003DEA  EC93  F020         	call	_ADC_init	;wreg free
  1141   003DEE                     
  1142                           ;main.c: 25:     Timer0_init();
  1143   003DEE  EC76  F020         	call	_Timer0_init	;wreg free
  1144   003DF2                     
  1145                           ;main.c: 26:     LEDarray_init();
  1146   003DF2  ECB3  F01F         	call	_LEDarray_init	;wreg free
  1147   003DF6                     
  1148                           ;main.c: 27:     Interrupts_init();
  1149   003DF6  EC86  F020         	call	_Interrupts_init	;wreg free
  1150   003DFA                     
  1151                           ;main.c: 28:     datetime_init();
  1152   003DFA  ECCD  F020         	call	_datetime_init	;wreg free
  1153   003DFE                     l4588:
  1154                           
  1155                           ;main.c: 34:     {;main.c: 39:         Callibrate();
  1156   003DFE  EC33  F00E         	call	_Callibrate	;wreg free
  1157   003E02                     
  1158                           ;main.c: 40:         calc_time();
  1159   003E02  ECE3  F015         	call	_calc_time	;wreg free
  1160   003E06                     
  1161                           ;main.c: 41:         LED_activation();
  1162   003E06  ECB3  F01B         	call	_LED_activation	;wreg free
  1163   003E0A                     
  1164                           ;main.c: 42:         disp_time();
  1165   003E0A  ECCB  F01E         	call	_disp_time	;wreg free
  1166   003E0E                     
  1167                           ;main.c: 44:         _delay((unsigned long)((10)*(64000000/4000.0)));
  1168   003E0E  0ED0               	movlw	208
  1169   003E10  0100               	movlb	0	; () banked
  1170   003E12  6FDB               	movwf	??_main& (0+255),b
  1171   003E14  0EC9               	movlw	201
  1172   003E16                     u5177:
  1173   003E16  2EE8               	decfsz	wreg,f,c
  1174   003E18  D7FE               	bra	u5177
  1175   003E1A  2FDB               	decfsz	??_main& (0+255),f,b
  1176   003E1C  D7FC               	bra	u5177
  1177   003E1E  D000               	nop2	
  1178   003E20  EFFF  F01E         	goto	l4588
  1179   003E24  EF29  F000         	goto	start
  1180   003E28                     __end_of_main:
  1181                           	callstack 0
  1182                           
  1183 ;; *************** function _disp_time *****************
  1184 ;; Defined at:
  1185 ;;		line 124 in file "datetime.c"
  1186 ;; Parameters:    Size  Location     Type
  1187 ;;		None
  1188 ;; Auto vars:     Size  Location     Type
  1189 ;;		None
  1190 ;; Return value:  Size  Location     Type
  1191 ;;                  1    wreg      void 
  1192 ;; Registers used:
  1193 ;;		wreg, fsr1l, fsr1h, fsr2l, fsr2h, status,2, status,0, tblptrl, tblptrh, tblptru, prodl, prodh, cstack
  1194 ;; Tracked objects:
  1195 ;;		On entry : 0/0
  1196 ;;		On exit  : 0/0
  1197 ;;		Unchanged: 0/0
  1198 ;; Data sizes:     COMRAM   BANK0   BANK1   BANK2   BANK3   BANK4   BANK5   BANK6   BANK7   BANK8   BANK9  BANK10  BANK1
      +1  BANK12  BANK13
  1199 ;;      Params:         0       0       0       0       0       0       0       0       0       0       0       0       
      +0       0       0
  1200 ;;      Locals:         0       0       0       0       0       0       0       0       0       0       0       0       
      +0       0       0
  1201 ;;      Temps:          0       0       0       0       0       0       0       0       0       0       0       0       
      +0       0       0
  1202 ;;      Totals:         0       0       0       0       0       0       0       0       0       0       0       0       
      +0       0       0
  1203 ;;Total ram usage:        0 bytes
  1204 ;; Hardware stack levels used: 1
  1205 ;; Hardware stack levels required when called: 10
  1206 ;; This function calls:
  1207 ;;		_LCD_sendstring
  1208 ;;		_LCD_setline
  1209 ;;		_sprintf
  1210 ;; This function is called by:
  1211 ;;		_main
  1212 ;; This function uses a non-reentrant model
  1213 ;;
  1214                           
  1215                           	psect	text1
  1216   003D96                     __ptext1:
  1217                           	callstack 0
  1218   003D96                     _disp_time:
  1219                           	callstack 20
  1220   003D96                     
  1221                           ;datetime.c: 126:     LCD_setline(1);
  1222   003D96  0E01               	movlw	1
  1223   003D98  EC96  F01F         	call	_LCD_setline
  1224   003D9C                     
  1225                           ;datetime.c: 127:     sprintf(timeString,"%02d:%02d %02d/%02d/%04d",hour,minute,day,mont
      +                          h,year);
  1226   003D9C  0E2E               	movlw	low _timeString
  1227   003D9E  6E34               	movwf	sprintf@s^0,c
  1228   003DA0  0E01               	movlw	high _timeString
  1229   003DA2  6E35               	movwf	(sprintf@s+1)^0,c
  1230   003DA4  0E41               	movlw	low STR_1
  1231   003DA6  6E36               	movwf	sprintf@fmt^0,c
  1232   003DA8  C0F8  F037         	movff	_hour,?_sprintf+3
  1233   003DAC  C0F9  F038         	movff	_hour+1,?_sprintf+4
  1234   003DB0  C0FA  F039         	movff	_minute,?_sprintf+5
  1235   003DB4  C0FB  F03A         	movff	_minute+1,?_sprintf+6
  1236   003DB8  C0F6  F03B         	movff	_day,?_sprintf+7
  1237   003DBC  C0F7  F03C         	movff	_day+1,?_sprintf+8
  1238   003DC0  C059  F03D         	movff	_month,?_sprintf+9
  1239   003DC4  C05A  F03E         	movff	_month+1,?_sprintf+10
  1240   003DC8  C0F2  F03F         	movff	_year,?_sprintf+11
  1241   003DCC  C0F3  F040         	movff	_year+1,?_sprintf+12
  1242   003DD0  EC78  F01F         	call	_sprintf	;wreg free
  1243   003DD4                     
  1244                           ;datetime.c: 128:     LCD_sendstring(timeString);
  1245   003DD4  0E2E               	movlw	low _timeString
  1246   003DD6  6E07               	movwf	LCD_sendstring@string^0,c
  1247   003DD8  0E01               	movlw	high _timeString
  1248   003DDA  6E08               	movwf	(LCD_sendstring@string+1)^0,c
  1249   003DDC  EC06  F020         	call	_LCD_sendstring	;wreg free
  1250   003DE0  0012               	return		;funcret
  1251   003DE2                     __end_of_disp_time:
  1252                           	callstack 0
  1253                           
  1254 ;; *************** function _sprintf *****************
  1255 ;; Defined at:
  1256 ;;		line 9 in file "C:\Program Files\Microchip\xc8\v2.45\pic\sources\c99\common\nf_sprintf.c"
  1257 ;; Parameters:    Size  Location     Type
  1258 ;;  s               2   51[COMRAM] PTR unsigned char 
  1259 ;;		 -> timeString(10), 
  1260 ;;  fmt             1   53[COMRAM] PTR const unsigned char 
  1261 ;;		 -> STR_1(25), 
  1262 ;; Auto vars:     Size  Location     Type
  1263 ;;  f              12   65[COMRAM] struct _IO_FILE
  1264 ;;  ret             2    0        int 
  1265 ;;  ap              1   64[COMRAM] PTR void [1]
  1266 ;;		 -> ?_sprintf(2), 
  1267 ;; Return value:  Size  Location     Type
  1268 ;;                  2   51[COMRAM] int 
  1269 ;; Registers used:
  1270 ;;		wreg, fsr1l, fsr1h, fsr2l, fsr2h, status,2, status,0, tblptrl, tblptrh, tblptru, prodl, prodh, cstack
  1271 ;; Tracked objects:
  1272 ;;		On entry : 0/0
  1273 ;;		On exit  : 0/0
  1274 ;;		Unchanged: 0/0
  1275 ;; Data sizes:     COMRAM   BANK0   BANK1   BANK2   BANK3   BANK4   BANK5   BANK6   BANK7   BANK8   BANK9  BANK10  BANK1
      +1  BANK12  BANK13
  1276 ;;      Params:        13       0       0       0       0       0       0       0       0       0       0       0       
      +0       0       0
  1277 ;;      Locals:        13       0       0       0       0       0       0       0       0       0       0       0       
      +0       0       0
  1278 ;;      Temps:          0       0       0       0       0       0       0       0       0       0       0       0       
      +0       0       0
  1279 ;;      Totals:        26       0       0       0       0       0       0       0       0       0       0       0       
      +0       0       0
  1280 ;;Total ram usage:       26 bytes
  1281 ;; Hardware stack levels used: 1
  1282 ;; Hardware stack levels required when called: 9
  1283 ;; This function calls:
  1284 ;;		_vfprintf
  1285 ;; This function is called by:
  1286 ;;		_disp_time
  1287 ;; This function uses a non-reentrant model
  1288 ;;
  1289                           
  1290                           	psect	text2
  1291   003EF0                     __ptext2:
  1292                           	callstack 0
  1293   003EF0                     _sprintf:
  1294                           	callstack 20
  1295   003EF0  0E37               	movlw	low (?_sprintf+3)
  1296   003EF2  6E41               	movwf	sprintf@ap^0,c
  1297   003EF4  C034  F042         	movff	sprintf@s,sprintf@f
  1298   003EF8  C035  F043         	movff	sprintf@s+1,sprintf@f+1
  1299   003EFC  0E00               	movlw	0
  1300   003EFE  6E46               	movwf	(sprintf@f+4)^0,c
  1301   003F00  0E00               	movlw	0
  1302   003F02  6E45               	movwf	(sprintf@f+3)^0,c
  1303   003F04  0E00               	movlw	0
  1304   003F06  6E4D               	movwf	(sprintf@f+11)^0,c
  1305   003F08  0E00               	movlw	0
  1306   003F0A  6E4C               	movwf	(sprintf@f+10)^0,c
  1307   003F0C  0E42               	movlw	low sprintf@f
  1308   003F0E  6E30               	movwf	vfprintf@fp^0,c
  1309   003F10  C036  F031         	movff	sprintf@fmt,vfprintf@fmt
  1310   003F14  0E41               	movlw	low sprintf@ap
  1311   003F16  6E32               	movwf	vfprintf@ap^0,c
  1312   003F18  EC37  F01F         	call	_vfprintf	;wreg free
  1313   003F1C  5045               	movf	(sprintf@f+3)^0,w,c
  1314   003F1E  2434               	addwf	sprintf@s^0,w,c
  1315   003F20  6ED9               	movwf	fsr2l,c
  1316   003F22  5046               	movf	(sprintf@f+4)^0,w,c
  1317   003F24  2035               	addwfc	(sprintf@s+1)^0,w,c
  1318   003F26  6EDA               	movwf	fsr2h,c
  1319   003F28  6ADF               	clrf	indf2,c
  1320   003F2A  0012               	return		;funcret
  1321   003F2C                     __end_of_sprintf:
  1322                           	callstack 0
  1323                           
  1324 ;; *************** function _vfprintf *****************
  1325 ;; Defined at:
  1326 ;;		line 1817 in file "C:\Program Files\Microchip\xc8\v2.45\pic\sources\c99\common\doprnt.c"
  1327 ;; Parameters:    Size  Location     Type
  1328 ;;  fp              1   47[COMRAM] PTR struct _IO_FILE
  1329 ;;		 -> sprintf@f(12), 
  1330 ;;  fmt             1   48[COMRAM] PTR const unsigned char 
  1331 ;;		 -> STR_1(25), 
  1332 ;;  ap              1   49[COMRAM] PTR PTR void 
  1333 ;;		 -> sprintf@ap(1), 
  1334 ;; Auto vars:     Size  Location     Type
  1335 ;;  cfmt            1   50[COMRAM] PTR unsigned char 
  1336 ;;		 -> STR_1(25), 
  1337 ;; Return value:  Size  Location     Type
  1338 ;;                  2   47[COMRAM] int 
  1339 ;; Registers used:
  1340 ;;		wreg, fsr1l, fsr1h, fsr2l, fsr2h, status,2, status,0, tblptrl, tblptrh, tblptru, prodl, prodh, cstack
  1341 ;; Tracked objects:
  1342 ;;		On entry : 0/0
  1343 ;;		On exit  : 0/0
  1344 ;;		Unchanged: 0/0
  1345 ;; Data sizes:     COMRAM   BANK0   BANK1   BANK2   BANK3   BANK4   BANK5   BANK6   BANK7   BANK8   BANK9  BANK10  BANK1
      +1  BANK12  BANK13
  1346 ;;      Params:         3       0       0       0       0       0       0       0       0       0       0       0       
      +0       0       0
  1347 ;;      Locals:         1       0       0       0       0       0       0       0       0       0       0       0       
      +0       0       0
  1348 ;;      Temps:          0       0       0       0       0       0       0       0       0       0       0       0       
      +0       0       0
  1349 ;;      Totals:         4       0       0       0       0       0       0       0       0       0       0       0       
      +0       0       0
  1350 ;;Total ram usage:        4 bytes
  1351 ;; Hardware stack levels used: 1
  1352 ;; Hardware stack levels required when called: 8
  1353 ;; This function calls:
  1354 ;;		_vfpfcnvrt
  1355 ;; This function is called by:
  1356 ;;		_sprintf
  1357 ;; This function uses a non-reentrant model
  1358 ;;
  1359                           
  1360                           	psect	text3
  1361   003E6E                     __ptext3:
  1362                           	callstack 0
  1363   003E6E                     _vfprintf:
  1364                           	callstack 20
  1365   003E6E                     
  1366                           ;C:\Program Files\Microchip\xc8\v2.45\pic\sources\c99\common\doprnt.c: 1817: int vfprint
      +                          f(FILE *fp, const char *fmt, va_list ap);C:\Program Files\Microchip\xc8\v2.45\pic\source
      +                          s\c99\common\doprnt.c: 1818: {;C:\Program Files\Microchip\xc8\v2.45\pic\sources\c99\comm
      +                          on\doprnt.c: 1820:     char *cfmt;;C:\Program Files\Microchip\xc8\v2.45\pic\sources\c99\
      +                          common\doprnt.c: 1822:     cfmt = (char *)fmt;
  1367   003E6E  C031  F033         	movff	vfprintf@fmt,vfprintf@cfmt
  1368                           
  1369                           ;C:\Program Files\Microchip\xc8\v2.45\pic\sources\c99\common\doprnt.c: 1826:     while (
      +                          *cfmt) {
  1370   003E72  EF43  F01F         	goto	l4354
  1371   003E76                     l4352:
  1372                           
  1373                           ;C:\Program Files\Microchip\xc8\v2.45\pic\sources\c99\common\doprnt.c: 1830:    vfpfcnvr
      +                          t(fp, &cfmt, ap);
  1374   003E76  C030  F025         	movff	vfprintf@fp,vfpfcnvrt@fp
  1375   003E7A  0E33               	movlw	low vfprintf@cfmt
  1376   003E7C  6E26               	movwf	vfpfcnvrt@fmt^0,c
  1377   003E7E  C032  F027         	movff	vfprintf@ap,vfpfcnvrt@ap
  1378   003E82  EC6A  F018         	call	_vfpfcnvrt	;wreg free
  1379   003E86                     l4354:
  1380                           
  1381                           ;C:\Program Files\Microchip\xc8\v2.45\pic\sources\c99\common\doprnt.c: 1826:     while (
      +                          *cfmt) {
  1382   003E86  C033  FFF6         	movff	vfprintf@cfmt,tblptrl
  1383   003E8A                     	if	1	;There is more than 1 active tblptr byte
  1384   003E8A  0E0E               	movlw	high __smallconst
  1385   003E8C  6EF7               	movwf	tblptrh,c
  1386   003E8E                     	endif
  1387   003E8E                     	if	0	;tblptru may be non-zero
  1388   003E8E                     	endif
  1389   003E8E                     	if	1	;Program memory is > 0xFFFF, there are 3 active tblptr bytes
  1390   003E8E  0E00               	movlw	low (__smallconst shr (0+16))
  1391   003E90  6EF8               	movwf	tblptru,c
  1392   003E92                     	endif
  1393   003E92  0008               	tblrd		*
  1394   003E94  50F5               	movf	tablat,w,c
  1395   003E96  0900               	iorlw	0
  1396   003E98  A4D8               	btfss	status,2,c
  1397   003E9A  EF51  F01F         	goto	u4921
  1398   003E9E  EF53  F01F         	goto	u4920
  1399   003EA2                     u4921:
  1400   003EA2  EF3B  F01F         	goto	l4352
  1401   003EA6                     u4920:
  1402   003EA6                     
  1403                           ;C:\Program Files\Microchip\xc8\v2.45\pic\sources\c99\common\doprnt.c: 1835:  return 0;
  1404   003EA6  0E00               	movlw	0
  1405   003EA8  6E31               	movwf	(?_vfprintf+1)^0,c
  1406   003EAA  0E00               	movlw	0
  1407   003EAC  6E30               	movwf	?_vfprintf^0,c
  1408   003EAE  0012               	return		;funcret
  1409   003EB0                     __end_of_vfprintf:
  1410                           	callstack 0
  1411                           
  1412 ;; *************** function _vfpfcnvrt *****************
  1413 ;; Defined at:
  1414 ;;		line 1177 in file "C:\Program Files\Microchip\xc8\v2.45\pic\sources\c99\common\doprnt.c"
  1415 ;; Parameters:    Size  Location     Type
  1416 ;;  fp              1   36[COMRAM] PTR struct _IO_FILE
  1417 ;;		 -> sprintf@f(12), 
  1418 ;;  fmt             1   37[COMRAM] PTR PTR unsigned char 
  1419 ;;		 -> vfprintf@cfmt(1), 
  1420 ;;  ap              1   38[COMRAM] PTR PTR void 
  1421 ;;		 -> sprintf@ap(1), 
  1422 ;; Auto vars:     Size  Location     Type
  1423 ;;  convarg         4   41[COMRAM] struct .
  1424 ;;  cp              1   46[COMRAM] PTR unsigned char 
  1425 ;;		 -> STR_1(25), 
  1426 ;;  done            1   45[COMRAM] _Bool 
  1427 ;;  c               1    0        unsigned char 
  1428 ;; Return value:  Size  Location     Type
  1429 ;;                  1    wreg      void 
  1430 ;; Registers used:
  1431 ;;		wreg, fsr1l, fsr1h, fsr2l, fsr2h, status,2, status,0, tblptrl, tblptrh, tblptru, prodl, prodh, cstack
  1432 ;; Tracked objects:
  1433 ;;		On entry : 0/0
  1434 ;;		On exit  : 0/0
  1435 ;;		Unchanged: 0/0
  1436 ;; Data sizes:     COMRAM   BANK0   BANK1   BANK2   BANK3   BANK4   BANK5   BANK6   BANK7   BANK8   BANK9  BANK10  BANK1
      +1  BANK12  BANK13
  1437 ;;      Params:         3       0       0       0       0       0       0       0       0       0       0       0       
      +0       0       0
  1438 ;;      Locals:         6       0       0       0       0       0       0       0       0       0       0       0       
      +0       0       0
  1439 ;;      Temps:          2       0       0       0       0       0       0       0       0       0       0       0       
      +0       0       0
  1440 ;;      Totals:        11       0       0       0       0       0       0       0       0       0       0       0       
      +0       0       0
  1441 ;;Total ram usage:       11 bytes
  1442 ;; Hardware stack levels used: 1
  1443 ;; Hardware stack levels required when called: 7
  1444 ;; This function calls:
  1445 ;;		_dtoa
  1446 ;;		_fputc
  1447 ;;		_read_prec_or_width
  1448 ;; This function is called by:
  1449 ;;		_vfprintf
  1450 ;; This function uses a non-reentrant model
  1451 ;;
  1452                           
  1453                           	psect	text4
  1454   0030D4                     __ptext4:
  1455                           	callstack 0
  1456   0030D4                     _vfpfcnvrt:
  1457                           	callstack 20
  1458   0030D4                     
  1459                           ;C:\Program Files\Microchip\xc8\v2.45\pic\sources\c99\common\doprnt.c: 1177: vfpfcnvrt(F
      +                          ILE *fp, char *fmt[], va_list ap);C:\Program Files\Microchip\xc8\v2.45\pic\sources\c99\c
      +                          ommon\doprnt.c: 1178: {;C:\Program Files\Microchip\xc8\v2.45\pic\sources\c99\common\dopr
      +                          nt.c: 1179:     char c, *cp;;C:\Program Files\Microchip\xc8\v2.45\pic\sources\c99\common
      +                          \doprnt.c: 1180:     _Bool done;;C:\Program Files\Microchip\xc8\v2.45\pic\sources\c99\co
      +                          mmon\doprnt.c: 1188:  } convarg;;C:\Program Files\Microchip\xc8\v2.45\pic\sources\c99\co
      +                          mmon\doprnt.c: 1201:     if ((*fmt)[0] == '%') {
  1460   0030D4  5026               	movf	vfpfcnvrt@fmt^0,w,c
  1461   0030D6  6ED9               	movwf	fsr2l,c
  1462   0030D8  6ADA               	clrf	fsr2h,c
  1463   0030DA  CFDF FFF6          	movff	indf2,tblptrl
  1464   0030DE                     	if	1	;There is more than 1 active tblptr byte
  1465   0030DE  0E0E               	movlw	high __smallconst
  1466   0030E0  6EF7               	movwf	tblptrh,c
  1467   0030E2                     	endif
  1468   0030E2                     	if	0	;tblptru may be non-zero
  1469   0030E2                     	endif
  1470   0030E2                     	if	1	;Program memory is > 0xFFFF, there are 3 active tblptr bytes
  1471   0030E2  0E00               	movlw	low (__smallconst shr (0+16))
  1472   0030E4  6EF8               	movwf	tblptru,c
  1473   0030E6                     	endif
  1474   0030E6  0008               	tblrd		*
  1475   0030E8  50F5               	movf	tablat,w,c
  1476   0030EA  0A25               	xorlw	37
  1477   0030EC  A4D8               	btfss	status,2,c
  1478   0030EE  EF7B  F018         	goto	u4871
  1479   0030F2  EF7D  F018         	goto	u4870
  1480   0030F6                     u4871:
  1481   0030F6  EF19  F019         	goto	l4340
  1482   0030FA                     u4870:
  1483   0030FA                     
  1484                           ;C:\Program Files\Microchip\xc8\v2.45\pic\sources\c99\common\doprnt.c: 1202:         ++*
      +                          fmt;
  1485   0030FA  5026               	movf	vfpfcnvrt@fmt^0,w,c
  1486   0030FC  6ED9               	movwf	fsr2l,c
  1487   0030FE  6ADA               	clrf	fsr2h,c
  1488   003100  2ADF               	incf	indf2,f,c
  1489   003102                     
  1490                           ;C:\Program Files\Microchip\xc8\v2.45\pic\sources\c99\common\doprnt.c: 1204:         fla
      +                          gs = width = 0;
  1491   003102  0E00               	movlw	0
  1492   003104  0100               	movlb	0	; () banked
  1493   003106  6FE1               	movwf	(_width+1)& (0+255),b
  1494   003108  0E00               	movlw	0
  1495   00310A  6FE0               	movwf	_width& (0+255),b
  1496   00310C  C0E0  F05B         	movff	_width,_flags
  1497   003110                     
  1498                           ; BSR set to: 0
  1499                           ;C:\Program Files\Microchip\xc8\v2.45\pic\sources\c99\common\doprnt.c: 1205:         pre
      +                          c = -1;
  1500   003110  69E2               	setf	_prec& (0+255),b
  1501   003112  69E3               	setf	(_prec+1)& (0+255),b
  1502   003114                     
  1503                           ; BSR set to: 0
  1504                           ;C:\Program Files\Microchip\xc8\v2.45\pic\sources\c99\common\doprnt.c: 1209:         don
      +                          e = 0;
  1505   003114  0E00               	movlw	0
  1506   003116  6E2E               	movwf	vfpfcnvrt@done^0,c
  1507                           
  1508                           ;C:\Program Files\Microchip\xc8\v2.45\pic\sources\c99\common\doprnt.c: 1210:         whi
      +                          le (!done) {
  1509   003118  EFB4  F018         	goto	l4314
  1510   00311C                     l4304:
  1511                           
  1512                           ;C:\Program Files\Microchip\xc8\v2.45\pic\sources\c99\common\doprnt.c: 1220:            
      +                                   flags |= (1 << 1);
  1513   00311C  825B               	bsf	_flags^0,1,c
  1514   00311E                     
  1515                           ;C:\Program Files\Microchip\xc8\v2.45\pic\sources\c99\common\doprnt.c: 1221:            
      +                                   ++*fmt;
  1516   00311E  5026               	movf	vfpfcnvrt@fmt^0,w,c
  1517   003120  6ED9               	movwf	fsr2l,c
  1518   003122  6ADA               	clrf	fsr2h,c
  1519   003124  2ADF               	incf	indf2,f,c
  1520                           
  1521                           ;C:\Program Files\Microchip\xc8\v2.45\pic\sources\c99\common\doprnt.c: 1222:            
      +                                   break;
  1522   003126  EFB4  F018         	goto	l4314
  1523   00312A                     l4308:
  1524                           
  1525                           ;C:\Program Files\Microchip\xc8\v2.45\pic\sources\c99\common\doprnt.c: 1243:            
      +                                   done = 1;
  1526   00312A  0E01               	movlw	1
  1527   00312C  6E2E               	movwf	vfpfcnvrt@done^0,c
  1528                           
  1529                           ;C:\Program Files\Microchip\xc8\v2.45\pic\sources\c99\common\doprnt.c: 1244:            
      +                                   break;
  1530   00312E  EFB4  F018         	goto	l4314
  1531   003132                     l4312:
  1532   003132  5026               	movf	vfpfcnvrt@fmt^0,w,c
  1533   003134  6ED9               	movwf	fsr2l,c
  1534   003136  6ADA               	clrf	fsr2h,c
  1535   003138  CFDF FFF6          	movff	indf2,tblptrl
  1536   00313C                     	if	1	;There is more than 1 active tblptr byte
  1537   00313C  0E0E               	movlw	high __smallconst
  1538   00313E  6EF7               	movwf	tblptrh,c
  1539   003140                     	endif
  1540   003140                     	if	0	;tblptru may be non-zero
  1541   003140                     	endif
  1542   003140                     	if	1	;Program memory is > 0xFFFF, there are 3 active tblptr bytes
  1543   003140  0E00               	movlw	low (__smallconst shr (0+16))
  1544   003142  6EF8               	movwf	tblptru,c
  1545   003144                     	endif
  1546   003144  0008               	tblrd		*
  1547   003146  50F5               	movf	tablat,w,c
  1548   003148  6E28               	movwf	??_vfpfcnvrt^0,c
  1549   00314A  6A29               	clrf	(??_vfpfcnvrt+1)^0,c
  1550                           
  1551                           ; Switch on 2 bytes has been partitioned into a top level switch of size 1, and 1 sub-sw
      +                          itches
  1552                           ; Switch size 1, requested type "simple"
  1553                           ; Number of cases is 1, Range of values is 0 to 0
  1554                           ; switch strategies available:
  1555                           ; Name         Instructions Cycles
  1556                           ; simple_byte            4     3 (average)
  1557                           ;	Chosen strategy is simple_byte
  1558   00314C  5029               	movf	(??_vfpfcnvrt+1)^0,w,c
  1559   00314E  0A00               	xorlw	0	; case 0
  1560   003150  B4D8               	btfsc	status,2,c
  1561   003152  EFAD  F018         	goto	l4638
  1562   003156  EF95  F018         	goto	l4308
  1563   00315A                     l4638:
  1564                           
  1565                           ; Switch size 1, requested type "simple"
  1566                           ; Number of cases is 1, Range of values is 48 to 48
  1567                           ; switch strategies available:
  1568                           ; Name         Instructions Cycles
  1569                           ; simple_byte            4     3 (average)
  1570                           ;	Chosen strategy is simple_byte
  1571   00315A  5028               	movf	??_vfpfcnvrt^0,w,c
  1572   00315C  0A30               	xorlw	48	; case 48
  1573   00315E  B4D8               	btfsc	status,2,c
  1574   003160  EF8E  F018         	goto	l4304
  1575   003164  EF95  F018         	goto	l4308
  1576   003168                     l4314:
  1577                           
  1578                           ;C:\Program Files\Microchip\xc8\v2.45\pic\sources\c99\common\doprnt.c: 1210:         whi
      +                          le (!done) {
  1579   003168  502E               	movf	vfpfcnvrt@done^0,w,c
  1580   00316A  B4D8               	btfsc	status,2,c
  1581   00316C  EFBA  F018         	goto	u4881
  1582   003170  EFBC  F018         	goto	u4880
  1583   003174                     u4881:
  1584   003174  EF99  F018         	goto	l4312
  1585   003178                     u4880:
  1586   003178                     
  1587                           ;C:\Program Files\Microchip\xc8\v2.45\pic\sources\c99\common\doprnt.c: 1256:   width = r
      +                          ead_prec_or_width(fmt, ap);
  1588   003178  C026  F00E         	movff	vfpfcnvrt@fmt,read_prec_or_width@fmt
  1589   00317C  C027  F00F         	movff	vfpfcnvrt@ap,read_prec_or_width@ap
  1590   003180  ECC8  F01C         	call	_read_prec_or_width	;wreg free
  1591   003184  C00E  F0E0         	movff	?_read_prec_or_width,_width
  1592   003188  C00F  F0E1         	movff	?_read_prec_or_width+1,_width+1
  1593   00318C                     
  1594                           ;C:\Program Files\Microchip\xc8\v2.45\pic\sources\c99\common\doprnt.c: 1257:   if (width
      +                           < 0) {
  1595   00318C  0100               	movlb	0	; () banked
  1596   00318E  BFE1               	btfsc	(_width+1)& (0+255),7,b
  1597   003190  EFCE  F018         	goto	u4890
  1598   003194  EFCC  F018         	goto	u4891
  1599   003198                     u4891:
  1600   003198  EFD3  F018         	goto	l4322
  1601   00319C                     u4890:
  1602   00319C                     
  1603                           ; BSR set to: 0
  1604                           ;C:\Program Files\Microchip\xc8\v2.45\pic\sources\c99\common\doprnt.c: 1258:    flags |=
      +                           (1 << 0);
  1605   00319C  805B               	bsf	_flags^0,0,c
  1606                           
  1607                           ;C:\Program Files\Microchip\xc8\v2.45\pic\sources\c99\common\doprnt.c: 1259:    width = 
      +                          -width;
  1608   00319E  6DE0               	negf	_width& (0+255),b
  1609   0031A0  1FE1               	comf	(_width+1)& (0+255),f,b
  1610   0031A2  B0D8               	btfsc	status,0,c
  1611   0031A4  2BE1               	incf	(_width+1)& (0+255),f,b
  1612   0031A6                     l4322:
  1613                           
  1614                           ; BSR set to: 0
  1615                           ;C:\Program Files\Microchip\xc8\v2.45\pic\sources\c99\common\doprnt.c: 1291:   cp = *fmt
      +                          ;
  1616   0031A6  5026               	movf	vfpfcnvrt@fmt^0,w,c
  1617   0031A8  6ED9               	movwf	fsr2l,c
  1618   0031AA  6ADA               	clrf	fsr2h,c
  1619   0031AC  50DF               	movf	indf2,w,c
  1620   0031AE  6E2F               	movwf	vfpfcnvrt@cp^0,c
  1621   0031B0                     
  1622                           ; BSR set to: 0
  1623                           ;C:\Program Files\Microchip\xc8\v2.45\pic\sources\c99\common\doprnt.c: 1361:   if (*cp =
      +                          = 'd' || *cp == 'i') {
  1624   0031B0  C02F  FFF6         	movff	vfpfcnvrt@cp,tblptrl
  1625   0031B4                     	if	1	;There is more than 1 active tblptr byte
  1626   0031B4  0E0E               	movlw	high __smallconst
  1627   0031B6  6EF7               	movwf	tblptrh,c
  1628   0031B8                     	endif
  1629   0031B8                     	if	0	;tblptru may be non-zero
  1630   0031B8                     	endif
  1631   0031B8                     	if	1	;Program memory is > 0xFFFF, there are 3 active tblptr bytes
  1632   0031B8  0E00               	movlw	low (__smallconst shr (0+16))
  1633   0031BA  6EF8               	movwf	tblptru,c
  1634   0031BC                     	endif
  1635   0031BC  0008               	tblrd		*
  1636   0031BE  50F5               	movf	tablat,w,c
  1637   0031C0  0A64               	xorlw	100
  1638   0031C2  B4D8               	btfsc	status,2,c
  1639   0031C4  EFE6  F018         	goto	u4901
  1640   0031C8  EFE8  F018         	goto	u4900
  1641   0031CC                     u4901:
  1642   0031CC  EFF8  F018         	goto	l4328
  1643   0031D0                     u4900:
  1644   0031D0                     
  1645                           ; BSR set to: 0
  1646   0031D0  C02F  FFF6         	movff	vfpfcnvrt@cp,tblptrl
  1647   0031D4                     	if	1	;There is more than 1 active tblptr byte
  1648   0031D4  0E0E               	movlw	high __smallconst
  1649   0031D6  6EF7               	movwf	tblptrh,c
  1650   0031D8                     	endif
  1651   0031D8                     	if	0	;tblptru may be non-zero
  1652   0031D8                     	endif
  1653   0031D8                     	if	1	;Program memory is > 0xFFFF, there are 3 active tblptr bytes
  1654   0031D8  0E00               	movlw	low (__smallconst shr (0+16))
  1655   0031DA  6EF8               	movwf	tblptru,c
  1656   0031DC                     	endif
  1657   0031DC  0008               	tblrd		*
  1658   0031DE  50F5               	movf	tablat,w,c
  1659   0031E0  0A69               	xorlw	105
  1660   0031E2  A4D8               	btfss	status,2,c
  1661   0031E4  EFF6  F018         	goto	u4911
  1662   0031E8  EFF8  F018         	goto	u4910
  1663   0031EC                     u4911:
  1664   0031EC  EF13  F019         	goto	l4336
  1665   0031F0                     u4910:
  1666   0031F0                     l4328:
  1667                           
  1668                           ; BSR set to: 0
  1669                           ;C:\Program Files\Microchip\xc8\v2.45\pic\sources\c99\common\doprnt.c: 1404:    convarg.
      +                          sint = (vfpf_sint_t)(int)(*(int *)__va_arg(*(int **)ap, (int)0));
  1670   0031F0  5027               	movf	vfpfcnvrt@ap^0,w,c
  1671   0031F2  6ED9               	movwf	fsr2l,c
  1672   0031F4  6ADA               	clrf	fsr2h,c
  1673   0031F6  0E02               	movlw	2
  1674   0031F8  26DF               	addwf	indf2,f,c
  1675   0031FA  5CDF               	subwf	indf2,w,c
  1676   0031FC  6ED9               	movwf	fsr2l,c
  1677   0031FE  6ADA               	clrf	fsr2h,c
  1678   003200  CFDE F02A          	movff	postinc2,vfpfcnvrt@convarg
  1679   003204  CFDE F02B          	movff	postinc2,vfpfcnvrt@convarg+1
  1680   003208                     
  1681                           ; BSR set to: 0
  1682                           ;C:\Program Files\Microchip\xc8\v2.45\pic\sources\c99\common\doprnt.c: 1406:    *fmt = c
      +                          p+1;
  1683   003208  5026               	movf	vfpfcnvrt@fmt^0,w,c
  1684   00320A  6ED9               	movwf	fsr2l,c
  1685   00320C  6ADA               	clrf	fsr2h,c
  1686   00320E  282F               	incf	vfpfcnvrt@cp^0,w,c
  1687   003210  6EDF               	movwf	indf2,c
  1688   003212                     
  1689                           ; BSR set to: 0
  1690                           ;C:\Program Files\Microchip\xc8\v2.45\pic\sources\c99\common\doprnt.c: 1432:    return (
      +                          void) dtoa(fp, convarg.sint);;	Return value of _vfpfcnvrt is never used
  1691   003212  C025  F01A         	movff	vfpfcnvrt@fp,dtoa@fp
  1692   003216  C02A  F01B         	movff	vfpfcnvrt@convarg,dtoa@d
  1693   00321A  C02B  F01C         	movff	vfpfcnvrt@convarg+1,dtoa@d+1
  1694   00321E  EC2D  F019         	call	_dtoa	;wreg free
  1695   003222  EF2C  F019         	goto	l1089
  1696   003226                     l4336:
  1697                           
  1698                           ;C:\Program Files\Microchip\xc8\v2.45\pic\sources\c99\common\doprnt.c: 1806:         ++*
      +                          fmt;
  1699   003226  5026               	movf	vfpfcnvrt@fmt^0,w,c
  1700   003228  6ED9               	movwf	fsr2l,c
  1701   00322A  6ADA               	clrf	fsr2h,c
  1702   00322C  2ADF               	incf	indf2,f,c
  1703   00322E  EF2C  F019         	goto	l1089
  1704   003232                     l4340:
  1705                           
  1706                           ;C:\Program Files\Microchip\xc8\v2.45\pic\sources\c99\common\doprnt.c: 1811:     fputc((
      +                          int)(*fmt)[0], fp);
  1707   003232  5026               	movf	vfpfcnvrt@fmt^0,w,c
  1708   003234  6ED9               	movwf	fsr2l,c
  1709   003236  6ADA               	clrf	fsr2h,c
  1710   003238  CFDF FFF6          	movff	indf2,tblptrl
  1711   00323C                     	if	1	;There is more than 1 active tblptr byte
  1712   00323C  0E0E               	movlw	high __smallconst
  1713   00323E  6EF7               	movwf	tblptrh,c
  1714   003240                     	endif
  1715   003240                     	if	0	;tblptru may be non-zero
  1716   003240                     	endif
  1717   003240                     	if	1	;Program memory is > 0xFFFF, there are 3 active tblptr bytes
  1718   003240  0E00               	movlw	low (__smallconst shr (0+16))
  1719   003242  6EF8               	movwf	tblptru,c
  1720   003244                     	endif
  1721   003244  0008               	tblrd		*
  1722   003246  50F5               	movf	tablat,w,c
  1723   003248  6E04               	movwf	fputc@c^0,c
  1724   00324A  6A05               	clrf	(fputc@c+1)^0,c
  1725   00324C  C025  F006         	movff	vfpfcnvrt@fp,fputc@fp
  1726   003250  EC13  F01C         	call	_fputc	;wreg free
  1727   003254  EF13  F019         	goto	l4336
  1728   003258                     l1089:
  1729   003258  0012               	return		;funcret
  1730   00325A                     __end_of_vfpfcnvrt:
  1731                           	callstack 0
  1732                           
  1733 ;; *************** function _read_prec_or_width *****************
  1734 ;; Defined at:
  1735 ;;		line 1158 in file "C:\Program Files\Microchip\xc8\v2.45\pic\sources\c99\common\doprnt.c"
  1736 ;; Parameters:    Size  Location     Type
  1737 ;;  fmt             1   13[COMRAM] PTR PTR const unsigned c
  1738 ;;		 -> vfprintf@cfmt(1), 
  1739 ;;  ap              1   14[COMRAM] PTR PTR void [1]
  1740 ;;		 -> sprintf@ap(1), 
  1741 ;; Auto vars:     Size  Location     Type
  1742 ;;  c               1   15[COMRAM] unsigned char 
  1743 ;;  n               2   16[COMRAM] int 
  1744 ;; Return value:  Size  Location     Type
  1745 ;;                  2   13[COMRAM] int 
  1746 ;; Registers used:
  1747 ;;		wreg, fsr2l, fsr2h, status,2, status,0, tblptrl, tblptrh, tblptru, prodl, prodh, cstack
  1748 ;; Tracked objects:
  1749 ;;		On entry : 0/0
  1750 ;;		On exit  : 0/0
  1751 ;;		Unchanged: 0/0
  1752 ;; Data sizes:     COMRAM   BANK0   BANK1   BANK2   BANK3   BANK4   BANK5   BANK6   BANK7   BANK8   BANK9  BANK10  BANK1
      +1  BANK12  BANK13
  1753 ;;      Params:         2       0       0       0       0       0       0       0       0       0       0       0       
      +0       0       0
  1754 ;;      Locals:         3       0       0       0       0       0       0       0       0       0       0       0       
      +0       0       0
  1755 ;;      Temps:          0       0       0       0       0       0       0       0       0       0       0       0       
      +0       0       0
  1756 ;;      Totals:         5       0       0       0       0       0       0       0       0       0       0       0       
      +0       0       0
  1757 ;;Total ram usage:        5 bytes
  1758 ;; Hardware stack levels used: 1
  1759 ;; Hardware stack levels required when called: 3
  1760 ;; This function calls:
  1761 ;;		___wmul
  1762 ;; This function is called by:
  1763 ;;		_vfpfcnvrt
  1764 ;; This function uses a non-reentrant model
  1765 ;;
  1766                           
  1767                           	psect	text5
  1768   003990                     __ptext5:
  1769                           	callstack 0
  1770   003990                     _read_prec_or_width:
  1771                           	callstack 23
  1772   003990                     
  1773                           ;C:\Program Files\Microchip\xc8\v2.45\pic\sources\c99\common\doprnt.c: 1159:     int n =
      +                           0;
  1774   003990  0E00               	movlw	0
  1775   003992  6E12               	movwf	(read_prec_or_width@n+1)^0,c
  1776   003994  0E00               	movlw	0
  1777   003996  6E11               	movwf	read_prec_or_width@n^0,c
  1778   003998                     
  1779                           ;C:\Program Files\Microchip\xc8\v2.45\pic\sources\c99\common\doprnt.c: 1160:     if ((*f
      +                          mt)[0] == '*') {
  1780   003998  500E               	movf	read_prec_or_width@fmt^0,w,c
  1781   00399A  6ED9               	movwf	fsr2l,c
  1782   00399C  6ADA               	clrf	fsr2h,c
  1783   00399E  CFDF FFF6          	movff	indf2,tblptrl
  1784   0039A2                     	if	1	;There is more than 1 active tblptr byte
  1785   0039A2  0E0E               	movlw	high __smallconst
  1786   0039A4  6EF7               	movwf	tblptrh,c
  1787   0039A6                     	endif
  1788   0039A6                     	if	0	;tblptru may be non-zero
  1789   0039A6                     	endif
  1790   0039A6                     	if	1	;Program memory is > 0xFFFF, there are 3 active tblptr bytes
  1791   0039A6  0E00               	movlw	low (__smallconst shr (0+16))
  1792   0039A8  6EF8               	movwf	tblptru,c
  1793   0039AA                     	endif
  1794   0039AA  0008               	tblrd		*
  1795   0039AC  50F5               	movf	tablat,w,c
  1796   0039AE  0A2A               	xorlw	42
  1797   0039B0  A4D8               	btfss	status,2,c
  1798   0039B2  EFDD  F01C         	goto	u3051
  1799   0039B6  EFDF  F01C         	goto	u3050
  1800   0039BA                     u3051:
  1801   0039BA  EF05  F01D         	goto	l3122
  1802   0039BE                     u3050:
  1803   0039BE                     
  1804                           ;C:\Program Files\Microchip\xc8\v2.45\pic\sources\c99\common\doprnt.c: 1161:         ++*
      +                          fmt;
  1805   0039BE  500E               	movf	read_prec_or_width@fmt^0,w,c
  1806   0039C0  6ED9               	movwf	fsr2l,c
  1807   0039C2  6ADA               	clrf	fsr2h,c
  1808   0039C4  2ADF               	incf	indf2,f,c
  1809   0039C6                     
  1810                           ;C:\Program Files\Microchip\xc8\v2.45\pic\sources\c99\common\doprnt.c: 1162:         n =
      +                           (*(int *)__va_arg(*(int **)*ap, (int)0));
  1811   0039C6  500F               	movf	read_prec_or_width@ap^0,w,c
  1812   0039C8  6ED9               	movwf	fsr2l,c
  1813   0039CA  6ADA               	clrf	fsr2h,c
  1814   0039CC  0E02               	movlw	2
  1815   0039CE  26DF               	addwf	indf2,f,c
  1816   0039D0  5CDF               	subwf	indf2,w,c
  1817   0039D2  6ED9               	movwf	fsr2l,c
  1818   0039D4  6ADA               	clrf	fsr2h,c
  1819   0039D6  CFDE F011          	movff	postinc2,read_prec_or_width@n
  1820   0039DA  CFDE F012          	movff	postinc2,read_prec_or_width@n+1
  1821                           
  1822                           ;C:\Program Files\Microchip\xc8\v2.45\pic\sources\c99\common\doprnt.c: 1163:     } else 
      +                          {
  1823   0039DE  EF1A  F01D         	goto	l1070
  1824   0039E2                     l3118:
  1825                           
  1826                           ;C:\Program Files\Microchip\xc8\v2.45\pic\sources\c99\common\doprnt.c: 1166:            
      +                           n = n * 10 + c;
  1827   0039E2  C011  F008         	movff	read_prec_or_width@n,___wmul@multiplier
  1828   0039E6  C012  F009         	movff	read_prec_or_width@n+1,___wmul@multiplier+1
  1829   0039EA  0E00               	movlw	0
  1830   0039EC  6E0B               	movwf	(___wmul@multiplicand+1)^0,c
  1831   0039EE  0E0A               	movlw	10
  1832   0039F0  6E0A               	movwf	___wmul@multiplicand^0,c
  1833   0039F2  EC63  F020         	call	___wmul	;wreg free
  1834   0039F6  5010               	movf	read_prec_or_width@c^0,w,c
  1835   0039F8  2408               	addwf	?___wmul^0,w,c
  1836   0039FA  6E11               	movwf	read_prec_or_width@n^0,c
  1837   0039FC  0E00               	movlw	0
  1838   0039FE  2009               	addwfc	(?___wmul+1)^0,w,c
  1839   003A00  6E12               	movwf	(read_prec_or_width@n+1)^0,c
  1840   003A02                     
  1841                           ;C:\Program Files\Microchip\xc8\v2.45\pic\sources\c99\common\doprnt.c: 1167:            
      +                           ++*fmt;
  1842   003A02  500E               	movf	read_prec_or_width@fmt^0,w,c
  1843   003A04  6ED9               	movwf	fsr2l,c
  1844   003A06  6ADA               	clrf	fsr2h,c
  1845   003A08  2ADF               	incf	indf2,f,c
  1846   003A0A                     l3122:
  1847                           
  1848                           ;C:\Program Files\Microchip\xc8\v2.45\pic\sources\c99\common\doprnt.c: 1165:         whi
      +                          le ((c = ((unsigned)(*fmt)[0]) - '0') < 10) {
  1849   003A0A  500E               	movf	read_prec_or_width@fmt^0,w,c
  1850   003A0C  6ED9               	movwf	fsr2l,c
  1851   003A0E  6ADA               	clrf	fsr2h,c
  1852   003A10  CFDF FFF6          	movff	indf2,tblptrl
  1853   003A14                     	if	1	;There is more than 1 active tblptr byte
  1854   003A14  0E0E               	movlw	high __smallconst
  1855   003A16  6EF7               	movwf	tblptrh,c
  1856   003A18                     	endif
  1857   003A18                     	if	0	;tblptru may be non-zero
  1858   003A18                     	endif
  1859   003A18                     	if	1	;Program memory is > 0xFFFF, there are 3 active tblptr bytes
  1860   003A18  0E00               	movlw	low (__smallconst shr (0+16))
  1861   003A1A  6EF8               	movwf	tblptru,c
  1862   003A1C                     	endif
  1863   003A1C  0008               	tblrd		*
  1864   003A1E  50F5               	movf	tablat,w,c
  1865   003A20  0FD0               	addlw	208
  1866   003A22  6E10               	movwf	read_prec_or_width@c^0,c
  1867   003A24  0E09               	movlw	9
  1868   003A26  6410               	cpfsgt	read_prec_or_width@c^0,c
  1869   003A28  EF18  F01D         	goto	u3061
  1870   003A2C  EF1A  F01D         	goto	u3060
  1871   003A30                     u3061:
  1872   003A30  EFF1  F01C         	goto	l3118
  1873   003A34                     u3060:
  1874   003A34                     l1070:
  1875                           
  1876                           ;C:\Program Files\Microchip\xc8\v2.45\pic\sources\c99\common\doprnt.c: 1170:     return 
      +                          n;
  1877   003A34  C011  F00E         	movff	read_prec_or_width@n,?_read_prec_or_width
  1878   003A38  C012  F00F         	movff	read_prec_or_width@n+1,?_read_prec_or_width+1
  1879   003A3C  0012               	return		;funcret
  1880   003A3E                     __end_of_read_prec_or_width:
  1881                           	callstack 0
  1882                           
  1883 ;; *************** function _dtoa *****************
  1884 ;; Defined at:
  1885 ;;		line 513 in file "C:\Program Files\Microchip\xc8\v2.45\pic\sources\c99\common\doprnt.c"
  1886 ;; Parameters:    Size  Location     Type
  1887 ;;  fp              1   25[COMRAM] PTR struct _IO_FILE
  1888 ;;		 -> sprintf@f(12), 
  1889 ;;  d               2   26[COMRAM] int 
  1890 ;; Auto vars:     Size  Location     Type
  1891 ;;  i               2   34[COMRAM] int 
  1892 ;;  w               2   31[COMRAM] int 
  1893 ;;  s               1   33[COMRAM] unsigned char 
  1894 ;;  p               1   30[COMRAM] _Bool 
  1895 ;; Return value:  Size  Location     Type
  1896 ;;                  1    wreg      void 
  1897 ;; Registers used:
  1898 ;;		wreg, fsr1l, fsr1h, fsr2l, fsr2h, status,2, status,0, cstack
  1899 ;; Tracked objects:
  1900 ;;		On entry : 0/0
  1901 ;;		On exit  : 0/0
  1902 ;;		Unchanged: 0/0
  1903 ;; Data sizes:     COMRAM   BANK0   BANK1   BANK2   BANK3   BANK4   BANK5   BANK6   BANK7   BANK8   BANK9  BANK10  BANK1
      +1  BANK12  BANK13
  1904 ;;      Params:         3       0       0       0       0       0       0       0       0       0       0       0       
      +0       0       0
  1905 ;;      Locals:         8       0       0       0       0       0       0       0       0       0       0       0       
      +0       0       0
  1906 ;;      Temps:          0       0       0       0       0       0       0       0       0       0       0       0       
      +0       0       0
  1907 ;;      Totals:        11       0       0       0       0       0       0       0       0       0       0       0       
      +0       0       0
  1908 ;;Total ram usage:       11 bytes
  1909 ;; Hardware stack levels used: 1
  1910 ;; Hardware stack levels required when called: 6
  1911 ;; This function calls:
  1912 ;;		___awdiv
  1913 ;;		___awmod
  1914 ;;		_abs
  1915 ;;		_pad
  1916 ;; This function is called by:
  1917 ;;		_vfpfcnvrt
  1918 ;; This function uses a non-reentrant model
  1919 ;;
  1920                           
  1921                           	psect	text6
  1922   00325A                     __ptext6:
  1923                           	callstack 0
  1924   00325A                     _dtoa:
  1925                           	callstack 20
  1926   00325A                     
  1927                           ;C:\Program Files\Microchip\xc8\v2.45\pic\sources\c99\common\doprnt.c: 513: static void 
      +                          dtoa(FILE *fp, vfpf_sint_t d);C:\Program Files\Microchip\xc8\v2.45\pic\sources\c99\commo
      +                          n\doprnt.c: 514: {;C:\Program Files\Microchip\xc8\v2.45\pic\sources\c99\common\doprnt.c:
      +                           515:  char s;;C:\Program Files\Microchip\xc8\v2.45\pic\sources\c99\common\doprnt.c: 516
      +                          :     int i, w;;C:\Program Files\Microchip\xc8\v2.45\pic\sources\c99\common\doprnt.c: 52
      +                          0:  _Bool p = 1;
  1928   00325A  0E01               	movlw	1
  1929   00325C  6E1F               	movwf	dtoa@p^0,c
  1930   00325E                     
  1931                           ;C:\Program Files\Microchip\xc8\v2.45\pic\sources\c99\common\doprnt.c: 524:     s = d < 
      +                          0 ? 1 : 0;
  1932   00325E  BE1C               	btfsc	(dtoa@d+1)^0,7,c
  1933   003260  EF34  F019         	goto	u4701
  1934   003264  EF37  F019         	goto	u4700
  1935   003268                     u4701:
  1936   003268  0E01               	movlw	1
  1937   00326A  EF38  F019         	goto	u4710
  1938   00326E                     u4700:
  1939   00326E  0E00               	movlw	0
  1940   003270                     u4710:
  1941   003270  6E22               	movwf	dtoa@s^0,c
  1942   003272                     
  1943                           ;C:\Program Files\Microchip\xc8\v2.45\pic\sources\c99\common\doprnt.c: 535:     w = widt
      +                          h;
  1944   003272  C0E0  F020         	movff	_width,dtoa@w
  1945   003276  C0E1  F021         	movff	_width+1,dtoa@w+1
  1946   00327A                     
  1947                           ;C:\Program Files\Microchip\xc8\v2.45\pic\sources\c99\common\doprnt.c: 536:     if (s
  1948   00327A  5022               	movf	dtoa@s^0,w,c
  1949   00327C  B4D8               	btfsc	status,2,c
  1950   00327E  EF43  F019         	goto	u4721
  1951   003282  EF45  F019         	goto	u4720
  1952   003286                     u4721:
  1953   003286  EF5C  F019         	goto	l1053
  1954   00328A                     u4720:
  1955   00328A                     
  1956                           ;C:\Program Files\Microchip\xc8\v2.45\pic\sources\c99\common\doprnt.c: 540:     ) {;C:\P
      +                          rogram Files\Microchip\xc8\v2.45\pic\sources\c99\common\doprnt.c: 541:         --w;
  1957   00328A  0620               	decf	dtoa@w^0,f,c
  1958   00328C  A0D8               	btfss	status,0,c
  1959   00328E  0621               	decf	(dtoa@w+1)^0,f,c
  1960   003290                     
  1961                           ;C:\Program Files\Microchip\xc8\v2.45\pic\sources\c99\common\doprnt.c: 542:   s = s ? '-
      +                          ' : '+';
  1962   003290  5022               	movf	dtoa@s^0,w,c
  1963   003292  A4D8               	btfss	status,2,c
  1964   003294  EF4E  F019         	goto	u4731
  1965   003298  EF50  F019         	goto	u4730
  1966   00329C                     u4731:
  1967   00329C  EF56  F019         	goto	l4214
  1968   0032A0                     u4730:
  1969   0032A0  0E00               	movlw	0
  1970   0032A2  6E1E               	movwf	(_dtoa$2068+1)^0,c
  1971   0032A4  0E2B               	movlw	43
  1972   0032A6  6E1D               	movwf	_dtoa$2068^0,c
  1973   0032A8  EF5A  F019         	goto	l4216
  1974   0032AC                     l4214:
  1975   0032AC  0E00               	movlw	0
  1976   0032AE  6E1E               	movwf	(_dtoa$2068+1)^0,c
  1977   0032B0  0E2D               	movlw	45
  1978   0032B2  6E1D               	movwf	_dtoa$2068^0,c
  1979   0032B4                     l4216:
  1980   0032B4  C01D  F022         	movff	_dtoa$2068,dtoa@s
  1981   0032B8                     l1053:
  1982                           
  1983                           ;C:\Program Files\Microchip\xc8\v2.45\pic\sources\c99\common\doprnt.c: 552:     i = size
      +                          of(dbuf) - 1;
  1984   0032B8  0E00               	movlw	0
  1985   0032BA  6E24               	movwf	(dtoa@i+1)^0,c
  1986   0032BC  0E1F               	movlw	31
  1987   0032BE  6E23               	movwf	dtoa@i^0,c
  1988   0032C0                     
  1989                           ;C:\Program Files\Microchip\xc8\v2.45\pic\sources\c99\common\doprnt.c: 553:     dbuf[i] 
      +                          = '\0';
  1990   0032C0  0E00               	movlw	0
  1991   0032C2  0101               	movlb	1	; () banked
  1992   0032C4  6F2D               	movwf	(_dbuf+31)& (0+255),b
  1993                           
  1994                           ;C:\Program Files\Microchip\xc8\v2.45\pic\sources\c99\common\doprnt.c: 554:     while (!
      +                          (i < 1) && (d != 0
  1995   0032C6  EF94  F019         	goto	l4230
  1996   0032CA                     l4220:
  1997                           
  1998                           ;C:\Program Files\Microchip\xc8\v2.45\pic\sources\c99\common\doprnt.c: 563:     )) {;C:\
      +                          Program Files\Microchip\xc8\v2.45\pic\sources\c99\common\doprnt.c: 564:         --i;
  1999   0032CA  0623               	decf	dtoa@i^0,f,c
  2000   0032CC  A0D8               	btfss	status,0,c
  2001   0032CE  0624               	decf	(dtoa@i+1)^0,f,c
  2002   0032D0                     
  2003                           ;C:\Program Files\Microchip\xc8\v2.45\pic\sources\c99\common\doprnt.c: 565:         dbuf
      +                          [i] = (char)((int)'0' + abs(d % 10));
  2004   0032D0  0E0E               	movlw	low _dbuf
  2005   0032D2  2423               	addwf	dtoa@i^0,w,c
  2006   0032D4  6ED9               	movwf	fsr2l,c
  2007   0032D6  0E01               	movlw	high _dbuf
  2008   0032D8  2024               	addwfc	(dtoa@i+1)^0,w,c
  2009   0032DA  6EDA               	movwf	fsr2h,c
  2010   0032DC  C01B  F004         	movff	dtoa@d,___awmod@dividend
  2011   0032E0  C01C  F005         	movff	dtoa@d+1,___awmod@dividend+1
  2012   0032E4  0E00               	movlw	0
  2013   0032E6  6E07               	movwf	(___awmod@divisor+1)^0,c
  2014   0032E8  0E0A               	movlw	10
  2015   0032EA  6E06               	movwf	___awmod@divisor^0,c
  2016   0032EC  EC70  F01C         	call	___awmod	;wreg free
  2017   0032F0  C004  F00A         	movff	?___awmod,abs@a
  2018   0032F4  C005  F00B         	movff	?___awmod+1,abs@a+1
  2019   0032F8  ECEC  F01F         	call	_abs	;wreg free
  2020   0032FC  500A               	movf	?_abs^0,w,c
  2021   0032FE  0F30               	addlw	48
  2022   003300  6EDF               	movwf	indf2,c
  2023   003302                     
  2024                           ;C:\Program Files\Microchip\xc8\v2.45\pic\sources\c99\common\doprnt.c: 569:   p = 0;
  2025   003302  0E00               	movlw	0
  2026   003304  6E1F               	movwf	dtoa@p^0,c
  2027   003306                     
  2028                           ;C:\Program Files\Microchip\xc8\v2.45\pic\sources\c99\common\doprnt.c: 571:         --w;
  2029   003306  0620               	decf	dtoa@w^0,f,c
  2030   003308  A0D8               	btfss	status,0,c
  2031   00330A  0621               	decf	(dtoa@w+1)^0,f,c
  2032   00330C                     
  2033                           ;C:\Program Files\Microchip\xc8\v2.45\pic\sources\c99\common\doprnt.c: 572:         d = 
      +                          d / 10;
  2034   00330C  C01B  F004         	movff	dtoa@d,___awdiv@dividend
  2035   003310  C01C  F005         	movff	dtoa@d+1,___awdiv@dividend+1
  2036   003314  0E00               	movlw	0
  2037   003316  6E07               	movwf	(___awdiv@divisor+1)^0,c
  2038   003318  0E0A               	movlw	10
  2039   00331A  6E06               	movwf	___awdiv@divisor^0,c
  2040   00331C  EC51  F01B         	call	___awdiv	;wreg free
  2041   003320  C004  F01B         	movff	?___awdiv,dtoa@d
  2042   003324  C005  F01C         	movff	?___awdiv+1,dtoa@d+1
  2043   003328                     l4230:
  2044                           
  2045                           ;C:\Program Files\Microchip\xc8\v2.45\pic\sources\c99\common\doprnt.c: 554:     while (!
      +                          (i < 1) && (d != 0
  2046   003328  BE24               	btfsc	(dtoa@i+1)^0,7,c
  2047   00332A  EF9F  F019         	goto	u4741
  2048   00332E  5024               	movf	(dtoa@i+1)^0,w,c
  2049   003330  E108               	bnz	u4740
  2050   003332  0423               	decf	dtoa@i^0,w,c
  2051   003334  A0D8               	btfss	status,0,c
  2052   003336  EF9F  F019         	goto	u4741
  2053   00333A  EFA1  F019         	goto	u4740
  2054   00333E                     u4741:
  2055   00333E  EFC6  F019         	goto	l4240
  2056   003342                     u4740:
  2057   003342  501B               	movf	dtoa@d^0,w,c
  2058   003344  101C               	iorwf	(dtoa@d+1)^0,w,c
  2059   003346  A4D8               	btfss	status,2,c
  2060   003348  EFA8  F019         	goto	u4751
  2061   00334C  EFAA  F019         	goto	u4750
  2062   003350                     u4751:
  2063   003350  EF65  F019         	goto	l4220
  2064   003354                     u4750:
  2065   003354  501F               	movf	dtoa@p^0,w,c
  2066   003356  A4D8               	btfss	status,2,c
  2067   003358  EFB0  F019         	goto	u4761
  2068   00335C  EFB2  F019         	goto	u4760
  2069   003360                     u4761:
  2070   003360  EF65  F019         	goto	l4220
  2071   003364                     u4760:
  2072   003364  BE21               	btfsc	(dtoa@w+1)^0,7,c
  2073   003366  EFBD  F019         	goto	u4771
  2074   00336A  5021               	movf	(dtoa@w+1)^0,w,c
  2075   00336C  E108               	bnz	u4770
  2076   00336E  0420               	decf	dtoa@w^0,w,c
  2077   003370  A0D8               	btfss	status,0,c
  2078   003372  EFBD  F019         	goto	u4771
  2079   003376  EFBF  F019         	goto	u4770
  2080   00337A                     u4771:
  2081   00337A  EFC6  F019         	goto	l4240
  2082   00337E                     u4770:
  2083   00337E  B25B               	btfsc	_flags^0,1,c
  2084   003380  EFC4  F019         	goto	u4781
  2085   003384  EFC6  F019         	goto	u4780
  2086   003388                     u4781:
  2087   003388  EF65  F019         	goto	l4220
  2088   00338C                     u4780:
  2089   00338C                     l4240:
  2090                           
  2091                           ;C:\Program Files\Microchip\xc8\v2.45\pic\sources\c99\common\doprnt.c: 576:     if (s !=
      +                           0) {
  2092   00338C  5022               	movf	dtoa@s^0,w,c
  2093   00338E  B4D8               	btfsc	status,2,c
  2094   003390  EFCC  F019         	goto	u4791
  2095   003394  EFCE  F019         	goto	u4790
  2096   003398                     u4791:
  2097   003398  EFD9  F019         	goto	l4246
  2098   00339C                     u4790:
  2099   00339C                     
  2100                           ;C:\Program Files\Microchip\xc8\v2.45\pic\sources\c99\common\doprnt.c: 577:         --i;
  2101   00339C  0623               	decf	dtoa@i^0,f,c
  2102   00339E  A0D8               	btfss	status,0,c
  2103   0033A0  0624               	decf	(dtoa@i+1)^0,f,c
  2104   0033A2                     
  2105                           ;C:\Program Files\Microchip\xc8\v2.45\pic\sources\c99\common\doprnt.c: 578:         dbuf
      +                          [i] = s;
  2106   0033A2  0E0E               	movlw	low _dbuf
  2107   0033A4  2423               	addwf	dtoa@i^0,w,c
  2108   0033A6  6ED9               	movwf	fsr2l,c
  2109   0033A8  0E01               	movlw	high _dbuf
  2110   0033AA  2024               	addwfc	(dtoa@i+1)^0,w,c
  2111   0033AC  6EDA               	movwf	fsr2h,c
  2112   0033AE  C022  FFDF         	movff	dtoa@s,indf2
  2113   0033B2                     l4246:
  2114                           
  2115                           ;C:\Program Files\Microchip\xc8\v2.45\pic\sources\c99\common\doprnt.c: 582:     return (
      +                          void) pad(fp, &dbuf[i], w);
  2116   0033B2  C01A  F012         	movff	dtoa@fp,pad@fp
  2117   0033B6  0E0E               	movlw	low _dbuf
  2118   0033B8  2423               	addwf	dtoa@i^0,w,c
  2119   0033BA  6E13               	movwf	pad@buf^0,c
  2120   0033BC  0E01               	movlw	high _dbuf
  2121   0033BE  2024               	addwfc	(dtoa@i+1)^0,w,c
  2122   0033C0  6E14               	movwf	(pad@buf+1)^0,c
  2123   0033C2  C020  F015         	movff	dtoa@w,pad@p
  2124   0033C6  C021  F016         	movff	dtoa@w+1,pad@p+1
  2125   0033CA  EC70  F01D         	call	_pad	;wreg free
  2126   0033CE  0012               	return		;funcret
  2127   0033D0                     __end_of_dtoa:
  2128                           	callstack 0
  2129                           
  2130 ;; *************** function _pad *****************
  2131 ;; Defined at:
  2132 ;;		line 193 in file "C:\Program Files\Microchip\xc8\v2.45\pic\sources\c99\common\doprnt.c"
  2133 ;; Parameters:    Size  Location     Type
  2134 ;;  fp              1   17[COMRAM] PTR struct _IO_FILE
  2135 ;;		 -> sprintf@f(12), 
  2136 ;;  buf             2   18[COMRAM] PTR unsigned char 
  2137 ;;		 -> dbuf(32), 
  2138 ;;  p               2   20[COMRAM] int 
  2139 ;; Auto vars:     Size  Location     Type
  2140 ;;  i               2   23[COMRAM] int 
  2141 ;; Return value:  Size  Location     Type
  2142 ;;                  1    wreg      void 
  2143 ;; Registers used:
  2144 ;;		wreg, fsr1l, fsr1h, fsr2l, fsr2h, status,2, status,0, cstack
  2145 ;; Tracked objects:
  2146 ;;		On entry : 0/0
  2147 ;;		On exit  : 0/0
  2148 ;;		Unchanged: 0/0
  2149 ;; Data sizes:     COMRAM   BANK0   BANK1   BANK2   BANK3   BANK4   BANK5   BANK6   BANK7   BANK8   BANK9  BANK10  BANK1
      +1  BANK12  BANK13
  2150 ;;      Params:         5       0       0       0       0       0       0       0       0       0       0       0       
      +0       0       0
  2151 ;;      Locals:         2       0       0       0       0       0       0       0       0       0       0       0       
      +0       0       0
  2152 ;;      Temps:          1       0       0       0       0       0       0       0       0       0       0       0       
      +0       0       0
  2153 ;;      Totals:         8       0       0       0       0       0       0       0       0       0       0       0       
      +0       0       0
  2154 ;;Total ram usage:        8 bytes
  2155 ;; Hardware stack levels used: 1
  2156 ;; Hardware stack levels required when called: 5
  2157 ;; This function calls:
  2158 ;;		_fputc
  2159 ;;		_fputs
  2160 ;; This function is called by:
  2161 ;;		_dtoa
  2162 ;; This function uses a non-reentrant model
  2163 ;;
  2164                           
  2165                           	psect	text7
  2166   003AE0                     __ptext7:
  2167                           	callstack 0
  2168   003AE0                     _pad:
  2169                           	callstack 20
  2170   003AE0                     
  2171                           ;C:\Program Files\Microchip\xc8\v2.45\pic\sources\c99\common\doprnt.c: 193: static void 
      +                          pad(FILE *fp, char *buf, int p);C:\Program Files\Microchip\xc8\v2.45\pic\sources\c99\com
      +                          mon\doprnt.c: 194: {;C:\Program Files\Microchip\xc8\v2.45\pic\sources\c99\common\doprnt.
      +                          c: 195:     int i;;C:\Program Files\Microchip\xc8\v2.45\pic\sources\c99\common\doprnt.c:
      +                           199:     if (flags & (1 << 0)) {
  2172   003AE0  A05B               	btfss	_flags^0,0,c
  2173   003AE2  EF75  F01D         	goto	u4661
  2174   003AE6  EF77  F01D         	goto	u4660
  2175   003AEA                     u4661:
  2176   003AEA  EF7F  F01D         	goto	l4188
  2177   003AEE                     u4660:
  2178   003AEE                     
  2179                           ;C:\Program Files\Microchip\xc8\v2.45\pic\sources\c99\common\doprnt.c: 200:         fput
      +                          s((const char *)buf, fp);
  2180   003AEE  C013  F00C         	movff	pad@buf,fputs@s
  2181   003AF2  C014  F00D         	movff	pad@buf+1,fputs@s+1
  2182   003AF6  C012  F00E         	movff	pad@fp,fputs@fp
  2183   003AFA  EC58  F01F         	call	_fputs	;wreg free
  2184   003AFE                     l4188:
  2185                           
  2186                           ;C:\Program Files\Microchip\xc8\v2.45\pic\sources\c99\common\doprnt.c: 205:  if (p < 0) 
      +                          {
  2187   003AFE  BE16               	btfsc	(pad@p+1)^0,7,c
  2188   003B00  EF86  F01D         	goto	u4670
  2189   003B04  EF84  F01D         	goto	u4671
  2190   003B08                     u4671:
  2191   003B08  EF8A  F01D         	goto	l1045
  2192   003B0C                     u4670:
  2193   003B0C                     
  2194                           ;C:\Program Files\Microchip\xc8\v2.45\pic\sources\c99\common\doprnt.c: 206:   p = 0;
  2195   003B0C  0E00               	movlw	0
  2196   003B0E  6E16               	movwf	(pad@p+1)^0,c
  2197   003B10  0E00               	movlw	0
  2198   003B12  6E15               	movwf	pad@p^0,c
  2199   003B14                     l1045:
  2200                           
  2201                           ;C:\Program Files\Microchip\xc8\v2.45\pic\sources\c99\common\doprnt.c: 208:     i = 0;
  2202   003B14  0E00               	movlw	0
  2203   003B16  6E19               	movwf	(pad@i+1)^0,c
  2204   003B18  0E00               	movlw	0
  2205   003B1A  6E18               	movwf	pad@i^0,c
  2206                           
  2207                           ;C:\Program Files\Microchip\xc8\v2.45\pic\sources\c99\common\doprnt.c: 209:     while (i
      +                           < p) {
  2208   003B1C  EF9A  F01D         	goto	l4196
  2209   003B20                     l4192:
  2210                           
  2211                           ;C:\Program Files\Microchip\xc8\v2.45\pic\sources\c99\common\doprnt.c: 210:         fput
      +                          c(' ', fp);
  2212   003B20  0E00               	movlw	0
  2213   003B22  6E05               	movwf	(fputc@c+1)^0,c
  2214   003B24  0E20               	movlw	32
  2215   003B26  6E04               	movwf	fputc@c^0,c
  2216   003B28  C012  F006         	movff	pad@fp,fputc@fp
  2217   003B2C  EC13  F01C         	call	_fputc	;wreg free
  2218   003B30                     
  2219                           ;C:\Program Files\Microchip\xc8\v2.45\pic\sources\c99\common\doprnt.c: 211:         ++i;
  2220   003B30  4A18               	infsnz	pad@i^0,f,c
  2221   003B32  2A19               	incf	(pad@i+1)^0,f,c
  2222   003B34                     l4196:
  2223                           
  2224                           ;C:\Program Files\Microchip\xc8\v2.45\pic\sources\c99\common\doprnt.c: 209:     while (i
      +                           < p) {
  2225   003B34  5015               	movf	pad@p^0,w,c
  2226   003B36  5C18               	subwf	pad@i^0,w,c
  2227   003B38  5019               	movf	(pad@i+1)^0,w,c
  2228   003B3A  0A80               	xorlw	128
  2229   003B3C  6E17               	movwf	??_pad^0,c
  2230   003B3E  5016               	movf	(pad@p+1)^0,w,c
  2231   003B40  0A80               	xorlw	128
  2232   003B42  5817               	subwfb	??_pad^0,w,c
  2233   003B44  A0D8               	btfss	status,0,c
  2234   003B46  EFA7  F01D         	goto	u4681
  2235   003B4A  EFA9  F01D         	goto	u4680
  2236   003B4E                     u4681:
  2237   003B4E  EF90  F01D         	goto	l4192
  2238   003B52                     u4680:
  2239   003B52                     
  2240                           ;C:\Program Files\Microchip\xc8\v2.45\pic\sources\c99\common\doprnt.c: 216:     if (!(fl
      +                          ags & (1 << 0))) {
  2241   003B52  B05B               	btfsc	_flags^0,0,c
  2242   003B54  EFAE  F01D         	goto	u4691
  2243   003B58  EFB0  F01D         	goto	u4690
  2244   003B5C                     u4691:
  2245   003B5C  EFB8  F01D         	goto	l1050
  2246   003B60                     u4690:
  2247   003B60                     
  2248                           ;C:\Program Files\Microchip\xc8\v2.45\pic\sources\c99\common\doprnt.c: 218:         fput
      +                          s((const char *)buf, fp);
  2249   003B60  C013  F00C         	movff	pad@buf,fputs@s
  2250   003B64  C014  F00D         	movff	pad@buf+1,fputs@s+1
  2251   003B68  C012  F00E         	movff	pad@fp,fputs@fp
  2252   003B6C  EC58  F01F         	call	_fputs	;wreg free
  2253   003B70                     l1050:
  2254   003B70  0012               	return		;funcret
  2255   003B72                     __end_of_pad:
  2256                           	callstack 0
  2257                           
  2258 ;; *************** function _fputs *****************
  2259 ;; Defined at:
  2260 ;;		line 8 in file "C:\Program Files\Microchip\xc8\v2.45\pic\sources\c99\common\nf_fputs.c"
  2261 ;; Parameters:    Size  Location     Type
  2262 ;;  s               2   11[COMRAM] PTR const unsigned char 
  2263 ;;		 -> dbuf(32), 
  2264 ;;  fp              1   13[COMRAM] PTR struct _IO_FILE
  2265 ;;		 -> sprintf@f(12), 
  2266 ;; Auto vars:     Size  Location     Type
  2267 ;;  i               2   15[COMRAM] int 
  2268 ;;  c               1   14[COMRAM] unsigned char 
  2269 ;; Return value:  Size  Location     Type
  2270 ;;                  2   11[COMRAM] int 
  2271 ;; Registers used:
  2272 ;;		wreg, fsr1l, fsr1h, fsr2l, fsr2h, status,2, status,0, cstack
  2273 ;; Tracked objects:
  2274 ;;		On entry : 0/0
  2275 ;;		On exit  : 0/0
  2276 ;;		Unchanged: 0/0
  2277 ;; Data sizes:     COMRAM   BANK0   BANK1   BANK2   BANK3   BANK4   BANK5   BANK6   BANK7   BANK8   BANK9  BANK10  BANK1
      +1  BANK12  BANK13
  2278 ;;      Params:         3       0       0       0       0       0       0       0       0       0       0       0       
      +0       0       0
  2279 ;;      Locals:         3       0       0       0       0       0       0       0       0       0       0       0       
      +0       0       0
  2280 ;;      Temps:          0       0       0       0       0       0       0       0       0       0       0       0       
      +0       0       0
  2281 ;;      Totals:         6       0       0       0       0       0       0       0       0       0       0       0       
      +0       0       0
  2282 ;;Total ram usage:        6 bytes
  2283 ;; Hardware stack levels used: 1
  2284 ;; Hardware stack levels required when called: 4
  2285 ;; This function calls:
  2286 ;;		_fputc
  2287 ;; This function is called by:
  2288 ;;		_pad
  2289 ;; This function uses a non-reentrant model
  2290 ;;
  2291                           
  2292                           	psect	text8
  2293   003EB0                     __ptext8:
  2294                           	callstack 0
  2295   003EB0                     _fputs:
  2296                           	callstack 20
  2297   003EB0  0E00               	movlw	0
  2298   003EB2  6E11               	movwf	(fputs@i+1)^0,c
  2299   003EB4  0E00               	movlw	0
  2300   003EB6  6E10               	movwf	fputs@i^0,c
  2301   003EB8  EF67  F01F         	goto	l4182
  2302   003EBC                     l4178:
  2303   003EBC  C00F  F004         	movff	fputs@c,fputc@c
  2304   003EC0  6A05               	clrf	(fputc@c+1)^0,c
  2305   003EC2  C00E  F006         	movff	fputs@fp,fputc@fp
  2306   003EC6  EC13  F01C         	call	_fputc	;wreg free
  2307   003ECA  4A10               	infsnz	fputs@i^0,f,c
  2308   003ECC  2A11               	incf	(fputs@i+1)^0,f,c
  2309   003ECE                     l4182:
  2310   003ECE  5010               	movf	fputs@i^0,w,c
  2311   003ED0  240C               	addwf	fputs@s^0,w,c
  2312   003ED2  6ED9               	movwf	fsr2l,c
  2313   003ED4  5011               	movf	(fputs@i+1)^0,w,c
  2314   003ED6  200D               	addwfc	(fputs@s+1)^0,w,c
  2315   003ED8  6EDA               	movwf	fsr2h,c
  2316   003EDA  50DF               	movf	indf2,w,c
  2317   003EDC  6E0F               	movwf	fputs@c^0,c
  2318   003EDE  500F               	movf	fputs@c^0,w,c
  2319   003EE0  A4D8               	btfss	status,2,c
  2320   003EE2  EF75  F01F         	goto	u4651
  2321   003EE6  EF77  F01F         	goto	u4650
  2322   003EEA                     u4651:
  2323   003EEA  EF5E  F01F         	goto	l4178
  2324   003EEE                     u4650:
  2325   003EEE  0012               	return		;funcret
  2326   003EF0                     __end_of_fputs:
  2327                           	callstack 0
  2328                           
  2329 ;; *************** function _fputc *****************
  2330 ;; Defined at:
  2331 ;;		line 8 in file "C:\Program Files\Microchip\xc8\v2.45\pic\sources\c99\common\nf_fputc.c"
  2332 ;; Parameters:    Size  Location     Type
  2333 ;;  c               2    3[COMRAM] int 
  2334 ;;  fp              1    5[COMRAM] PTR struct _IO_FILE
  2335 ;;		 -> sprintf@f(12), 
  2336 ;; Auto vars:     Size  Location     Type
  2337 ;;		None
  2338 ;; Return value:  Size  Location     Type
  2339 ;;                  2    3[COMRAM] int 
  2340 ;; Registers used:
  2341 ;;		wreg, fsr1l, fsr1h, fsr2l, fsr2h, status,2, status,0, cstack
  2342 ;; Tracked objects:
  2343 ;;		On entry : 0/0
  2344 ;;		On exit  : 0/0
  2345 ;;		Unchanged: 0/0
  2346 ;; Data sizes:     COMRAM   BANK0   BANK1   BANK2   BANK3   BANK4   BANK5   BANK6   BANK7   BANK8   BANK9  BANK10  BANK1
      +1  BANK12  BANK13
  2347 ;;      Params:         3       0       0       0       0       0       0       0       0       0       0       0       
      +0       0       0
  2348 ;;      Locals:         0       0       0       0       0       0       0       0       0       0       0       0       
      +0       0       0
  2349 ;;      Temps:          5       0       0       0       0       0       0       0       0       0       0       0       
      +0       0       0
  2350 ;;      Totals:         8       0       0       0       0       0       0       0       0       0       0       0       
      +0       0       0
  2351 ;;Total ram usage:        8 bytes
  2352 ;; Hardware stack levels used: 1
  2353 ;; Hardware stack levels required when called: 3
  2354 ;; This function calls:
  2355 ;;		_putch
  2356 ;; This function is called by:
  2357 ;;		_pad
  2358 ;;		_vfpfcnvrt
  2359 ;;		_fputs
  2360 ;; This function uses a non-reentrant model
  2361 ;;
  2362                           
  2363                           	psect	text9
  2364   003826                     __ptext9:
  2365                           	callstack 0
  2366   003826                     _fputc:
  2367                           	callstack 23
  2368   003826  5006               	movf	fputc@fp^0,w,c
  2369   003828  B4D8               	btfsc	status,2,c
  2370   00382A  EF19  F01C         	goto	u2341
  2371   00382E  EF1B  F01C         	goto	u2340
  2372   003832                     u2341:
  2373   003832  EF23  F01C         	goto	l2728
  2374   003836                     u2340:
  2375   003836  5006               	movf	fputc@fp^0,w,c
  2376   003838  A4D8               	btfss	status,2,c
  2377   00383A  EF21  F01C         	goto	u2351
  2378   00383E  EF23  F01C         	goto	u2350
  2379   003842                     u2351:
  2380   003842  EF28  F01C         	goto	l2730
  2381   003846                     u2350:
  2382   003846                     l2728:
  2383   003846  5004               	movf	fputc@c^0,w,c
  2384   003848  ECD3  F020         	call	_putch
  2385   00384C  EF6F  F01C         	goto	l1114
  2386   003850                     l2730:
  2387   003850  5006               	movf	fputc@fp^0,w,c
  2388   003852  6ED9               	movwf	fsr2l,c
  2389   003854  6ADA               	clrf	fsr2h,c
  2390   003856  0E0A               	movlw	10
  2391   003858  26D9               	addwf	fsr2l,f,c
  2392   00385A  50DE               	movf	postinc2,w,c
  2393   00385C  10DE               	iorwf	postinc2,w,c
  2394   00385E  B4D8               	btfsc	status,2,c
  2395   003860  EF34  F01C         	goto	u2361
  2396   003864  EF36  F01C         	goto	u2360
  2397   003868                     u2361:
  2398   003868  EF4F  F01C         	goto	l2734
  2399   00386C                     u2360:
  2400   00386C  5006               	movf	fputc@fp^0,w,c
  2401   00386E  6ED9               	movwf	fsr2l,c
  2402   003870  6ADA               	clrf	fsr2h,c
  2403   003872  0E0A               	movlw	10
  2404   003874  26D9               	addwf	fsr2l,f,c
  2405   003876  5006               	movf	fputc@fp^0,w,c
  2406   003878  6EE1               	movwf	fsr1l,c
  2407   00387A  6AE2               	clrf	fsr1h,c
  2408   00387C  0E03               	movlw	3
  2409   00387E  26E1               	addwf	fsr1l,f,c
  2410   003880  50DE               	movf	postinc2,w,c
  2411   003882  5CE6               	subwf	postinc1,w,c
  2412   003884  50E6               	movf	postinc1,w,c
  2413   003886  0A80               	xorlw	128
  2414   003888  6E0B               	movwf	(??_fputc+4)^0,c
  2415   00388A  50DE               	movf	postinc2,w,c
  2416   00388C  0A80               	xorlw	128
  2417   00388E  580B               	subwfb	(??_fputc+4)^0,w,c
  2418   003890  B0D8               	btfsc	status,0,c
  2419   003892  EF4D  F01C         	goto	u2371
  2420   003896  EF4F  F01C         	goto	u2370
  2421   00389A                     u2371:
  2422   00389A  EF6F  F01C         	goto	l1114
  2423   00389E                     u2370:
  2424   00389E                     l2734:
  2425   00389E  5006               	movf	fputc@fp^0,w,c
  2426   0038A0  6ED9               	movwf	fsr2l,c
  2427   0038A2  6ADA               	clrf	fsr2h,c
  2428   0038A4  0E03               	movlw	3
  2429   0038A6  26D9               	addwf	fsr2l,f,c
  2430   0038A8  CFDE F007          	movff	postinc2,??_fputc
  2431   0038AC  CFDD F008          	movff	postdec2,??_fputc+1
  2432   0038B0  5006               	movf	fputc@fp^0,w,c
  2433   0038B2  6ED9               	movwf	fsr2l,c
  2434   0038B4  6ADA               	clrf	fsr2h,c
  2435   0038B6  CFDE F009          	movff	postinc2,??_fputc+2
  2436   0038BA  CFDD F00A          	movff	postdec2,??_fputc+3
  2437   0038BE  5007               	movf	??_fputc^0,w,c
  2438   0038C0  2409               	addwf	(??_fputc+2)^0,w,c
  2439   0038C2  6ED9               	movwf	fsr2l,c
  2440   0038C4  5008               	movf	(??_fputc+1)^0,w,c
  2441   0038C6  200A               	addwfc	(??_fputc+3)^0,w,c
  2442   0038C8  6EDA               	movwf	fsr2h,c
  2443   0038CA  C004  FFDF         	movff	fputc@c,indf2
  2444   0038CE  5006               	movf	fputc@fp^0,w,c
  2445   0038D0  6ED9               	movwf	fsr2l,c
  2446   0038D2  6ADA               	clrf	fsr2h,c
  2447   0038D4  0E03               	movlw	3
  2448   0038D6  26D9               	addwf	fsr2l,f,c
  2449   0038D8  2ADE               	incf	postinc2,f,c
  2450   0038DA  0E00               	movlw	0
  2451   0038DC  22DD               	addwfc	postdec2,f,c
  2452   0038DE                     l1114:
  2453   0038DE  0012               	return		;funcret
  2454   0038E0                     __end_of_fputc:
  2455                           	callstack 0
  2456                           
  2457 ;; *************** function _putch *****************
  2458 ;; Defined at:
  2459 ;;		line 7 in file "C:\Program Files\Microchip\xc8\v2.45\pic\sources\c99\common\putch.c"
  2460 ;; Parameters:    Size  Location     Type
  2461 ;;  c               1    wreg     unsigned char 
  2462 ;; Auto vars:     Size  Location     Type
  2463 ;;  c               1    0[COMRAM] unsigned char 
  2464 ;; Return value:  Size  Location     Type
  2465 ;;                  1    wreg      void 
  2466 ;; Registers used:
  2467 ;;		wreg
  2468 ;; Tracked objects:
  2469 ;;		On entry : 0/0
  2470 ;;		On exit  : 0/0
  2471 ;;		Unchanged: 0/0
  2472 ;; Data sizes:     COMRAM   BANK0   BANK1   BANK2   BANK3   BANK4   BANK5   BANK6   BANK7   BANK8   BANK9  BANK10  BANK1
      +1  BANK12  BANK13
  2473 ;;      Params:         0       0       0       0       0       0       0       0       0       0       0       0       
      +0       0       0
  2474 ;;      Locals:         0       0       0       0       0       0       0       0       0       0       0       0       
      +0       0       0
  2475 ;;      Temps:          0       0       0       0       0       0       0       0       0       0       0       0       
      +0       0       0
  2476 ;;      Totals:         0       0       0       0       0       0       0       0       0       0       0       0       
      +0       0       0
  2477 ;;Total ram usage:        0 bytes
  2478 ;; Hardware stack levels used: 1
  2479 ;; Hardware stack levels required when called: 2
  2480 ;; This function calls:
  2481 ;;		Nothing
  2482 ;; This function is called by:
  2483 ;;		_fputc
  2484 ;; This function uses a non-reentrant model
  2485 ;;
  2486                           
  2487                           	psect	text10
  2488   0041A6                     __ptext10:
  2489                           	callstack 0
  2490   0041A6                     _putch:
  2491                           	callstack 23
  2492   0041A6  0012               	return		;funcret
  2493   0041A8                     __end_of_putch:
  2494                           	callstack 0
  2495                           
  2496 ;; *************** function _abs *****************
  2497 ;; Defined at:
  2498 ;;		line 1 in file "C:\Program Files\Microchip\xc8\v2.45\pic\sources\c99\common\abs.c"
  2499 ;; Parameters:    Size  Location     Type
  2500 ;;  a               2    9[COMRAM] int 
  2501 ;; Auto vars:     Size  Location     Type
  2502 ;;		None
  2503 ;; Return value:  Size  Location     Type
  2504 ;;                  2    9[COMRAM] int 
  2505 ;; Registers used:
  2506 ;;		wreg, status,2, status,0
  2507 ;; Tracked objects:
  2508 ;;		On entry : 0/0
  2509 ;;		On exit  : 0/0
  2510 ;;		Unchanged: 0/0
  2511 ;; Data sizes:     COMRAM   BANK0   BANK1   BANK2   BANK3   BANK4   BANK5   BANK6   BANK7   BANK8   BANK9  BANK10  BANK1
      +1  BANK12  BANK13
  2512 ;;      Params:         2       0       0       0       0       0       0       0       0       0       0       0       
      +0       0       0
  2513 ;;      Locals:         0       0       0       0       0       0       0       0       0       0       0       0       
      +0       0       0
  2514 ;;      Temps:          2       0       0       0       0       0       0       0       0       0       0       0       
      +0       0       0
  2515 ;;      Totals:         4       0       0       0       0       0       0       0       0       0       0       0       
      +0       0       0
  2516 ;;Total ram usage:        4 bytes
  2517 ;; Hardware stack levels used: 1
  2518 ;; Hardware stack levels required when called: 2
  2519 ;; This function calls:
  2520 ;;		Nothing
  2521 ;; This function is called by:
  2522 ;;		_dtoa
  2523 ;; This function uses a non-reentrant model
  2524 ;;
  2525                           
  2526                           	psect	text11
  2527   003FD8                     __ptext11:
  2528                           	callstack 0
  2529   003FD8                     _abs:
  2530                           	callstack 23
  2531   003FD8  BE0B               	btfsc	(abs@a+1)^0,7,c
  2532   003FDA  EFF1  F01F         	goto	u2551
  2533   003FDE  EFF3  F01F         	goto	u2550
  2534   003FE2                     u2551:
  2535   003FE2  EFF9  F01F         	goto	l1099
  2536   003FE6                     u2550:
  2537   003FE6  C00A  F00A         	movff	abs@a,?_abs
  2538   003FEA  C00B  F00B         	movff	abs@a+1,?_abs+1
  2539   003FEE  EF05  F020         	goto	l1102
  2540   003FF2                     l1099:
  2541   003FF2  C00A  F00C         	movff	abs@a,??_abs
  2542   003FF6  C00B  F00D         	movff	abs@a+1,??_abs+1
  2543   003FFA  1E0C               	comf	??_abs^0,f,c
  2544   003FFC  1E0D               	comf	(??_abs+1)^0,f,c
  2545   003FFE  4A0C               	infsnz	??_abs^0,f,c
  2546   004000  2A0D               	incf	(??_abs+1)^0,f,c
  2547   004002  C00C  F00A         	movff	??_abs,?_abs
  2548   004006  C00D  F00B         	movff	??_abs+1,?_abs+1
  2549   00400A                     l1102:
  2550   00400A  0012               	return		;funcret
  2551   00400C                     __end_of_abs:
  2552                           	callstack 0
  2553                           
  2554 ;; *************** function ___awmod *****************
  2555 ;; Defined at:
  2556 ;;		line 7 in file "C:\Program Files\Microchip\xc8\v2.45\pic\sources\c99\common\awmod.c"
  2557 ;; Parameters:    Size  Location     Type
  2558 ;;  dividend        2    3[COMRAM] int 
  2559 ;;  divisor         2    5[COMRAM] int 
  2560 ;; Auto vars:     Size  Location     Type
  2561 ;;  sign            1    8[COMRAM] unsigned char 
  2562 ;;  counter         1    7[COMRAM] unsigned char 
  2563 ;; Return value:  Size  Location     Type
  2564 ;;                  2    3[COMRAM] int 
  2565 ;; Registers used:
  2566 ;;		wreg, status,2, status,0
  2567 ;; Tracked objects:
  2568 ;;		On entry : 0/0
  2569 ;;		On exit  : 0/0
  2570 ;;		Unchanged: 0/0
  2571 ;; Data sizes:     COMRAM   BANK0   BANK1   BANK2   BANK3   BANK4   BANK5   BANK6   BANK7   BANK8   BANK9  BANK10  BANK1
      +1  BANK12  BANK13
  2572 ;;      Params:         4       0       0       0       0       0       0       0       0       0       0       0       
      +0       0       0
  2573 ;;      Locals:         2       0       0       0       0       0       0       0       0       0       0       0       
      +0       0       0
  2574 ;;      Temps:          0       0       0       0       0       0       0       0       0       0       0       0       
      +0       0       0
  2575 ;;      Totals:         6       0       0       0       0       0       0       0       0       0       0       0       
      +0       0       0
  2576 ;;Total ram usage:        6 bytes
  2577 ;; Hardware stack levels used: 1
  2578 ;; Hardware stack levels required when called: 2
  2579 ;; This function calls:
  2580 ;;		Nothing
  2581 ;; This function is called by:
  2582 ;;		_dtoa
  2583 ;; This function uses a non-reentrant model
  2584 ;;
  2585                           
  2586                           	psect	text12
  2587   0038E0                     __ptext12:
  2588                           	callstack 0
  2589   0038E0                     ___awmod:
  2590                           	callstack 23
  2591   0038E0  0E00               	movlw	0
  2592   0038E2  6E09               	movwf	___awmod@sign^0,c
  2593   0038E4  BE05               	btfsc	(___awmod@dividend+1)^0,7,c
  2594   0038E6  EF79  F01C         	goto	u2450
  2595   0038EA  EF77  F01C         	goto	u2451
  2596   0038EE                     u2451:
  2597   0038EE  EF7F  F01C         	goto	l2804
  2598   0038F2                     u2450:
  2599   0038F2  6C04               	negf	___awmod@dividend^0,c
  2600   0038F4  1E05               	comf	(___awmod@dividend+1)^0,f,c
  2601   0038F6  B0D8               	btfsc	status,0,c
  2602   0038F8  2A05               	incf	(___awmod@dividend+1)^0,f,c
  2603   0038FA  0E01               	movlw	1
  2604   0038FC  6E09               	movwf	___awmod@sign^0,c
  2605   0038FE                     l2804:
  2606   0038FE  BE07               	btfsc	(___awmod@divisor+1)^0,7,c
  2607   003900  EF86  F01C         	goto	u2460
  2608   003904  EF84  F01C         	goto	u2461
  2609   003908                     u2461:
  2610   003908  EF8A  F01C         	goto	l2808
  2611   00390C                     u2460:
  2612   00390C  6C06               	negf	___awmod@divisor^0,c
  2613   00390E  1E07               	comf	(___awmod@divisor+1)^0,f,c
  2614   003910  B0D8               	btfsc	status,0,c
  2615   003912  2A07               	incf	(___awmod@divisor+1)^0,f,c
  2616   003914                     l2808:
  2617   003914  5006               	movf	___awmod@divisor^0,w,c
  2618   003916  1007               	iorwf	(___awmod@divisor+1)^0,w,c
  2619   003918  B4D8               	btfsc	status,2,c
  2620   00391A  EF91  F01C         	goto	u2471
  2621   00391E  EF93  F01C         	goto	u2470
  2622   003922                     u2471:
  2623   003922  EFB7  F01C         	goto	l2824
  2624   003926                     u2470:
  2625   003926  0E01               	movlw	1
  2626   003928  6E08               	movwf	___awmod@counter^0,c
  2627   00392A  EF9B  F01C         	goto	l2814
  2628   00392E                     l2812:
  2629   00392E  90D8               	bcf	status,0,c
  2630   003930  3606               	rlcf	___awmod@divisor^0,f,c
  2631   003932  3607               	rlcf	(___awmod@divisor+1)^0,f,c
  2632   003934  2A08               	incf	___awmod@counter^0,f,c
  2633   003936                     l2814:
  2634   003936  AE07               	btfss	(___awmod@divisor+1)^0,7,c
  2635   003938  EFA0  F01C         	goto	u2481
  2636   00393C  EFA2  F01C         	goto	u2480
  2637   003940                     u2481:
  2638   003940  EF97  F01C         	goto	l2812
  2639   003944                     u2480:
  2640   003944                     l2816:
  2641   003944  5006               	movf	___awmod@divisor^0,w,c
  2642   003946  5C04               	subwf	___awmod@dividend^0,w,c
  2643   003948  5007               	movf	(___awmod@divisor+1)^0,w,c
  2644   00394A  5805               	subwfb	(___awmod@dividend+1)^0,w,c
  2645   00394C  A0D8               	btfss	status,0,c
  2646   00394E  EFAB  F01C         	goto	u2491
  2647   003952  EFAD  F01C         	goto	u2490
  2648   003956                     u2491:
  2649   003956  EFB1  F01C         	goto	l2820
  2650   00395A                     u2490:
  2651   00395A  5006               	movf	___awmod@divisor^0,w,c
  2652   00395C  5E04               	subwf	___awmod@dividend^0,f,c
  2653   00395E  5007               	movf	(___awmod@divisor+1)^0,w,c
  2654   003960  5A05               	subwfb	(___awmod@dividend+1)^0,f,c
  2655   003962                     l2820:
  2656   003962  90D8               	bcf	status,0,c
  2657   003964  3207               	rrcf	(___awmod@divisor+1)^0,f,c
  2658   003966  3206               	rrcf	___awmod@divisor^0,f,c
  2659   003968  2E08               	decfsz	___awmod@counter^0,f,c
  2660   00396A  EFA2  F01C         	goto	l2816
  2661   00396E                     l2824:
  2662   00396E  5009               	movf	___awmod@sign^0,w,c
  2663   003970  B4D8               	btfsc	status,2,c
  2664   003972  EFBD  F01C         	goto	u2501
  2665   003976  EFBF  F01C         	goto	u2500
  2666   00397A                     u2501:
  2667   00397A  EFC3  F01C         	goto	l2828
  2668   00397E                     u2500:
  2669   00397E  6C04               	negf	___awmod@dividend^0,c
  2670   003980  1E05               	comf	(___awmod@dividend+1)^0,f,c
  2671   003982  B0D8               	btfsc	status,0,c
  2672   003984  2A05               	incf	(___awmod@dividend+1)^0,f,c
  2673   003986                     l2828:
  2674   003986  C004  F004         	movff	___awmod@dividend,?___awmod
  2675   00398A  C005  F005         	movff	___awmod@dividend+1,?___awmod+1
  2676   00398E  0012               	return		;funcret
  2677   003990                     __end_of___awmod:
  2678                           	callstack 0
  2679                           
  2680 ;; *************** function ___awdiv *****************
  2681 ;; Defined at:
  2682 ;;		line 7 in file "C:\Program Files\Microchip\xc8\v2.45\pic\sources\c99\common\awdiv.c"
  2683 ;; Parameters:    Size  Location     Type
  2684 ;;  dividend        2    3[COMRAM] int 
  2685 ;;  divisor         2    5[COMRAM] int 
  2686 ;; Auto vars:     Size  Location     Type
  2687 ;;  quotient        2    9[COMRAM] int 
  2688 ;;  sign            1    8[COMRAM] unsigned char 
  2689 ;;  counter         1    7[COMRAM] unsigned char 
  2690 ;; Return value:  Size  Location     Type
  2691 ;;                  2    3[COMRAM] int 
  2692 ;; Registers used:
  2693 ;;		wreg, status,2, status,0
  2694 ;; Tracked objects:
  2695 ;;		On entry : 0/0
  2696 ;;		On exit  : 0/0
  2697 ;;		Unchanged: 0/0
  2698 ;; Data sizes:     COMRAM   BANK0   BANK1   BANK2   BANK3   BANK4   BANK5   BANK6   BANK7   BANK8   BANK9  BANK10  BANK1
      +1  BANK12  BANK13
  2699 ;;      Params:         4       0       0       0       0       0       0       0       0       0       0       0       
      +0       0       0
  2700 ;;      Locals:         4       0       0       0       0       0       0       0       0       0       0       0       
      +0       0       0
  2701 ;;      Temps:          0       0       0       0       0       0       0       0       0       0       0       0       
      +0       0       0
  2702 ;;      Totals:         8       0       0       0       0       0       0       0       0       0       0       0       
      +0       0       0
  2703 ;;Total ram usage:        8 bytes
  2704 ;; Hardware stack levels used: 1
  2705 ;; Hardware stack levels required when called: 2
  2706 ;; This function calls:
  2707 ;;		Nothing
  2708 ;; This function is called by:
  2709 ;;		_dtoa
  2710 ;; This function uses a non-reentrant model
  2711 ;;
  2712                           
  2713                           	psect	text13
  2714   0036A2                     __ptext13:
  2715                           	callstack 0
  2716   0036A2                     ___awdiv:
  2717                           	callstack 23
  2718   0036A2  0E00               	movlw	0
  2719   0036A4  6E09               	movwf	___awdiv@sign^0,c
  2720   0036A6  BE07               	btfsc	(___awdiv@divisor+1)^0,7,c
  2721   0036A8  EF5A  F01B         	goto	u2390
  2722   0036AC  EF58  F01B         	goto	u2391
  2723   0036B0                     u2391:
  2724   0036B0  EF60  F01B         	goto	l2760
  2725   0036B4                     u2390:
  2726   0036B4  6C06               	negf	___awdiv@divisor^0,c
  2727   0036B6  1E07               	comf	(___awdiv@divisor+1)^0,f,c
  2728   0036B8  B0D8               	btfsc	status,0,c
  2729   0036BA  2A07               	incf	(___awdiv@divisor+1)^0,f,c
  2730   0036BC  0E01               	movlw	1
  2731   0036BE  6E09               	movwf	___awdiv@sign^0,c
  2732   0036C0                     l2760:
  2733   0036C0  BE05               	btfsc	(___awdiv@dividend+1)^0,7,c
  2734   0036C2  EF67  F01B         	goto	u2400
  2735   0036C6  EF65  F01B         	goto	u2401
  2736   0036CA                     u2401:
  2737   0036CA  EF6D  F01B         	goto	l2766
  2738   0036CE                     u2400:
  2739   0036CE  6C04               	negf	___awdiv@dividend^0,c
  2740   0036D0  1E05               	comf	(___awdiv@dividend+1)^0,f,c
  2741   0036D2  B0D8               	btfsc	status,0,c
  2742   0036D4  2A05               	incf	(___awdiv@dividend+1)^0,f,c
  2743   0036D6  0E01               	movlw	1
  2744   0036D8  1A09               	xorwf	___awdiv@sign^0,f,c
  2745   0036DA                     l2766:
  2746   0036DA  0E00               	movlw	0
  2747   0036DC  6E0B               	movwf	(___awdiv@quotient+1)^0,c
  2748   0036DE  0E00               	movlw	0
  2749   0036E0  6E0A               	movwf	___awdiv@quotient^0,c
  2750   0036E2  5006               	movf	___awdiv@divisor^0,w,c
  2751   0036E4  1007               	iorwf	(___awdiv@divisor+1)^0,w,c
  2752   0036E6  B4D8               	btfsc	status,2,c
  2753   0036E8  EF78  F01B         	goto	u2411
  2754   0036EC  EF7A  F01B         	goto	u2410
  2755   0036F0                     u2411:
  2756   0036F0  EFA2  F01B         	goto	l2788
  2757   0036F4                     u2410:
  2758   0036F4  0E01               	movlw	1
  2759   0036F6  6E08               	movwf	___awdiv@counter^0,c
  2760   0036F8  EF82  F01B         	goto	l2774
  2761   0036FC                     l2772:
  2762   0036FC  90D8               	bcf	status,0,c
  2763   0036FE  3606               	rlcf	___awdiv@divisor^0,f,c
  2764   003700  3607               	rlcf	(___awdiv@divisor+1)^0,f,c
  2765   003702  2A08               	incf	___awdiv@counter^0,f,c
  2766   003704                     l2774:
  2767   003704  AE07               	btfss	(___awdiv@divisor+1)^0,7,c
  2768   003706  EF87  F01B         	goto	u2421
  2769   00370A  EF89  F01B         	goto	u2420
  2770   00370E                     u2421:
  2771   00370E  EF7E  F01B         	goto	l2772
  2772   003712                     u2420:
  2773   003712                     l2776:
  2774   003712  90D8               	bcf	status,0,c
  2775   003714  360A               	rlcf	___awdiv@quotient^0,f,c
  2776   003716  360B               	rlcf	(___awdiv@quotient+1)^0,f,c
  2777   003718  5006               	movf	___awdiv@divisor^0,w,c
  2778   00371A  5C04               	subwf	___awdiv@dividend^0,w,c
  2779   00371C  5007               	movf	(___awdiv@divisor+1)^0,w,c
  2780   00371E  5805               	subwfb	(___awdiv@dividend+1)^0,w,c
  2781   003720  A0D8               	btfss	status,0,c
  2782   003722  EF95  F01B         	goto	u2431
  2783   003726  EF97  F01B         	goto	u2430
  2784   00372A                     u2431:
  2785   00372A  EF9C  F01B         	goto	l2784
  2786   00372E                     u2430:
  2787   00372E  5006               	movf	___awdiv@divisor^0,w,c
  2788   003730  5E04               	subwf	___awdiv@dividend^0,f,c
  2789   003732  5007               	movf	(___awdiv@divisor+1)^0,w,c
  2790   003734  5A05               	subwfb	(___awdiv@dividend+1)^0,f,c
  2791   003736  800A               	bsf	___awdiv@quotient^0,0,c
  2792   003738                     l2784:
  2793   003738  90D8               	bcf	status,0,c
  2794   00373A  3207               	rrcf	(___awdiv@divisor+1)^0,f,c
  2795   00373C  3206               	rrcf	___awdiv@divisor^0,f,c
  2796   00373E  2E08               	decfsz	___awdiv@counter^0,f,c
  2797   003740  EF89  F01B         	goto	l2776
  2798   003744                     l2788:
  2799   003744  5009               	movf	___awdiv@sign^0,w,c
  2800   003746  B4D8               	btfsc	status,2,c
  2801   003748  EFA8  F01B         	goto	u2441
  2802   00374C  EFAA  F01B         	goto	u2440
  2803   003750                     u2441:
  2804   003750  EFAE  F01B         	goto	l2792
  2805   003754                     u2440:
  2806   003754  6C0A               	negf	___awdiv@quotient^0,c
  2807   003756  1E0B               	comf	(___awdiv@quotient+1)^0,f,c
  2808   003758  B0D8               	btfsc	status,0,c
  2809   00375A  2A0B               	incf	(___awdiv@quotient+1)^0,f,c
  2810   00375C                     l2792:
  2811   00375C  C00A  F004         	movff	___awdiv@quotient,?___awdiv
  2812   003760  C00B  F005         	movff	___awdiv@quotient+1,?___awdiv+1
  2813   003764  0012               	return		;funcret
  2814   003766                     __end_of___awdiv:
  2815                           	callstack 0
  2816                           
  2817 ;; *************** function _LCD_setline *****************
  2818 ;; Defined at:
  2819 ;;		line 99 in file "LCD.c"
  2820 ;; Parameters:    Size  Location     Type
  2821 ;;  line            1    wreg     unsigned char 
  2822 ;; Auto vars:     Size  Location     Type
  2823 ;;  line            1    6[COMRAM] unsigned char 
  2824 ;; Return value:  Size  Location     Type
  2825 ;;                  1    wreg      void 
  2826 ;; Registers used:
  2827 ;;		wreg, status,2, status,0, cstack
  2828 ;; Tracked objects:
  2829 ;;		On entry : 0/0
  2830 ;;		On exit  : 0/0
  2831 ;;		Unchanged: 0/0
  2832 ;; Data sizes:     COMRAM   BANK0   BANK1   BANK2   BANK3   BANK4   BANK5   BANK6   BANK7   BANK8   BANK9  BANK10  BANK1
      +1  BANK12  BANK13
  2833 ;;      Params:         0       0       0       0       0       0       0       0       0       0       0       0       
      +0       0       0
  2834 ;;      Locals:         1       0       0       0       0       0       0       0       0       0       0       0       
      +0       0       0
  2835 ;;      Temps:          0       0       0       0       0       0       0       0       0       0       0       0       
      +0       0       0
  2836 ;;      Totals:         1       0       0       0       0       0       0       0       0       0       0       0       
      +0       0       0
  2837 ;;Total ram usage:        1 bytes
  2838 ;; Hardware stack levels used: 1
  2839 ;; Hardware stack levels required when called: 5
  2840 ;; This function calls:
  2841 ;;		_LCD_sendbyte
  2842 ;; This function is called by:
  2843 ;;		_disp_time
  2844 ;; This function uses a non-reentrant model
  2845 ;;
  2846                           
  2847                           	psect	text14
  2848   003F2C                     __ptext14:
  2849                           	callstack 0
  2850   003F2C                     _LCD_setline:
  2851                           	callstack 24
  2852                           
  2853                           ;incstack = 0
  2854                           ;LCD_setline@line stored from wreg
  2855   003F2C  6E07               	movwf	LCD_setline@line^0,c
  2856   003F2E                     
  2857                           ;LCD.c: 99: void LCD_setline (char line);LCD.c: 100: {;LCD.c: 102:     if (line == 1)
  2858   003F2E  0407               	decf	LCD_setline@line^0,w,c
  2859   003F30  A4D8               	btfss	status,2,c
  2860   003F32  EF9D  F01F         	goto	u3721
  2861   003F36  EF9F  F01F         	goto	u3720
  2862   003F3A                     u3721:
  2863   003F3A  EFA4  F01F         	goto	l3556
  2864   003F3E                     u3720:
  2865   003F3E                     
  2866                           ;LCD.c: 103:         LCD_sendbyte(0x80,0);
  2867   003F3E  0E00               	movlw	0
  2868   003F40  6E05               	movwf	LCD_sendbyte@type^0,c
  2869   003F42  0E80               	movlw	128
  2870   003F44  EC3A  F020         	call	_LCD_sendbyte
  2871   003F48                     l3556:
  2872                           
  2873                           ;LCD.c: 105:     if (line == 2)
  2874   003F48  0E02               	movlw	2
  2875   003F4A  1807               	xorwf	LCD_setline@line^0,w,c
  2876   003F4C  A4D8               	btfss	status,2,c
  2877   003F4E  EFAB  F01F         	goto	u3731
  2878   003F52  EFAD  F01F         	goto	u3730
  2879   003F56                     u3731:
  2880   003F56  EFB2  F01F         	goto	l61
  2881   003F5A                     u3730:
  2882   003F5A                     
  2883                           ;LCD.c: 106:         LCD_sendbyte(0xC0,0);
  2884   003F5A  0E00               	movlw	0
  2885   003F5C  6E05               	movwf	LCD_sendbyte@type^0,c
  2886   003F5E  0EC0               	movlw	192
  2887   003F60  EC3A  F020         	call	_LCD_sendbyte
  2888   003F64                     l61:
  2889   003F64  0012               	return		;funcret
  2890   003F66                     __end_of_LCD_setline:
  2891                           	callstack 0
  2892                           
  2893 ;; *************** function _LCD_sendstring *****************
  2894 ;; Defined at:
  2895 ;;		line 112 in file "LCD.c"
  2896 ;; Parameters:    Size  Location     Type
  2897 ;;  string          2    6[COMRAM] PTR unsigned char 
  2898 ;;		 -> timeString(10), 
  2899 ;; Auto vars:     Size  Location     Type
  2900 ;;		None
  2901 ;; Return value:  Size  Location     Type
  2902 ;;                  1    wreg      void 
  2903 ;; Registers used:
  2904 ;;		wreg, fsr2l, fsr2h, status,2, status,0, cstack
  2905 ;; Tracked objects:
  2906 ;;		On entry : 0/0
  2907 ;;		On exit  : 0/0
  2908 ;;		Unchanged: 0/0
  2909 ;; Data sizes:     COMRAM   BANK0   BANK1   BANK2   BANK3   BANK4   BANK5   BANK6   BANK7   BANK8   BANK9  BANK10  BANK1
      +1  BANK12  BANK13
  2910 ;;      Params:         2       0       0       0       0       0       0       0       0       0       0       0       
      +0       0       0
  2911 ;;      Locals:         0       0       0       0       0       0       0       0       0       0       0       0       
      +0       0       0
  2912 ;;      Temps:          0       0       0       0       0       0       0       0       0       0       0       0       
      +0       0       0
  2913 ;;      Totals:         2       0       0       0       0       0       0       0       0       0       0       0       
      +0       0       0
  2914 ;;Total ram usage:        2 bytes
  2915 ;; Hardware stack levels used: 1
  2916 ;; Hardware stack levels required when called: 5
  2917 ;; This function calls:
  2918 ;;		_LCD_sendbyte
  2919 ;; This function is called by:
  2920 ;;		_disp_time
  2921 ;; This function uses a non-reentrant model
  2922 ;;
  2923                           
  2924                           	psect	text15
  2925   00400C                     __ptext15:
  2926                           	callstack 0
  2927   00400C                     _LCD_sendstring:
  2928                           	callstack 24
  2929   00400C                     
  2930                           ;LCD.c: 112: void LCD_sendstring(char *string);LCD.c: 113: {;LCD.c: 114:  while(*string 
      +                          != 0){
  2931   00400C  EF13  F020         	goto	l4412
  2932   004010                     l4408:
  2933                           
  2934                           ;LCD.c: 115:   LCD_sendbyte(*string++,1);
  2935   004010  0E01               	movlw	1
  2936   004012  6E05               	movwf	LCD_sendbyte@type^0,c
  2937   004014  C007  FFD9         	movff	LCD_sendstring@string,fsr2l
  2938   004018  C008  FFDA         	movff	LCD_sendstring@string+1,fsr2h
  2939   00401C  50DF               	movf	indf2,w,c
  2940   00401E  EC3A  F020         	call	_LCD_sendbyte
  2941   004022  4A07               	infsnz	LCD_sendstring@string^0,f,c
  2942   004024  2A08               	incf	(LCD_sendstring@string+1)^0,f,c
  2943   004026                     l4412:
  2944                           
  2945                           ;LCD.c: 114:  while(*string != 0){
  2946   004026  C007  FFD9         	movff	LCD_sendstring@string,fsr2l
  2947   00402A  C008  FFDA         	movff	LCD_sendstring@string+1,fsr2h
  2948   00402E  50DF               	movf	indf2,w,c
  2949   004030  A4D8               	btfss	status,2,c
  2950   004032  EF1D  F020         	goto	u4981
  2951   004036  EF1F  F020         	goto	u4980
  2952   00403A                     u4981:
  2953   00403A  EF08  F020         	goto	l4408
  2954   00403E                     u4980:
  2955   00403E  0012               	return		;funcret
  2956   004040                     __end_of_LCD_sendstring:
  2957                           	callstack 0
  2958                           
  2959 ;; *************** function _datetime_init *****************
  2960 ;; Defined at:
  2961 ;;		line 34 in file "datetime.c"
  2962 ;; Parameters:    Size  Location     Type
  2963 ;;		None
  2964 ;; Auto vars:     Size  Location     Type
  2965 ;;		None
  2966 ;; Return value:  Size  Location     Type
  2967 ;;                  1    wreg      void 
  2968 ;; Registers used:
  2969 ;;		None
  2970 ;; Tracked objects:
  2971 ;;		On entry : 0/0
  2972 ;;		On exit  : 0/0
  2973 ;;		Unchanged: 0/0
  2974 ;; Data sizes:     COMRAM   BANK0   BANK1   BANK2   BANK3   BANK4   BANK5   BANK6   BANK7   BANK8   BANK9  BANK10  BANK1
      +1  BANK12  BANK13
  2975 ;;      Params:         0       0       0       0       0       0       0       0       0       0       0       0       
      +0       0       0
  2976 ;;      Locals:         0       0       0       0       0       0       0       0       0       0       0       0       
      +0       0       0
  2977 ;;      Temps:          0       0       0       0       0       0       0       0       0       0       0       0       
      +0       0       0
  2978 ;;      Totals:         0       0       0       0       0       0       0       0       0       0       0       0       
      +0       0       0
  2979 ;;Total ram usage:        0 bytes
  2980 ;; Hardware stack levels used: 1
  2981 ;; Hardware stack levels required when called: 2
  2982 ;; This function calls:
  2983 ;;		Nothing
  2984 ;; This function is called by:
  2985 ;;		_main
  2986 ;; This function uses a non-reentrant model
  2987 ;;
  2988                           
  2989                           	psect	text16
  2990   00419A                     __ptext16:
  2991                           	callstack 0
  2992   00419A                     _datetime_init:
  2993                           	callstack 28
  2994   00419A                     
  2995                           ;datetime.c: 37:     LATHbits.LATH0 = 1;
  2996   00419A  8080               	bsf	128,0,c	;volatile
  2997                           
  2998                           ;datetime.c: 38:     TRISHbits.TRISH0=0;
  2999   00419C  9088               	bcf	136,0,c	;volatile
  3000                           
  3001                           ;datetime.c: 39:     LATHbits.LATH3 = 0;
  3002   00419E  9680               	bcf	128,3,c	;volatile
  3003                           
  3004                           ;datetime.c: 40:     TRISHbits.TRISH3=0;
  3005   0041A0  9688               	bcf	136,3,c	;volatile
  3006   0041A2  0012               	return		;funcret
  3007   0041A4                     __end_of_datetime_init:
  3008                           	callstack 0
  3009                           
  3010 ;; *************** function _calc_time *****************
  3011 ;; Defined at:
  3012 ;;		line 97 in file "datetime.c"
  3013 ;; Parameters:    Size  Location     Type
  3014 ;;		None
  3015 ;; Auto vars:     Size  Location     Type
  3016 ;;		None
  3017 ;; Return value:  Size  Location     Type
  3018 ;;                  1    wreg      void 
  3019 ;; Registers used:
  3020 ;;		wreg, status,2, status,0, prodl, prodh, cstack
  3021 ;; Tracked objects:
  3022 ;;		On entry : 0/0
  3023 ;;		On exit  : 0/0
  3024 ;;		Unchanged: 0/0
  3025 ;; Data sizes:     COMRAM   BANK0   BANK1   BANK2   BANK3   BANK4   BANK5   BANK6   BANK7   BANK8   BANK9  BANK10  BANK1
      +1  BANK12  BANK13
  3026 ;;      Params:         0       0       0       0       0       0       0       0       0       0       0       0       
      +0       0       0
  3027 ;;      Locals:         0       0       0       0       0       0       0       0       0       0       0       0       
      +0       0       0
  3028 ;;      Temps:          0       0       0       0       0       0       0       0       0       0       0       0       
      +0       0       0
  3029 ;;      Totals:         0       0       0       0       0       0       0       0       0       0       0       0       
      +0       0       0
  3030 ;;Total ram usage:        0 bytes
  3031 ;; Hardware stack levels used: 1
  3032 ;; Hardware stack levels required when called: 4
  3033 ;; This function calls:
  3034 ;;		_DST_adjust
  3035 ;;		___lwdiv
  3036 ;;		___wmul
  3037 ;;		_get16bitTMR0val
  3038 ;;		_month_days
  3039 ;; This function is called by:
  3040 ;;		_main
  3041 ;; This function uses a non-reentrant model
  3042 ;;
  3043                           
  3044                           	psect	text17
  3045   002BC6                     __ptext17:
  3046                           	callstack 0
  3047   002BC6                     _calc_time:
  3048                           	callstack 26
  3049   002BC6                     
  3050                           ;datetime.c: 99:     if (LATDbits.LATD4)
  3051   002BC6  A87C               	btfss	124,4,c	;volatile
  3052   002BC8  EFE8  F015         	goto	u4431
  3053   002BCC  EFEA  F015         	goto	u4430
  3054   002BD0                     u4431:
  3055   002BD0  EF21  F016         	goto	l4026
  3056   002BD4                     u4430:
  3057   002BD4                     
  3058                           ;datetime.c: 100:     {;datetime.c: 102:         if (LATHbits.LATH0) {hour++;}
  3059   002BD4  A080               	btfss	128,0,c	;volatile
  3060   002BD6  EFEF  F015         	goto	u4441
  3061   002BDA  EFF1  F015         	goto	u4440
  3062   002BDE                     u4441:
  3063   002BDE  EFF4  F015         	goto	l4008
  3064   002BE2                     u4440:
  3065   002BE2  0100               	movlb	0	; () banked
  3066   002BE4  4BF8               	infsnz	_hour& (0+255),f,b
  3067   002BE6  2BF9               	incf	(_hour+1)& (0+255),f,b
  3068   002BE8                     l4008:
  3069                           
  3070                           ;datetime.c: 103:         if (!LATHbits.LATH0) {second++;
  3071   002BE8  B080               	btfsc	128,0,c	;volatile
  3072   002BEA  EFF9  F015         	goto	u4451
  3073   002BEE  EFFB  F015         	goto	u4450
  3074   002BF2                     u4451:
  3075   002BF2  EF20  F016         	goto	l4024
  3076   002BF6                     u4450:
  3077   002BF6  0100               	movlb	0	; () banked
  3078   002BF8  4BFC               	infsnz	_second& (0+255),f,b
  3079   002BFA  2BFD               	incf	(_second+1)& (0+255),f,b
  3080   002BFC                     
  3081                           ; BSR set to: 0
  3082                           ;datetime.c: 104:             if (second > 59) {second = 0; minute++;
  3083   002BFC  51FD               	movf	(_second+1)& (0+255),w,b
  3084   002BFE  E109               	bnz	u4460
  3085   002C00  0E3C               	movlw	60
  3086   002C02  5DFC               	subwf	_second& (0+255),w,b
  3087   002C04  A0D8               	btfss	status,0,c
  3088   002C06  EF07  F016         	goto	u4461
  3089   002C0A  EF09  F016         	goto	u4460
  3090   002C0E                     u4461:
  3091   002C0E  EF20  F016         	goto	l4024
  3092   002C12                     u4460:
  3093   002C12                     
  3094                           ; BSR set to: 0
  3095   002C12  0E00               	movlw	0
  3096   002C14  6FFD               	movwf	(_second+1)& (0+255),b
  3097   002C16  0E00               	movlw	0
  3098   002C18  6FFC               	movwf	_second& (0+255),b
  3099   002C1A                     
  3100                           ; BSR set to: 0
  3101   002C1A  4BFA               	infsnz	_minute& (0+255),f,b
  3102   002C1C  2BFB               	incf	(_minute+1)& (0+255),f,b
  3103   002C1E                     
  3104                           ; BSR set to: 0
  3105                           ;datetime.c: 105:                 if (minute > 59) {minute = 0; hour++;}
  3106   002C1E  51FB               	movf	(_minute+1)& (0+255),w,b
  3107   002C20  E109               	bnz	u4470
  3108   002C22  0E3C               	movlw	60
  3109   002C24  5DFA               	subwf	_minute& (0+255),w,b
  3110   002C26  A0D8               	btfss	status,0,c
  3111   002C28  EF18  F016         	goto	u4471
  3112   002C2C  EF1A  F016         	goto	u4470
  3113   002C30                     u4471:
  3114   002C30  EF20  F016         	goto	l4024
  3115   002C34                     u4470:
  3116   002C34                     
  3117                           ; BSR set to: 0
  3118   002C34  0E00               	movlw	0
  3119   002C36  6FFB               	movwf	(_minute+1)& (0+255),b
  3120   002C38  0E00               	movlw	0
  3121   002C3A  6FFA               	movwf	_minute& (0+255),b
  3122   002C3C                     
  3123                           ; BSR set to: 0
  3124   002C3C  4BF8               	infsnz	_hour& (0+255),f,b
  3125   002C3E  2BF9               	incf	(_hour+1)& (0+255),f,b
  3126   002C40                     l4024:
  3127                           
  3128                           ;datetime.c: 108:         LATDbits.LATD4 = 0;
  3129   002C40  987C               	bcf	124,4,c	;volatile
  3130   002C42                     l4026:
  3131                           
  3132                           ;datetime.c: 112:     if (LATHbits.LATH0) {minute = (get16bitTMR0val()*60)/255;}
  3133   002C42  A080               	btfss	128,0,c	;volatile
  3134   002C44  EF26  F016         	goto	u4481
  3135   002C48  EF28  F016         	goto	u4480
  3136   002C4C                     u4481:
  3137   002C4C  EF41  F016         	goto	l4030
  3138   002C50                     u4480:
  3139   002C50  ECB6  F020         	call	_get16bitTMR0val	;wreg free
  3140   002C54  C004  F008         	movff	?_get16bitTMR0val,___wmul@multiplier
  3141   002C58  C005  F009         	movff	?_get16bitTMR0val+1,___wmul@multiplier+1
  3142   002C5C  0E00               	movlw	0
  3143   002C5E  6E0B               	movwf	(___wmul@multiplicand+1)^0,c
  3144   002C60  0E3C               	movlw	60
  3145   002C62  6E0A               	movwf	___wmul@multiplicand^0,c
  3146   002C64  EC63  F020         	call	___wmul	;wreg free
  3147   002C68  C008  F00E         	movff	?___wmul,___lwdiv@dividend
  3148   002C6C  C009  F00F         	movff	?___wmul+1,___lwdiv@dividend+1
  3149   002C70  0E00               	movlw	0
  3150   002C72  6E11               	movwf	(___lwdiv@divisor+1)^0,c
  3151   002C74  6810               	setf	___lwdiv@divisor^0,c
  3152   002C76  ECFD  F01D         	call	___lwdiv	;wreg free
  3153   002C7A  C00E  F0FA         	movff	?___lwdiv,_minute
  3154   002C7E  C00F  F0FB         	movff	?___lwdiv+1,_minute+1
  3155   002C82                     l4030:
  3156                           
  3157                           ;datetime.c: 113:     if (hour > 23) {hour = 0; day++; weekday++;}
  3158   002C82  0100               	movlb	0	; () banked
  3159   002C84  51F9               	movf	(_hour+1)& (0+255),w,b
  3160   002C86  E109               	bnz	u4490
  3161   002C88  0E18               	movlw	24
  3162   002C8A  5DF8               	subwf	_hour& (0+255),w,b
  3163   002C8C  A0D8               	btfss	status,0,c
  3164   002C8E  EF4B  F016         	goto	u4491
  3165   002C92  EF4D  F016         	goto	u4490
  3166   002C96                     u4491:
  3167   002C96  EF55  F016         	goto	l4038
  3168   002C9A                     u4490:
  3169   002C9A                     
  3170                           ; BSR set to: 0
  3171   002C9A  0E00               	movlw	0
  3172   002C9C  6FF9               	movwf	(_hour+1)& (0+255),b
  3173   002C9E  0E00               	movlw	0
  3174   002CA0  6FF8               	movwf	_hour& (0+255),b
  3175   002CA2                     
  3176                           ; BSR set to: 0
  3177   002CA2  4BF6               	infsnz	_day& (0+255),f,b
  3178   002CA4  2BF7               	incf	(_day+1)& (0+255),f,b
  3179   002CA6                     
  3180                           ; BSR set to: 0
  3181   002CA6  4BF4               	infsnz	_weekday& (0+255),f,b
  3182   002CA8  2BF5               	incf	(_weekday+1)& (0+255),f,b
  3183   002CAA                     l4038:
  3184                           
  3185                           ; BSR set to: 0
  3186                           ;datetime.c: 114:     if (weekday > 7) {weekday = 1;}
  3187   002CAA  51F5               	movf	(_weekday+1)& (0+255),w,b
  3188   002CAC  E109               	bnz	u4500
  3189   002CAE  0E08               	movlw	8
  3190   002CB0  5DF4               	subwf	_weekday& (0+255),w,b
  3191   002CB2  A0D8               	btfss	status,0,c
  3192   002CB4  EF5E  F016         	goto	u4501
  3193   002CB8  EF60  F016         	goto	u4500
  3194   002CBC                     u4501:
  3195   002CBC  EF64  F016         	goto	l4042
  3196   002CC0                     u4500:
  3197   002CC0                     
  3198                           ; BSR set to: 0
  3199   002CC0  0E00               	movlw	0
  3200   002CC2  6FF5               	movwf	(_weekday+1)& (0+255),b
  3201   002CC4  0E01               	movlw	1
  3202   002CC6  6FF4               	movwf	_weekday& (0+255),b
  3203   002CC8                     l4042:
  3204                           
  3205                           ; BSR set to: 0
  3206                           ;datetime.c: 115:     if (day > month_days(month,year)) {day = 1; month++;}
  3207   002CC8  C059  F009         	movff	_month,month_days@month
  3208   002CCC  C05A  F00A         	movff	_month+1,month_days@month+1
  3209   002CD0  C0F2  F00B         	movff	_year,month_days@year
  3210   002CD4  C0F3  F00C         	movff	_year+1,month_days@year+1
  3211   002CD8  ECA3  F017         	call	_month_days	;wreg free
  3212   002CDC  0100               	movlb	0	; () banked
  3213   002CDE  51F6               	movf	_day& (0+255),w,b
  3214   002CE0  5C09               	subwf	?_month_days^0,w,c
  3215   002CE2  51F7               	movf	(_day+1)& (0+255),w,b
  3216   002CE4  580A               	subwfb	(?_month_days+1)^0,w,c
  3217   002CE6  B0D8               	btfsc	status,0,c
  3218   002CE8  EF78  F016         	goto	u4511
  3219   002CEC  EF7A  F016         	goto	u4510
  3220   002CF0                     u4511:
  3221   002CF0  EF80  F016         	goto	l4048
  3222   002CF4                     u4510:
  3223   002CF4                     
  3224                           ; BSR set to: 0
  3225   002CF4  0E00               	movlw	0
  3226   002CF6  6FF7               	movwf	(_day+1)& (0+255),b
  3227   002CF8  0E01               	movlw	1
  3228   002CFA  6FF6               	movwf	_day& (0+255),b
  3229   002CFC                     
  3230                           ; BSR set to: 0
  3231   002CFC  4A59               	infsnz	_month^0,f,c
  3232   002CFE  2A5A               	incf	(_month+1)^0,f,c
  3233   002D00                     l4048:
  3234                           
  3235                           ; BSR set to: 0
  3236                           ;datetime.c: 116:     if (month > 12) {month = 1; year++;}
  3237   002D00  505A               	movf	(_month+1)^0,w,c
  3238   002D02  E109               	bnz	u4520
  3239   002D04  0E0D               	movlw	13
  3240   002D06  5C59               	subwf	_month^0,w,c
  3241   002D08  A0D8               	btfss	status,0,c
  3242   002D0A  EF89  F016         	goto	u4521
  3243   002D0E  EF8B  F016         	goto	u4520
  3244   002D12                     u4521:
  3245   002D12  EF91  F016         	goto	l4054
  3246   002D16                     u4520:
  3247   002D16                     
  3248                           ; BSR set to: 0
  3249   002D16  0E00               	movlw	0
  3250   002D18  6E5A               	movwf	(_month+1)^0,c
  3251   002D1A  0E01               	movlw	1
  3252   002D1C  6E59               	movwf	_month^0,c
  3253   002D1E                     
  3254                           ; BSR set to: 0
  3255   002D1E  4BF2               	infsnz	_year& (0+255),f,b
  3256   002D20  2BF3               	incf	(_year+1)& (0+255),f,b
  3257   002D22                     l4054:
  3258                           
  3259                           ; BSR set to: 0
  3260                           ;datetime.c: 118:     if ((month == 3 || month == 10) && weekday == 7 && day > 24) {hour
      +                           = DST_adjust(month,hour);}
  3261   002D22  0E03               	movlw	3
  3262   002D24  1859               	xorwf	_month^0,w,c
  3263   002D26  105A               	iorwf	(_month+1)^0,w,c
  3264   002D28  B4D8               	btfsc	status,2,c
  3265   002D2A  EF99  F016         	goto	u4531
  3266   002D2E  EF9B  F016         	goto	u4530
  3267   002D32                     u4531:
  3268   002D32  EFA5  F016         	goto	l4058
  3269   002D36                     u4530:
  3270   002D36                     
  3271                           ; BSR set to: 0
  3272   002D36  0E0A               	movlw	10
  3273   002D38  1859               	xorwf	_month^0,w,c
  3274   002D3A  105A               	iorwf	(_month+1)^0,w,c
  3275   002D3C  A4D8               	btfss	status,2,c
  3276   002D3E  EFA3  F016         	goto	u4541
  3277   002D42  EFA5  F016         	goto	u4540
  3278   002D46                     u4541:
  3279   002D46  EFC8  F016         	goto	l243
  3280   002D4A                     u4540:
  3281   002D4A                     l4058:
  3282                           
  3283                           ; BSR set to: 0
  3284   002D4A  0E07               	movlw	7
  3285   002D4C  19F4               	xorwf	_weekday& (0+255),w,b
  3286   002D4E  11F5               	iorwf	(_weekday+1)& (0+255),w,b
  3287   002D50  A4D8               	btfss	status,2,c
  3288   002D52  EFAD  F016         	goto	u4551
  3289   002D56  EFAF  F016         	goto	u4550
  3290   002D5A                     u4551:
  3291   002D5A  EFC8  F016         	goto	l243
  3292   002D5E                     u4550:
  3293   002D5E                     
  3294                           ; BSR set to: 0
  3295   002D5E  51F7               	movf	(_day+1)& (0+255),w,b
  3296   002D60  E109               	bnz	u4560
  3297   002D62  0E19               	movlw	25
  3298   002D64  5DF6               	subwf	_day& (0+255),w,b
  3299   002D66  A0D8               	btfss	status,0,c
  3300   002D68  EFB8  F016         	goto	u4561
  3301   002D6C  EFBA  F016         	goto	u4560
  3302   002D70                     u4561:
  3303   002D70  EFC8  F016         	goto	l243
  3304   002D74                     u4560:
  3305   002D74                     
  3306                           ; BSR set to: 0
  3307   002D74  C059  F004         	movff	_month,DST_adjust@month
  3308   002D78  C05A  F005         	movff	_month+1,DST_adjust@month+1
  3309   002D7C  C0F8  F006         	movff	_hour,DST_adjust@hour
  3310   002D80  C0F9  F007         	movff	_hour+1,DST_adjust@hour+1
  3311   002D84  ECB9  F01D         	call	_DST_adjust	;wreg free
  3312   002D88  C004  F0F8         	movff	?_DST_adjust,_hour
  3313   002D8C  C005  F0F9         	movff	?_DST_adjust+1,_hour+1
  3314   002D90                     l243:
  3315   002D90  0012               	return		;funcret
  3316   002D92                     __end_of_calc_time:
  3317                           	callstack 0
  3318                           
  3319 ;; *************** function _month_days *****************
  3320 ;; Defined at:
  3321 ;;		line 71 in file "datetime.c"
  3322 ;; Parameters:    Size  Location     Type
  3323 ;;  month           2    8[COMRAM] unsigned int 
  3324 ;;  year            2   10[COMRAM] unsigned int 
  3325 ;; Auto vars:     Size  Location     Type
  3326 ;;  monthDays       2   14[COMRAM] unsigned int 
  3327 ;; Return value:  Size  Location     Type
  3328 ;;                  2    8[COMRAM] unsigned int 
  3329 ;; Registers used:
  3330 ;;		wreg, status,2, status,0, cstack
  3331 ;; Tracked objects:
  3332 ;;		On entry : 0/0
  3333 ;;		On exit  : 0/0
  3334 ;;		Unchanged: 0/0
  3335 ;; Data sizes:     COMRAM   BANK0   BANK1   BANK2   BANK3   BANK4   BANK5   BANK6   BANK7   BANK8   BANK9  BANK10  BANK1
      +1  BANK12  BANK13
  3336 ;;      Params:         4       0       0       0       0       0       0       0       0       0       0       0       
      +0       0       0
  3337 ;;      Locals:         2       0       0       0       0       0       0       0       0       0       0       0       
      +0       0       0
  3338 ;;      Temps:          2       0       0       0       0       0       0       0       0       0       0       0       
      +0       0       0
  3339 ;;      Totals:         8       0       0       0       0       0       0       0       0       0       0       0       
      +0       0       0
  3340 ;;Total ram usage:        8 bytes
  3341 ;; Hardware stack levels used: 1
  3342 ;; Hardware stack levels required when called: 3
  3343 ;; This function calls:
  3344 ;;		___lwmod
  3345 ;; This function is called by:
  3346 ;;		_calc_time
  3347 ;; This function uses a non-reentrant model
  3348 ;;
  3349                           
  3350                           	psect	text18
  3351   002F46                     __ptext18:
  3352                           	callstack 0
  3353   002F46                     _month_days:
  3354                           	callstack 26
  3355   002F46                     
  3356                           ;datetime.c: 71: unsigned int month_days(unsigned int month, unsigned int year);datetime
      +                          .c: 72: {;datetime.c: 73:     unsigned int monthDays;;datetime.c: 75:     if (month == 1
      +                           || month == 3 || month == 5 || month == 7 || month == 8 || month == 10 || month == 12)
  3357   002F46  0409               	decf	month_days@month^0,w,c
  3358   002F48  100A               	iorwf	(month_days@month+1)^0,w,c
  3359   002F4A  B4D8               	btfsc	status,2,c
  3360   002F4C  EFAA  F017         	goto	u3911
  3361   002F50  EFAC  F017         	goto	u3910
  3362   002F54                     u3911:
  3363   002F54  EFE8  F017         	goto	l3706
  3364   002F58                     u3910:
  3365   002F58  0E03               	movlw	3
  3366   002F5A  1809               	xorwf	month_days@month^0,w,c
  3367   002F5C  100A               	iorwf	(month_days@month+1)^0,w,c
  3368   002F5E  B4D8               	btfsc	status,2,c
  3369   002F60  EFB4  F017         	goto	u3921
  3370   002F64  EFB6  F017         	goto	u3920
  3371   002F68                     u3921:
  3372   002F68  EFE8  F017         	goto	l3706
  3373   002F6C                     u3920:
  3374   002F6C  0E05               	movlw	5
  3375   002F6E  1809               	xorwf	month_days@month^0,w,c
  3376   002F70  100A               	iorwf	(month_days@month+1)^0,w,c
  3377   002F72  B4D8               	btfsc	status,2,c
  3378   002F74  EFBE  F017         	goto	u3931
  3379   002F78  EFC0  F017         	goto	u3930
  3380   002F7C                     u3931:
  3381   002F7C  EFE8  F017         	goto	l3706
  3382   002F80                     u3930:
  3383   002F80  0E07               	movlw	7
  3384   002F82  1809               	xorwf	month_days@month^0,w,c
  3385   002F84  100A               	iorwf	(month_days@month+1)^0,w,c
  3386   002F86  B4D8               	btfsc	status,2,c
  3387   002F88  EFC8  F017         	goto	u3941
  3388   002F8C  EFCA  F017         	goto	u3940
  3389   002F90                     u3941:
  3390   002F90  EFE8  F017         	goto	l3706
  3391   002F94                     u3940:
  3392   002F94  0E08               	movlw	8
  3393   002F96  1809               	xorwf	month_days@month^0,w,c
  3394   002F98  100A               	iorwf	(month_days@month+1)^0,w,c
  3395   002F9A  B4D8               	btfsc	status,2,c
  3396   002F9C  EFD2  F017         	goto	u3951
  3397   002FA0  EFD4  F017         	goto	u3950
  3398   002FA4                     u3951:
  3399   002FA4  EFE8  F017         	goto	l3706
  3400   002FA8                     u3950:
  3401   002FA8  0E0A               	movlw	10
  3402   002FAA  1809               	xorwf	month_days@month^0,w,c
  3403   002FAC  100A               	iorwf	(month_days@month+1)^0,w,c
  3404   002FAE  B4D8               	btfsc	status,2,c
  3405   002FB0  EFDC  F017         	goto	u3961
  3406   002FB4  EFDE  F017         	goto	u3960
  3407   002FB8                     u3961:
  3408   002FB8  EFE8  F017         	goto	l3706
  3409   002FBC                     u3960:
  3410   002FBC  0E0C               	movlw	12
  3411   002FBE  1809               	xorwf	month_days@month^0,w,c
  3412   002FC0  100A               	iorwf	(month_days@month+1)^0,w,c
  3413   002FC2  A4D8               	btfss	status,2,c
  3414   002FC4  EFE6  F017         	goto	u3971
  3415   002FC8  EFE8  F017         	goto	u3970
  3416   002FCC                     u3971:
  3417   002FCC  EFEE  F017         	goto	l3708
  3418   002FD0                     u3970:
  3419   002FD0                     l3706:
  3420                           
  3421                           ;datetime.c: 76:     {;datetime.c: 77:         monthDays = 31;
  3422   002FD0  0E00               	movlw	0
  3423   002FD2  6E10               	movwf	(month_days@monthDays+1)^0,c
  3424   002FD4  0E1F               	movlw	31
  3425   002FD6  6E0F               	movwf	month_days@monthDays^0,c
  3426                           
  3427                           ;datetime.c: 78:     }
  3428   002FD8  EF65  F018         	goto	l3730
  3429   002FDC                     l3708:
  3430   002FDC  0E04               	movlw	4
  3431   002FDE  1809               	xorwf	month_days@month^0,w,c
  3432   002FE0  100A               	iorwf	(month_days@month+1)^0,w,c
  3433   002FE2  B4D8               	btfsc	status,2,c
  3434   002FE4  EFF6  F017         	goto	u3981
  3435   002FE8  EFF8  F017         	goto	u3980
  3436   002FEC                     u3981:
  3437   002FEC  EF16  F018         	goto	l3716
  3438   002FF0                     u3980:
  3439   002FF0  0E06               	movlw	6
  3440   002FF2  1809               	xorwf	month_days@month^0,w,c
  3441   002FF4  100A               	iorwf	(month_days@month+1)^0,w,c
  3442   002FF6  B4D8               	btfsc	status,2,c
  3443   002FF8  EF00  F018         	goto	u3991
  3444   002FFC  EF02  F018         	goto	u3990
  3445   003000                     u3991:
  3446   003000  EF16  F018         	goto	l3716
  3447   003004                     u3990:
  3448   003004  0E09               	movlw	9
  3449   003006  1809               	xorwf	month_days@month^0,w,c
  3450   003008  100A               	iorwf	(month_days@month+1)^0,w,c
  3451   00300A  B4D8               	btfsc	status,2,c
  3452   00300C  EF0A  F018         	goto	u4001
  3453   003010  EF0C  F018         	goto	u4000
  3454   003014                     u4001:
  3455   003014  EF16  F018         	goto	l3716
  3456   003018                     u4000:
  3457   003018  0E0B               	movlw	11
  3458   00301A  1809               	xorwf	month_days@month^0,w,c
  3459   00301C  100A               	iorwf	(month_days@month+1)^0,w,c
  3460   00301E  A4D8               	btfss	status,2,c
  3461   003020  EF14  F018         	goto	u4011
  3462   003024  EF16  F018         	goto	u4010
  3463   003028                     u4011:
  3464   003028  EF1C  F018         	goto	l3718
  3465   00302C                     u4010:
  3466   00302C                     l3716:
  3467                           
  3468                           ;datetime.c: 80:     {;datetime.c: 81:         monthDays = 30;
  3469   00302C  0E00               	movlw	0
  3470   00302E  6E10               	movwf	(month_days@monthDays+1)^0,c
  3471   003030  0E1E               	movlw	30
  3472   003032  6E0F               	movwf	month_days@monthDays^0,c
  3473                           
  3474                           ;datetime.c: 82:     }
  3475   003034  EF65  F018         	goto	l3730
  3476   003038                     l3718:
  3477   003038  0E02               	movlw	2
  3478   00303A  1809               	xorwf	month_days@month^0,w,c
  3479   00303C  100A               	iorwf	(month_days@month+1)^0,w,c
  3480   00303E  A4D8               	btfss	status,2,c
  3481   003040  EF24  F018         	goto	u4021
  3482   003044  EF26  F018         	goto	u4020
  3483   003048                     u4021:
  3484   003048  EF65  F018         	goto	l3730
  3485   00304C                     u4020:
  3486   00304C                     
  3487                           ;datetime.c: 84:     {;datetime.c: 85:         if ((year % 4 == 0 && year % 100 != 0) ||
      +                           (year % 400 == 0))
  3488   00304C  0E03               	movlw	3
  3489   00304E  140B               	andwf	month_days@year^0,w,c
  3490   003050  6E0D               	movwf	??_month_days^0,c
  3491   003052  0E00               	movlw	0
  3492   003054  140C               	andwf	(month_days@year+1)^0,w,c
  3493   003056  6E0E               	movwf	(??_month_days+1)^0,c
  3494   003058  500D               	movf	??_month_days^0,w,c
  3495   00305A  100E               	iorwf	(??_month_days+1)^0,w,c
  3496   00305C  A4D8               	btfss	status,2,c
  3497   00305E  EF33  F018         	goto	u4031
  3498   003062  EF35  F018         	goto	u4030
  3499   003066                     u4031:
  3500   003066  EF48  F018         	goto	l3724
  3501   00306A                     u4030:
  3502   00306A  C00B  F004         	movff	month_days@year,___lwmod@dividend
  3503   00306E  C00C  F005         	movff	month_days@year+1,___lwmod@dividend+1
  3504   003072  0E00               	movlw	0
  3505   003074  6E07               	movwf	(___lwmod@divisor+1)^0,c
  3506   003076  0E64               	movlw	100
  3507   003078  6E06               	movwf	___lwmod@divisor^0,c
  3508   00307A  EC6B  F01E         	call	___lwmod	;wreg free
  3509   00307E  5004               	movf	?___lwmod^0,w,c
  3510   003080  1005               	iorwf	(?___lwmod+1)^0,w,c
  3511   003082  A4D8               	btfss	status,2,c
  3512   003084  EF46  F018         	goto	u4041
  3513   003088  EF48  F018         	goto	u4040
  3514   00308C                     u4041:
  3515   00308C  EF5B  F018         	goto	l3726
  3516   003090                     u4040:
  3517   003090                     l3724:
  3518   003090  C00B  F004         	movff	month_days@year,___lwmod@dividend
  3519   003094  C00C  F005         	movff	month_days@year+1,___lwmod@dividend+1
  3520   003098  0E01               	movlw	1
  3521   00309A  6E07               	movwf	(___lwmod@divisor+1)^0,c
  3522   00309C  0E90               	movlw	144
  3523   00309E  6E06               	movwf	___lwmod@divisor^0,c
  3524   0030A0  EC6B  F01E         	call	___lwmod	;wreg free
  3525   0030A4  5004               	movf	?___lwmod^0,w,c
  3526   0030A6  1005               	iorwf	(?___lwmod+1)^0,w,c
  3527   0030A8  A4D8               	btfss	status,2,c
  3528   0030AA  EF59  F018         	goto	u4051
  3529   0030AE  EF5B  F018         	goto	u4050
  3530   0030B2                     u4051:
  3531   0030B2  EF61  F018         	goto	l3728
  3532   0030B6                     u4050:
  3533   0030B6                     l3726:
  3534                           
  3535                           ;datetime.c: 86:         {;datetime.c: 87:             monthDays = 29;
  3536   0030B6  0E00               	movlw	0
  3537   0030B8  6E10               	movwf	(month_days@monthDays+1)^0,c
  3538   0030BA  0E1D               	movlw	29
  3539   0030BC  6E0F               	movwf	month_days@monthDays^0,c
  3540                           
  3541                           ;datetime.c: 88:         }
  3542   0030BE  EF65  F018         	goto	l3730
  3543   0030C2                     l3728:
  3544   0030C2  0E00               	movlw	0
  3545   0030C4  6E10               	movwf	(month_days@monthDays+1)^0,c
  3546   0030C6  0E1C               	movlw	28
  3547   0030C8  6E0F               	movwf	month_days@monthDays^0,c
  3548   0030CA                     l3730:
  3549                           
  3550                           ;datetime.c: 91:     return monthDays;
  3551   0030CA  C00F  F009         	movff	month_days@monthDays,?_month_days
  3552   0030CE  C010  F00A         	movff	month_days@monthDays+1,?_month_days+1
  3553   0030D2  0012               	return		;funcret
  3554   0030D4                     __end_of_month_days:
  3555                           	callstack 0
  3556                           
  3557 ;; *************** function _get16bitTMR0val *****************
  3558 ;; Defined at:
  3559 ;;		line 25 in file "timers.c"
  3560 ;; Parameters:    Size  Location     Type
  3561 ;;		None
  3562 ;; Auto vars:     Size  Location     Type
  3563 ;;  time            2    5[COMRAM] unsigned int 
  3564 ;;  temp            2    0        unsigned int 
  3565 ;; Return value:  Size  Location     Type
  3566 ;;                  2    3[COMRAM] unsigned int 
  3567 ;; Registers used:
  3568 ;;		wreg
  3569 ;; Tracked objects:
  3570 ;;		On entry : 0/0
  3571 ;;		On exit  : 0/0
  3572 ;;		Unchanged: 0/0
  3573 ;; Data sizes:     COMRAM   BANK0   BANK1   BANK2   BANK3   BANK4   BANK5   BANK6   BANK7   BANK8   BANK9  BANK10  BANK1
      +1  BANK12  BANK13
  3574 ;;      Params:         2       0       0       0       0       0       0       0       0       0       0       0       
      +0       0       0
  3575 ;;      Locals:         2       0       0       0       0       0       0       0       0       0       0       0       
      +0       0       0
  3576 ;;      Temps:          0       0       0       0       0       0       0       0       0       0       0       0       
      +0       0       0
  3577 ;;      Totals:         4       0       0       0       0       0       0       0       0       0       0       0       
      +0       0       0
  3578 ;;Total ram usage:        4 bytes
  3579 ;; Hardware stack levels used: 1
  3580 ;; Hardware stack levels required when called: 2
  3581 ;; This function calls:
  3582 ;;		Nothing
  3583 ;; This function is called by:
  3584 ;;		_calc_time
  3585 ;; This function uses a non-reentrant model
  3586 ;;
  3587                           
  3588                           	psect	text19
  3589   00416C                     __ptext19:
  3590                           	callstack 0
  3591   00416C                     _get16bitTMR0val:
  3592                           	callstack 27
  3593   00416C  50D3               	movf	211,w,c	;volatile
  3594                           
  3595                           ;timers.c: 29:     unsigned int time = TMR0H;
  3596   00416E  CFD4 F006          	movff	4052,get16bitTMR0val@time	;volatile
  3597   004172  6A07               	clrf	(get16bitTMR0val@time+1)^0,c
  3598                           
  3599                           ;timers.c: 30:     return time;
  3600   004174  C006  F004         	movff	get16bitTMR0val@time,?_get16bitTMR0val
  3601   004178  C007  F005         	movff	get16bitTMR0val@time+1,?_get16bitTMR0val+1
  3602   00417C  0012               	return		;funcret
  3603   00417E                     __end_of_get16bitTMR0val:
  3604                           	callstack 0
  3605                           
  3606 ;; *************** function _DST_adjust *****************
  3607 ;; Defined at:
  3608 ;;		line 151 in file "datetime.c"
  3609 ;; Parameters:    Size  Location     Type
  3610 ;;  month           2    3[COMRAM] unsigned int 
  3611 ;;  hour            2    5[COMRAM] unsigned int 
  3612 ;; Auto vars:     Size  Location     Type
  3613 ;;		None
  3614 ;; Return value:  Size  Location     Type
  3615 ;;                  2    3[COMRAM] unsigned int 
  3616 ;; Registers used:
  3617 ;;		wreg, status,2, status,0
  3618 ;; Tracked objects:
  3619 ;;		On entry : 0/0
  3620 ;;		On exit  : 0/0
  3621 ;;		Unchanged: 0/0
  3622 ;; Data sizes:     COMRAM   BANK0   BANK1   BANK2   BANK3   BANK4   BANK5   BANK6   BANK7   BANK8   BANK9  BANK10  BANK1
      +1  BANK12  BANK13
  3623 ;;      Params:         4       0       0       0       0       0       0       0       0       0       0       0       
      +0       0       0
  3624 ;;      Locals:         0       0       0       0       0       0       0       0       0       0       0       0       
      +0       0       0
  3625 ;;      Temps:          0       0       0       0       0       0       0       0       0       0       0       0       
      +0       0       0
  3626 ;;      Totals:         4       0       0       0       0       0       0       0       0       0       0       0       
      +0       0       0
  3627 ;;Total ram usage:        4 bytes
  3628 ;; Hardware stack levels used: 1
  3629 ;; Hardware stack levels required when called: 2
  3630 ;; This function calls:
  3631 ;;		Nothing
  3632 ;; This function is called by:
  3633 ;;		_calc_time
  3634 ;; This function uses a non-reentrant model
  3635 ;;
  3636                           
  3637                           	psect	text20
  3638   003B72                     __ptext20:
  3639                           	callstack 0
  3640   003B72                     _DST_adjust:
  3641                           	callstack 27
  3642   003B72                     
  3643                           ;datetime.c: 151: unsigned int DST_adjust(unsigned int month,unsigned int hour);datetime
      +                          .c: 152: {;datetime.c: 154:     if (month == 3 && hour == 1 && LATHbits.LATH3 == 0)
  3644   003B72  0E03               	movlw	3
  3645   003B74  1804               	xorwf	DST_adjust@month^0,w,c
  3646   003B76  1005               	iorwf	(DST_adjust@month+1)^0,w,c
  3647   003B78  A4D8               	btfss	status,2,c
  3648   003B7A  EFC1  F01D         	goto	u4061
  3649   003B7E  EFC3  F01D         	goto	u4060
  3650   003B82                     u4061:
  3651   003B82  EFD8  F01D         	goto	l3746
  3652   003B86                     u4060:
  3653   003B86  0406               	decf	DST_adjust@hour^0,w,c
  3654   003B88  1007               	iorwf	(DST_adjust@hour+1)^0,w,c
  3655   003B8A  A4D8               	btfss	status,2,c
  3656   003B8C  EFCA  F01D         	goto	u4071
  3657   003B90  EFCC  F01D         	goto	u4070
  3658   003B94                     u4071:
  3659   003B94  EFD8  F01D         	goto	l3746
  3660   003B98                     u4070:
  3661   003B98  B680               	btfsc	128,3,c	;volatile
  3662   003B9A  EFD1  F01D         	goto	u4081
  3663   003B9E  EFD3  F01D         	goto	u4080
  3664   003BA2                     u4081:
  3665   003BA2  EFD8  F01D         	goto	l3746
  3666   003BA6                     u4080:
  3667   003BA6                     
  3668                           ;datetime.c: 155:     {;datetime.c: 156:         hour = 2;
  3669   003BA6  0E00               	movlw	0
  3670   003BA8  6E07               	movwf	(DST_adjust@hour+1)^0,c
  3671   003BAA  0E02               	movlw	2
  3672   003BAC  6E06               	movwf	DST_adjust@hour^0,c
  3673   003BAE                     
  3674                           ;datetime.c: 157:         LATHbits.LATH3 = 1;
  3675   003BAE  8680               	bsf	128,3,c	;volatile
  3676   003BB0                     l3746:
  3677                           
  3678                           ;datetime.c: 160:     if (month == 10 && hour == 2 && LATHbits.LATH3 == 1)
  3679   003BB0  0E0A               	movlw	10
  3680   003BB2  1804               	xorwf	DST_adjust@month^0,w,c
  3681   003BB4  1005               	iorwf	(DST_adjust@month+1)^0,w,c
  3682   003BB6  A4D8               	btfss	status,2,c
  3683   003BB8  EFE0  F01D         	goto	u4091
  3684   003BBC  EFE2  F01D         	goto	u4090
  3685   003BC0                     u4091:
  3686   003BC0  EFF8  F01D         	goto	l3756
  3687   003BC4                     u4090:
  3688   003BC4  0E02               	movlw	2
  3689   003BC6  1806               	xorwf	DST_adjust@hour^0,w,c
  3690   003BC8  1007               	iorwf	(DST_adjust@hour+1)^0,w,c
  3691   003BCA  A4D8               	btfss	status,2,c
  3692   003BCC  EFEA  F01D         	goto	u4101
  3693   003BD0  EFEC  F01D         	goto	u4100
  3694   003BD4                     u4101:
  3695   003BD4  EFF8  F01D         	goto	l3756
  3696   003BD8                     u4100:
  3697   003BD8  A680               	btfss	128,3,c	;volatile
  3698   003BDA  EFF1  F01D         	goto	u4111
  3699   003BDE  EFF3  F01D         	goto	u4110
  3700   003BE2                     u4111:
  3701   003BE2  EFF8  F01D         	goto	l3756
  3702   003BE6                     u4110:
  3703   003BE6                     
  3704                           ;datetime.c: 161:     {;datetime.c: 162:         hour = 1;
  3705   003BE6  0E00               	movlw	0
  3706   003BE8  6E07               	movwf	(DST_adjust@hour+1)^0,c
  3707   003BEA  0E01               	movlw	1
  3708   003BEC  6E06               	movwf	DST_adjust@hour^0,c
  3709   003BEE                     
  3710                           ;datetime.c: 163:         LATHbits.LATH3 = 0;
  3711   003BEE  9680               	bcf	128,3,c	;volatile
  3712   003BF0                     l3756:
  3713                           
  3714                           ;datetime.c: 165:     return hour;
  3715   003BF0  C006  F004         	movff	DST_adjust@hour,?_DST_adjust
  3716   003BF4  C007  F005         	movff	DST_adjust@hour+1,?_DST_adjust+1
  3717   003BF8  0012               	return		;funcret
  3718   003BFA                     __end_of_DST_adjust:
  3719                           	callstack 0
  3720                           
  3721 ;; *************** function _Timer0_init *****************
  3722 ;; Defined at:
  3723 ;;		line 7 in file "timers.c"
  3724 ;; Parameters:    Size  Location     Type
  3725 ;;		None
  3726 ;; Auto vars:     Size  Location     Type
  3727 ;;		None
  3728 ;; Return value:  Size  Location     Type
  3729 ;;                  1    wreg      void 
  3730 ;; Registers used:
  3731 ;;		wreg, status,2
  3732 ;; Tracked objects:
  3733 ;;		On entry : 0/0
  3734 ;;		On exit  : 0/0
  3735 ;;		Unchanged: 0/0
  3736 ;; Data sizes:     COMRAM   BANK0   BANK1   BANK2   BANK3   BANK4   BANK5   BANK6   BANK7   BANK8   BANK9  BANK10  BANK1
      +1  BANK12  BANK13
  3737 ;;      Params:         0       0       0       0       0       0       0       0       0       0       0       0       
      +0       0       0
  3738 ;;      Locals:         0       0       0       0       0       0       0       0       0       0       0       0       
      +0       0       0
  3739 ;;      Temps:          0       0       0       0       0       0       0       0       0       0       0       0       
      +0       0       0
  3740 ;;      Totals:         0       0       0       0       0       0       0       0       0       0       0       0       
      +0       0       0
  3741 ;;Total ram usage:        0 bytes
  3742 ;; Hardware stack levels used: 1
  3743 ;; Hardware stack levels required when called: 2
  3744 ;; This function calls:
  3745 ;;		Nothing
  3746 ;; This function is called by:
  3747 ;;		_main
  3748 ;; This function uses a non-reentrant model
  3749 ;;
  3750                           
  3751                           	psect	text21
  3752   0040EC                     __ptext21:
  3753                           	callstack 0
  3754   0040EC                     _Timer0_init:
  3755                           	callstack 28
  3756   0040EC                     
  3757                           ;timers.c: 9:     T0CON1bits.T0CS=0b010;
  3758   0040EC  50D6               	movf	214,w,c	;volatile
  3759   0040EE  0B1F               	andlw	-225
  3760   0040F0  0940               	iorlw	64
  3761   0040F2  6ED6               	movwf	214,c	;volatile
  3762   0040F4                     
  3763                           ;timers.c: 10:     T0CON1bits.T0ASYNC=1;
  3764   0040F4  88D6               	bsf	214,4,c	;volatile
  3765                           
  3766                           ;timers.c: 12:     T0CON1bits.T0CKPS=0b1000;
  3767   0040F6  50D6               	movf	214,w,c	;volatile
  3768   0040F8  0BF0               	andlw	-16
  3769   0040FA  0908               	iorlw	8
  3770   0040FC  6ED6               	movwf	214,c	;volatile
  3771   0040FE                     
  3772                           ;timers.c: 13:     T0CON0bits.T016BIT=1;
  3773   0040FE  88D5               	bsf	213,4,c	;volatile
  3774                           
  3775                           ;timers.c: 16:     TMR0H=0b00001011;
  3776   004100  0E0B               	movlw	11
  3777   004102  6ED4               	movwf	212,c	;volatile
  3778                           
  3779                           ;timers.c: 17:     TMR0L=0b11011011;
  3780   004104  0EDB               	movlw	219
  3781   004106  6ED3               	movwf	211,c	;volatile
  3782   004108                     
  3783                           ;timers.c: 18:     T0CON0bits.T0EN=1;
  3784   004108  8ED5               	bsf	213,7,c	;volatile
  3785   00410A  0012               	return		;funcret
  3786   00410C                     __end_of_Timer0_init:
  3787                           	callstack 0
  3788                           
  3789 ;; *************** function _LEDarray_init *****************
  3790 ;; Defined at:
  3791 ;;		line 8 in file "LEDarray.c"
  3792 ;; Parameters:    Size  Location     Type
  3793 ;;		None
  3794 ;; Auto vars:     Size  Location     Type
  3795 ;;		None
  3796 ;; Return value:  Size  Location     Type
  3797 ;;                  1    wreg      void 
  3798 ;; Registers used:
  3799 ;;		None
  3800 ;; Tracked objects:
  3801 ;;		On entry : 0/0
  3802 ;;		On exit  : 0/0
  3803 ;;		Unchanged: 0/0
  3804 ;; Data sizes:     COMRAM   BANK0   BANK1   BANK2   BANK3   BANK4   BANK5   BANK6   BANK7   BANK8   BANK9  BANK10  BANK1
      +1  BANK12  BANK13
  3805 ;;      Params:         0       0       0       0       0       0       0       0       0       0       0       0       
      +0       0       0
  3806 ;;      Locals:         0       0       0       0       0       0       0       0       0       0       0       0       
      +0       0       0
  3807 ;;      Temps:          0       0       0       0       0       0       0       0       0       0       0       0       
      +0       0       0
  3808 ;;      Totals:         0       0       0       0       0       0       0       0       0       0       0       0       
      +0       0       0
  3809 ;;Total ram usage:        0 bytes
  3810 ;; Hardware stack levels used: 1
  3811 ;; Hardware stack levels required when called: 2
  3812 ;; This function calls:
  3813 ;;		Nothing
  3814 ;; This function is called by:
  3815 ;;		_main
  3816 ;; This function uses a non-reentrant model
  3817 ;;
  3818                           
  3819                           	psect	text22
  3820   003F66                     __ptext22:
  3821                           	callstack 0
  3822   003F66                     _LEDarray_init:
  3823                           	callstack 28
  3824   003F66                     
  3825                           ;LEDarray.c: 10:     TRISGbits.TRISG0 = 0;
  3826   003F66  9087               	bcf	135,0,c	;volatile
  3827                           
  3828                           ;LEDarray.c: 11:  TRISGbits.TRISG1 = 0;
  3829   003F68  9287               	bcf	135,1,c	;volatile
  3830                           
  3831                           ;LEDarray.c: 12:     TRISAbits.TRISA2 = 0;
  3832   003F6A  9481               	bcf	129,2,c	;volatile
  3833                           
  3834                           ;LEDarray.c: 13:     TRISFbits.TRISF6 = 0;
  3835   003F6C  9C86               	bcf	134,6,c	;volatile
  3836                           
  3837                           ;LEDarray.c: 14:     TRISAbits.TRISA4 = 0;
  3838   003F6E  9881               	bcf	129,4,c	;volatile
  3839                           
  3840                           ;LEDarray.c: 15:     TRISAbits.TRISA5 = 0;
  3841   003F70  9A81               	bcf	129,5,c	;volatile
  3842                           
  3843                           ;LEDarray.c: 16:     TRISFbits.TRISF0 = 0;
  3844   003F72  9086               	bcf	134,0,c	;volatile
  3845                           
  3846                           ;LEDarray.c: 17:     TRISBbits.TRISB0 = 0;
  3847   003F74  9082               	bcf	130,0,c	;volatile
  3848                           
  3849                           ;LEDarray.c: 18:     TRISBbits.TRISB1 = 0;
  3850   003F76  9282               	bcf	130,1,c	;volatile
  3851                           
  3852                           ;LEDarray.c: 20:     LATGbits.LATG0 = 0;
  3853   003F78  907F               	bcf	127,0,c	;volatile
  3854                           
  3855                           ;LEDarray.c: 21:     LATGbits.LATG1 = 0;
  3856   003F7A  927F               	bcf	127,1,c	;volatile
  3857                           
  3858                           ;LEDarray.c: 22:     LATAbits.LATA2 = 0;
  3859   003F7C  9479               	bcf	121,2,c	;volatile
  3860                           
  3861                           ;LEDarray.c: 23:     LATFbits.LATF6 = 0;
  3862   003F7E  9C7E               	bcf	126,6,c	;volatile
  3863                           
  3864                           ;LEDarray.c: 24:     LATAbits.LATA4 = 0;
  3865   003F80  9879               	bcf	121,4,c	;volatile
  3866                           
  3867                           ;LEDarray.c: 25:     LATAbits.LATA5 = 0;
  3868   003F82  9A79               	bcf	121,5,c	;volatile
  3869                           
  3870                           ;LEDarray.c: 26:     LATFbits.LATF0 = 0;
  3871   003F84  907E               	bcf	126,0,c	;volatile
  3872                           
  3873                           ;LEDarray.c: 27:     LATBbits.LATB0 = 0;
  3874   003F86  907A               	bcf	122,0,c	;volatile
  3875                           
  3876                           ;LEDarray.c: 28:     LATBbits.LATB1 = 0;
  3877   003F88  927A               	bcf	122,1,c	;volatile
  3878                           
  3879                           ;LEDarray.c: 30:     ANSELGbits.ANSELG0=0;
  3880   003F8A  010E               	movlb	14	; () banked
  3881   003F8C  91BC               	bcf	188,0,b	;volatile
  3882                           
  3883                           ;LEDarray.c: 31:     ANSELGbits.ANSELG1=0;
  3884   003F8E  93BC               	bcf	188,1,b	;volatile
  3885                           
  3886                           ;LEDarray.c: 32:     ANSELAbits.ANSELA2=0;
  3887   003F90  9592               	bcf	146,2,b	;volatile
  3888                           
  3889                           ;LEDarray.c: 33:     ANSELFbits.ANSELF6=0;
  3890   003F92  9DB4               	bcf	180,6,b	;volatile
  3891                           
  3892                           ;LEDarray.c: 34:     ANSELAbits.ANSELA4=0;
  3893   003F94  9992               	bcf	146,4,b	;volatile
  3894                           
  3895                           ;LEDarray.c: 35:     ANSELAbits.ANSELA5=0;
  3896   003F96  9B92               	bcf	146,5,b	;volatile
  3897                           
  3898                           ;LEDarray.c: 36:     ANSELFbits.ANSELF0=0;
  3899   003F98  91B4               	bcf	180,0,b	;volatile
  3900                           
  3901                           ;LEDarray.c: 37:     ANSELBbits.ANSELB0=0;
  3902   003F9A  919A               	bcf	154,0,b	;volatile
  3903                           
  3904                           ;LEDarray.c: 38:     ANSELBbits.ANSELB1=0;
  3905   003F9C  939A               	bcf	154,1,b	;volatile
  3906   003F9E                     
  3907                           ; BSR set to: 14
  3908   003F9E  0012               	return		;funcret
  3909   003FA0                     __end_of_LEDarray_init:
  3910                           	callstack 0
  3911                           
  3912 ;; *************** function _LED_activation *****************
  3913 ;; Defined at:
  3914 ;;		line 134 in file "datetime.c"
  3915 ;; Parameters:    Size  Location     Type
  3916 ;;		None
  3917 ;; Auto vars:     Size  Location     Type
  3918 ;;		None
  3919 ;; Return value:  Size  Location     Type
  3920 ;;                  1    wreg      void 
  3921 ;; Registers used:
  3922 ;;		wreg, status,2, status,0, cstack
  3923 ;; Tracked objects:
  3924 ;;		On entry : 0/0
  3925 ;;		On exit  : 0/0
  3926 ;;		Unchanged: 0/0
  3927 ;; Data sizes:     COMRAM   BANK0   BANK1   BANK2   BANK3   BANK4   BANK5   BANK6   BANK7   BANK8   BANK9  BANK10  BANK1
      +1  BANK12  BANK13
  3928 ;;      Params:         0       0       0       0       0       0       0       0       0       0       0       0       
      +0       0       0
  3929 ;;      Locals:         0       0       0       0       0       0       0       0       0       0       0       0       
      +0       0       0
  3930 ;;      Temps:          0       0       0       0       0       0       0       0       0       0       0       0       
      +0       0       0
  3931 ;;      Totals:         0       0       0       0       0       0       0       0       0       0       0       0       
      +0       0       0
  3932 ;;Total ram usage:        0 bytes
  3933 ;; Hardware stack levels used: 1
  3934 ;; Hardware stack levels required when called: 4
  3935 ;; This function calls:
  3936 ;;		_LEDarray_control
  3937 ;;		_LEDarray_disp_bin
  3938 ;; This function is called by:
  3939 ;;		_main
  3940 ;; This function uses a non-reentrant model
  3941 ;;
  3942                           
  3943                           	psect	text23
  3944   003766                     __ptext23:
  3945                           	callstack 0
  3946   003766                     _LED_activation:
  3947                           	callstack 26
  3948   003766                     
  3949                           ;datetime.c: 136:     if (hour == 1) {LEDarray_control(day);}
  3950   003766  0100               	movlb	0	; () banked
  3951   003768  05F8               	decf	_hour& (0+255),w,b
  3952   00376A  11F9               	iorwf	(_hour+1)& (0+255),w,b
  3953   00376C  A4D8               	btfss	status,2,c
  3954   00376E  EFBB  F01B         	goto	u4571
  3955   003772  EFBD  F01B         	goto	u4570
  3956   003776                     u4571:
  3957   003776  EFC3  F01B         	goto	l4074
  3958   00377A                     u4570:
  3959   00377A                     
  3960                           ; BSR set to: 0
  3961   00377A  C0F6  F009         	movff	_day,LEDarray_control@day
  3962   00377E  C0F7  F00A         	movff	_day+1,LEDarray_control@day+1
  3963   003782  EC1F  F01D         	call	_LEDarray_control	;wreg free
  3964   003786                     l4074:
  3965                           
  3966                           ;datetime.c: 137:     if (hour == 5) {LEDarray_disp_bin(0b111111111);}
  3967   003786  0E05               	movlw	5
  3968   003788  0100               	movlb	0	; () banked
  3969   00378A  19F8               	xorwf	_hour& (0+255),w,b
  3970   00378C  11F9               	iorwf	(_hour+1)& (0+255),w,b
  3971   00378E  A4D8               	btfss	status,2,c
  3972   003790  EFCC  F01B         	goto	u4581
  3973   003794  EFCE  F01B         	goto	u4580
  3974   003798                     u4581:
  3975   003798  EFD3  F01B         	goto	l4078
  3976   00379C                     u4580:
  3977   00379C                     
  3978                           ; BSR set to: 0
  3979   00379C  0E01               	movlw	1
  3980   00379E  6E05               	movwf	(LEDarray_disp_bin@number+1)^0,c
  3981   0037A0  6804               	setf	LEDarray_disp_bin@number^0,c
  3982   0037A2  ECED  F01A         	call	_LEDarray_disp_bin	;wreg free
  3983   0037A6                     l4078:
  3984                           
  3985                           ;datetime.c: 140:     if (LATDbits.LATD7)
  3986   0037A6  AE7C               	btfss	124,7,c	;volatile
  3987   0037A8  EFD8  F01B         	goto	u4591
  3988   0037AC  EFDA  F01B         	goto	u4590
  3989   0037B0                     u4591:
  3990   0037B0  EF12  F01C         	goto	l256
  3991   0037B4                     u4590:
  3992   0037B4                     
  3993                           ;datetime.c: 141:     {;datetime.c: 142:         if (hour <= 5) {LEDarray_disp_bin(0b000
      +                          000000);}
  3994   0037B4  0100               	movlb	0	; () banked
  3995   0037B6  51F9               	movf	(_hour+1)& (0+255),w,b
  3996   0037B8  E107               	bnz	u4601
  3997   0037BA  0E06               	movlw	6
  3998   0037BC  5DF8               	subwf	_hour& (0+255),w,b
  3999   0037BE  B0D8               	btfsc	status,0,c
  4000   0037C0  EFE4  F01B         	goto	u4601
  4001   0037C4  EFE6  F01B         	goto	u4600
  4002   0037C8                     u4601:
  4003   0037C8  EFEE  F01B         	goto	l4084
  4004   0037CC                     u4600:
  4005   0037CC                     
  4006                           ; BSR set to: 0
  4007   0037CC  0E00               	movlw	0
  4008   0037CE  6E05               	movwf	(LEDarray_disp_bin@number+1)^0,c
  4009   0037D0  0E00               	movlw	0
  4010   0037D2  6E04               	movwf	LEDarray_disp_bin@number^0,c
  4011   0037D4  ECED  F01A         	call	_LEDarray_disp_bin	;wreg free
  4012   0037D8  EF00  F01C         	goto	l4090
  4013   0037DC                     l4084:
  4014                           
  4015                           ; BSR set to: 0
  4016   0037DC  51F9               	movf	(_hour+1)& (0+255),w,b
  4017   0037DE  E107               	bnz	u4611
  4018   0037E0  0E0C               	movlw	12
  4019   0037E2  5DF8               	subwf	_hour& (0+255),w,b
  4020   0037E4  B0D8               	btfsc	status,0,c
  4021   0037E6  EFF7  F01B         	goto	u4611
  4022   0037EA  EFF9  F01B         	goto	u4610
  4023   0037EE                     u4611:
  4024   0037EE  EF00  F01C         	goto	l4090
  4025   0037F2                     u4610:
  4026   0037F2                     
  4027                           ; BSR set to: 0
  4028   0037F2  0E00               	movlw	0
  4029   0037F4  6E05               	movwf	(LEDarray_disp_bin@number+1)^0,c
  4030   0037F6  0E00               	movlw	0
  4031   0037F8  6E04               	movwf	LEDarray_disp_bin@number^0,c
  4032   0037FA  ECED  F01A         	call	_LEDarray_disp_bin	;wreg free
  4033   0037FE  9E7C               	bcf	124,7,c	;volatile
  4034   003800                     l4090:
  4035                           
  4036                           ;datetime.c: 144:         if (hour > 12) {LEDarray_disp_bin(0b111111111); LATDbits.LATD7
      +                           = 0;}
  4037   003800  0100               	movlb	0	; () banked
  4038   003802  51F9               	movf	(_hour+1)& (0+255),w,b
  4039   003804  E109               	bnz	u4620
  4040   003806  0E0D               	movlw	13
  4041   003808  5DF8               	subwf	_hour& (0+255),w,b
  4042   00380A  A0D8               	btfss	status,0,c
  4043   00380C  EF0A  F01C         	goto	u4621
  4044   003810  EF0C  F01C         	goto	u4620
  4045   003814                     u4621:
  4046   003814  EF12  F01C         	goto	l256
  4047   003818                     u4620:
  4048   003818                     
  4049                           ; BSR set to: 0
  4050   003818  0E01               	movlw	1
  4051   00381A  6E05               	movwf	(LEDarray_disp_bin@number+1)^0,c
  4052   00381C  6804               	setf	LEDarray_disp_bin@number^0,c
  4053   00381E  ECED  F01A         	call	_LEDarray_disp_bin	;wreg free
  4054   003822  9E7C               	bcf	124,7,c	;volatile
  4055   003824                     l256:
  4056   003824  0012               	return		;funcret
  4057   003826                     __end_of_LED_activation:
  4058                           	callstack 0
  4059                           
  4060 ;; *************** function _LEDarray_control *****************
  4061 ;; Defined at:
  4062 ;;		line 65 in file "LEDarray.c"
  4063 ;; Parameters:    Size  Location     Type
  4064 ;;  day             2    8[COMRAM] unsigned int 
  4065 ;; Auto vars:     Size  Location     Type
  4066 ;;  temp            2   10[COMRAM] unsigned int 
  4067 ;; Return value:  Size  Location     Type
  4068 ;;                  1    wreg      void 
  4069 ;; Registers used:
  4070 ;;		wreg, status,2, status,0, cstack
  4071 ;; Tracked objects:
  4072 ;;		On entry : 0/0
  4073 ;;		On exit  : 0/0
  4074 ;;		Unchanged: 0/0
  4075 ;; Data sizes:     COMRAM   BANK0   BANK1   BANK2   BANK3   BANK4   BANK5   BANK6   BANK7   BANK8   BANK9  BANK10  BANK1
      +1  BANK12  BANK13
  4076 ;;      Params:         2       0       0       0       0       0       0       0       0       0       0       0       
      +0       0       0
  4077 ;;      Locals:         2       0       0       0       0       0       0       0       0       0       0       0       
      +0       0       0
  4078 ;;      Temps:          0       0       0       0       0       0       0       0       0       0       0       0       
      +0       0       0
  4079 ;;      Totals:         4       0       0       0       0       0       0       0       0       0       0       0       
      +0       0       0
  4080 ;;Total ram usage:        4 bytes
  4081 ;; Hardware stack levels used: 1
  4082 ;; Hardware stack levels required when called: 3
  4083 ;; This function calls:
  4084 ;;		_LEDarray_disp_bin
  4085 ;;		___lwmod
  4086 ;; This function is called by:
  4087 ;;		_LED_activation
  4088 ;; This function uses a non-reentrant model
  4089 ;;
  4090                           
  4091                           	psect	text24
  4092   003A3E                     __ptext24:
  4093                           	callstack 0
  4094   003A3E                     _LEDarray_control:
  4095                           	callstack 26
  4096   003A3E                     
  4097                           ;LEDarray.c: 65: void LEDarray_control(unsigned int day);LEDarray.c: 66: {;LEDarray.c: 6
      +                          7:     unsigned int temp = 0;
  4098   003A3E  0E00               	movlw	0
  4099   003A40  6E0C               	movwf	(LEDarray_control@temp+1)^0,c
  4100   003A42  0E00               	movlw	0
  4101   003A44  6E0B               	movwf	LEDarray_control@temp^0,c
  4102   003A46                     
  4103                           ;LEDarray.c: 68:     if (day % 3 == 0) {temp = 0b001001001;}
  4104   003A46  C009  F004         	movff	LEDarray_control@day,___lwmod@dividend
  4105   003A4A  C00A  F005         	movff	LEDarray_control@day+1,___lwmod@dividend+1
  4106   003A4E  0E00               	movlw	0
  4107   003A50  6E07               	movwf	(___lwmod@divisor+1)^0,c
  4108   003A52  0E03               	movlw	3
  4109   003A54  6E06               	movwf	___lwmod@divisor^0,c
  4110   003A56  EC6B  F01E         	call	___lwmod	;wreg free
  4111   003A5A  5004               	movf	?___lwmod^0,w,c
  4112   003A5C  1005               	iorwf	(?___lwmod+1)^0,w,c
  4113   003A5E  A4D8               	btfss	status,2,c
  4114   003A60  EF34  F01D         	goto	u3751
  4115   003A64  EF36  F01D         	goto	u3750
  4116   003A68                     u3751:
  4117   003A68  EF3A  F01D         	goto	l3574
  4118   003A6C                     u3750:
  4119   003A6C  0E00               	movlw	0
  4120   003A6E  6E0C               	movwf	(LEDarray_control@temp+1)^0,c
  4121   003A70  0E49               	movlw	73
  4122   003A72  6E0B               	movwf	LEDarray_control@temp^0,c
  4123   003A74                     l3574:
  4124                           
  4125                           ;LEDarray.c: 69:     if (day % 3 == 1) {temp = 0b010010010;}
  4126   003A74  C009  F004         	movff	LEDarray_control@day,___lwmod@dividend
  4127   003A78  C00A  F005         	movff	LEDarray_control@day+1,___lwmod@dividend+1
  4128   003A7C  0E00               	movlw	0
  4129   003A7E  6E07               	movwf	(___lwmod@divisor+1)^0,c
  4130   003A80  0E03               	movlw	3
  4131   003A82  6E06               	movwf	___lwmod@divisor^0,c
  4132   003A84  EC6B  F01E         	call	___lwmod	;wreg free
  4133   003A88  0404               	decf	?___lwmod^0,w,c
  4134   003A8A  1005               	iorwf	(?___lwmod+1)^0,w,c
  4135   003A8C  A4D8               	btfss	status,2,c
  4136   003A8E  EF4B  F01D         	goto	u3761
  4137   003A92  EF4D  F01D         	goto	u3760
  4138   003A96                     u3761:
  4139   003A96  EF51  F01D         	goto	l3578
  4140   003A9A                     u3760:
  4141   003A9A  0E00               	movlw	0
  4142   003A9C  6E0C               	movwf	(LEDarray_control@temp+1)^0,c
  4143   003A9E  0E92               	movlw	146
  4144   003AA0  6E0B               	movwf	LEDarray_control@temp^0,c
  4145   003AA2                     l3578:
  4146                           
  4147                           ;LEDarray.c: 70:     if (day % 3 == 2) {temp = 0b100100100;}
  4148   003AA2  C009  F004         	movff	LEDarray_control@day,___lwmod@dividend
  4149   003AA6  C00A  F005         	movff	LEDarray_control@day+1,___lwmod@dividend+1
  4150   003AAA  0E00               	movlw	0
  4151   003AAC  6E07               	movwf	(___lwmod@divisor+1)^0,c
  4152   003AAE  0E03               	movlw	3
  4153   003AB0  6E06               	movwf	___lwmod@divisor^0,c
  4154   003AB2  EC6B  F01E         	call	___lwmod	;wreg free
  4155   003AB6  0E02               	movlw	2
  4156   003AB8  1804               	xorwf	?___lwmod^0,w,c
  4157   003ABA  1005               	iorwf	(?___lwmod+1)^0,w,c
  4158   003ABC  A4D8               	btfss	status,2,c
  4159   003ABE  EF63  F01D         	goto	u3771
  4160   003AC2  EF65  F01D         	goto	u3770
  4161   003AC6                     u3771:
  4162   003AC6  EF69  F01D         	goto	l3582
  4163   003ACA                     u3770:
  4164   003ACA  0E01               	movlw	1
  4165   003ACC  6E0C               	movwf	(LEDarray_control@temp+1)^0,c
  4166   003ACE  0E24               	movlw	36
  4167   003AD0  6E0B               	movwf	LEDarray_control@temp^0,c
  4168   003AD2                     l3582:
  4169                           
  4170                           ;LEDarray.c: 71:     LEDarray_disp_bin(temp);
  4171   003AD2  C00B  F004         	movff	LEDarray_control@temp,LEDarray_disp_bin@number
  4172   003AD6  C00C  F005         	movff	LEDarray_control@temp+1,LEDarray_disp_bin@number+1
  4173   003ADA  ECED  F01A         	call	_LEDarray_disp_bin	;wreg free
  4174   003ADE  0012               	return		;funcret
  4175   003AE0                     __end_of_LEDarray_control:
  4176                           	callstack 0
  4177                           
  4178 ;; *************** function _LEDarray_disp_bin *****************
  4179 ;; Defined at:
  4180 ;;		line 45 in file "LEDarray.c"
  4181 ;; Parameters:    Size  Location     Type
  4182 ;;  number          2    3[COMRAM] unsigned int 
  4183 ;; Auto vars:     Size  Location     Type
  4184 ;;		None
  4185 ;; Return value:  Size  Location     Type
  4186 ;;                  1    wreg      void 
  4187 ;; Registers used:
  4188 ;;		None
  4189 ;; Tracked objects:
  4190 ;;		On entry : 0/0
  4191 ;;		On exit  : 0/0
  4192 ;;		Unchanged: 0/0
  4193 ;; Data sizes:     COMRAM   BANK0   BANK1   BANK2   BANK3   BANK4   BANK5   BANK6   BANK7   BANK8   BANK9  BANK10  BANK1
      +1  BANK12  BANK13
  4194 ;;      Params:         2       0       0       0       0       0       0       0       0       0       0       0       
      +0       0       0
  4195 ;;      Locals:         0       0       0       0       0       0       0       0       0       0       0       0       
      +0       0       0
  4196 ;;      Temps:          0       0       0       0       0       0       0       0       0       0       0       0       
      +0       0       0
  4197 ;;      Totals:         2       0       0       0       0       0       0       0       0       0       0       0       
      +0       0       0
  4198 ;;Total ram usage:        2 bytes
  4199 ;; Hardware stack levels used: 1
  4200 ;; Hardware stack levels required when called: 2
  4201 ;; This function calls:
  4202 ;;		Nothing
  4203 ;; This function is called by:
  4204 ;;		_LEDarray_control
  4205 ;;		_LED_activation
  4206 ;; This function uses a non-reentrant model
  4207 ;;
  4208                           
  4209                           	psect	text25
  4210   0035DA                     __ptext25:
  4211                           	callstack 0
  4212   0035DA                     _LEDarray_disp_bin:
  4213                           	callstack 27
  4214   0035DA                     
  4215                           ;LEDarray.c: 45: void LEDarray_disp_bin(unsigned int number);LEDarray.c: 46: {;LEDarray.
      +                          c: 49:     if (number & 0b000000001) LATGbits.LATG0 = 1; else LATGbits.LATG0 = 0;
  4216   0035DA  A004               	btfss	LEDarray_disp_bin@number^0,0,c
  4217   0035DC  EFF2  F01A         	goto	u3541
  4218   0035E0  EFF4  F01A         	goto	u3540
  4219   0035E4                     u3541:
  4220   0035E4  EFF7  F01A         	goto	l100
  4221   0035E8                     u3540:
  4222   0035E8  807F               	bsf	127,0,c	;volatile
  4223   0035EA  EFF8  F01A         	goto	l101
  4224   0035EE                     l100:
  4225   0035EE  907F               	bcf	127,0,c	;volatile
  4226   0035F0                     l101:
  4227                           
  4228                           ;LEDarray.c: 50:     if (number & 0b000000010) LATGbits.LATG1 = 1; else LATGbits.LATG1 =
      +                           0;
  4229   0035F0  A204               	btfss	LEDarray_disp_bin@number^0,1,c
  4230   0035F2  EFFD  F01A         	goto	u3551
  4231   0035F6  EFFF  F01A         	goto	u3550
  4232   0035FA                     u3551:
  4233   0035FA  EF02  F01B         	goto	l102
  4234   0035FE                     u3550:
  4235   0035FE  827F               	bsf	127,1,c	;volatile
  4236   003600  EF03  F01B         	goto	l103
  4237   003604                     l102:
  4238   003604  927F               	bcf	127,1,c	;volatile
  4239   003606                     l103:
  4240                           
  4241                           ;LEDarray.c: 51:     if (number & 0b000000100) LATAbits.LATA2 = 1; else LATAbits.LATA2 =
      +                           0;
  4242   003606  A404               	btfss	LEDarray_disp_bin@number^0,2,c
  4243   003608  EF08  F01B         	goto	u3561
  4244   00360C  EF0A  F01B         	goto	u3560
  4245   003610                     u3561:
  4246   003610  EF0D  F01B         	goto	l104
  4247   003614                     u3560:
  4248   003614  8479               	bsf	121,2,c	;volatile
  4249   003616  EF0E  F01B         	goto	l105
  4250   00361A                     l104:
  4251   00361A  9479               	bcf	121,2,c	;volatile
  4252   00361C                     l105:
  4253                           
  4254                           ;LEDarray.c: 52:     if (number & 0b000001000) LATFbits.LATF6 = 1; else LATFbits.LATF6 =
      +                           0;
  4255   00361C  A604               	btfss	LEDarray_disp_bin@number^0,3,c
  4256   00361E  EF13  F01B         	goto	u3571
  4257   003622  EF15  F01B         	goto	u3570
  4258   003626                     u3571:
  4259   003626  EF18  F01B         	goto	l106
  4260   00362A                     u3570:
  4261   00362A  8C7E               	bsf	126,6,c	;volatile
  4262   00362C  EF19  F01B         	goto	l107
  4263   003630                     l106:
  4264   003630  9C7E               	bcf	126,6,c	;volatile
  4265   003632                     l107:
  4266                           
  4267                           ;LEDarray.c: 53:     if (number & 0b000010000) LATAbits.LATA4 = 1; else LATAbits.LATA4 =
      +                           0;
  4268   003632  A804               	btfss	LEDarray_disp_bin@number^0,4,c
  4269   003634  EF1E  F01B         	goto	u3581
  4270   003638  EF20  F01B         	goto	u3580
  4271   00363C                     u3581:
  4272   00363C  EF23  F01B         	goto	l108
  4273   003640                     u3580:
  4274   003640  8879               	bsf	121,4,c	;volatile
  4275   003642  EF24  F01B         	goto	l109
  4276   003646                     l108:
  4277   003646  9879               	bcf	121,4,c	;volatile
  4278   003648                     l109:
  4279                           
  4280                           ;LEDarray.c: 54:     if (number & 0b000100000) LATAbits.LATA5 = 1; else LATAbits.LATA5 =
      +                           0;
  4281   003648  AA04               	btfss	LEDarray_disp_bin@number^0,5,c
  4282   00364A  EF29  F01B         	goto	u3591
  4283   00364E  EF2B  F01B         	goto	u3590
  4284   003652                     u3591:
  4285   003652  EF2E  F01B         	goto	l110
  4286   003656                     u3590:
  4287   003656  8A79               	bsf	121,5,c	;volatile
  4288   003658  EF2F  F01B         	goto	l111
  4289   00365C                     l110:
  4290   00365C  9A79               	bcf	121,5,c	;volatile
  4291   00365E                     l111:
  4292                           
  4293                           ;LEDarray.c: 55:     if (number & 0b001000000) LATFbits.LATF0 = 1; else LATFbits.LATF0 =
      +                           0;
  4294   00365E  AC04               	btfss	LEDarray_disp_bin@number^0,6,c
  4295   003660  EF34  F01B         	goto	u3601
  4296   003664  EF36  F01B         	goto	u3600
  4297   003668                     u3601:
  4298   003668  EF39  F01B         	goto	l112
  4299   00366C                     u3600:
  4300   00366C  807E               	bsf	126,0,c	;volatile
  4301   00366E  EF3A  F01B         	goto	l113
  4302   003672                     l112:
  4303   003672  907E               	bcf	126,0,c	;volatile
  4304   003674                     l113:
  4305                           
  4306                           ;LEDarray.c: 56:     if (number & 0b010000000) LATBbits.LATB0 = 1; else LATBbits.LATB0 =
      +                           0;
  4307   003674  AE04               	btfss	LEDarray_disp_bin@number^0,7,c
  4308   003676  EF3F  F01B         	goto	u3611
  4309   00367A  EF41  F01B         	goto	u3610
  4310   00367E                     u3611:
  4311   00367E  EF44  F01B         	goto	l114
  4312   003682                     u3610:
  4313   003682  807A               	bsf	122,0,c	;volatile
  4314   003684  EF45  F01B         	goto	l115
  4315   003688                     l114:
  4316   003688  907A               	bcf	122,0,c	;volatile
  4317   00368A                     l115:
  4318                           
  4319                           ;LEDarray.c: 57:     if (number & 0b100000000) LATBbits.LATB1 = 1; else LATBbits.LATB1 =
      +                           0;
  4320   00368A  A005               	btfss	(LEDarray_disp_bin@number+1)^0,0,c
  4321   00368C  EF4A  F01B         	goto	u3621
  4322   003690  EF4C  F01B         	goto	u3620
  4323   003694                     u3621:
  4324   003694  EF4F  F01B         	goto	l116
  4325   003698                     u3620:
  4326   003698  827A               	bsf	122,1,c	;volatile
  4327   00369A  EF50  F01B         	goto	l118
  4328   00369E                     l116:
  4329   00369E  927A               	bcf	122,1,c	;volatile
  4330   0036A0                     l118:
  4331   0036A0  0012               	return		;funcret
  4332   0036A2                     __end_of_LEDarray_disp_bin:
  4333                           	callstack 0
  4334                           
  4335 ;; *************** function _LCD_Init *****************
  4336 ;; Defined at:
  4337 ;;		line 51 in file "LCD.c"
  4338 ;; Parameters:    Size  Location     Type
  4339 ;;		None
  4340 ;; Auto vars:     Size  Location     Type
  4341 ;;		None
  4342 ;; Return value:  Size  Location     Type
  4343 ;;                  1    wreg      void 
  4344 ;; Registers used:
  4345 ;;		wreg, status,2, status,0, cstack
  4346 ;; Tracked objects:
  4347 ;;		On entry : 0/0
  4348 ;;		On exit  : 0/0
  4349 ;;		Unchanged: 0/0
  4350 ;; Data sizes:     COMRAM   BANK0   BANK1   BANK2   BANK3   BANK4   BANK5   BANK6   BANK7   BANK8   BANK9  BANK10  BANK1
      +1  BANK12  BANK13
  4351 ;;      Params:         0       0       0       0       0       0       0       0       0       0       0       0       
      +0       0       0
  4352 ;;      Locals:         0       0       0       0       0       0       0       0       0       0       0       0       
      +0       0       0
  4353 ;;      Temps:          2       0       0       0       0       0       0       0       0       0       0       0       
      +0       0       0
  4354 ;;      Totals:         2       0       0       0       0       0       0       0       0       0       0       0       
      +0       0       0
  4355 ;;Total ram usage:        2 bytes
  4356 ;; Hardware stack levels used: 1
  4357 ;; Hardware stack levels required when called: 5
  4358 ;; This function calls:
  4359 ;;		_LCD_sendbyte
  4360 ;;		_LCD_sendnibble
  4361 ;; This function is called by:
  4362 ;;		_main
  4363 ;; This function uses a non-reentrant model
  4364 ;;
  4365                           
  4366                           	psect	text26
  4367   0034D8                     __ptext26:
  4368                           	callstack 0
  4369   0034D8                     _LCD_Init:
  4370                           	callstack 25
  4371   0034D8                     
  4372                           ;LCD.c: 54:     TRISCbits.TRISC6 = 0;
  4373   0034D8  9C83               	bcf	131,6,c	;volatile
  4374                           
  4375                           ;LCD.c: 55:     TRISCbits.TRISC2 = 0;
  4376   0034DA  9483               	bcf	131,2,c	;volatile
  4377                           
  4378                           ;LCD.c: 56:     TRISBbits.TRISB3 = 0;
  4379   0034DC  9682               	bcf	130,3,c	;volatile
  4380                           
  4381                           ;LCD.c: 57:     TRISBbits.TRISB2 = 0;
  4382   0034DE  9482               	bcf	130,2,c	;volatile
  4383                           
  4384                           ;LCD.c: 58:     TRISEbits.TRISE3 = 0;
  4385   0034E0  9685               	bcf	133,3,c	;volatile
  4386                           
  4387                           ;LCD.c: 59:     TRISEbits.TRISE1 = 0;
  4388   0034E2  9285               	bcf	133,1,c	;volatile
  4389                           
  4390                           ;LCD.c: 62:     LATCbits.LATC6 = 0;
  4391   0034E4  9C7B               	bcf	123,6,c	;volatile
  4392                           
  4393                           ;LCD.c: 63:     LATCbits.LATC2 = 0;
  4394   0034E6  947B               	bcf	123,2,c	;volatile
  4395                           
  4396                           ;LCD.c: 64:     LATBbits.LATB3 = 0;
  4397   0034E8  967A               	bcf	122,3,c	;volatile
  4398                           
  4399                           ;LCD.c: 65:     LATBbits.LATB2 = 0;
  4400   0034EA  947A               	bcf	122,2,c	;volatile
  4401                           
  4402                           ;LCD.c: 66:     LATEbits.LATE3 = 0;
  4403   0034EC  967D               	bcf	125,3,c	;volatile
  4404                           
  4405                           ;LCD.c: 67:     LATEbits.LATE1 = 0;
  4406   0034EE  927D               	bcf	125,1,c	;volatile
  4407   0034F0                     
  4408                           ;LCD.c: 72:     _delay((unsigned long)((150)*(64000000/4000.0)));
  4409   0034F0  0E0D               	movlw	13
  4410   0034F2  6E08               	movwf	(??_LCD_Init+1)^0,c
  4411   0034F4  0E2D               	movlw	45
  4412   0034F6  6E07               	movwf	??_LCD_Init^0,c
  4413   0034F8  0ED8               	movlw	216
  4414   0034FA                     u5187:
  4415   0034FA  2EE8               	decfsz	wreg,f,c
  4416   0034FC  D7FE               	bra	u5187
  4417   0034FE  2E07               	decfsz	??_LCD_Init^0,f,c
  4418   003500  D7FC               	bra	u5187
  4419   003502  2E08               	decfsz	(??_LCD_Init+1)^0,f,c
  4420   003504  D7FA               	bra	u5187
  4421   003506                     
  4422                           ;LCD.c: 73:     LCD_sendnibble(0b0011);
  4423   003506  0E03               	movlw	3
  4424   003508  EC37  F01E         	call	_LCD_sendnibble
  4425   00350C                     
  4426                           ;LCD.c: 74:     _delay((unsigned long)((5)*(64000000/4000.0)));
  4427   00350C  0E68               	movlw	104
  4428   00350E  6E07               	movwf	??_LCD_Init^0,c
  4429   003510  0EE4               	movlw	228
  4430   003512                     u5197:
  4431   003512  2EE8               	decfsz	wreg,f,c
  4432   003514  D7FE               	bra	u5197
  4433   003516  2E07               	decfsz	??_LCD_Init^0,f,c
  4434   003518  D7FC               	bra	u5197
  4435   00351A  D000               	nop2	
  4436                           
  4437                           ;LCD.c: 75:     LCD_sendnibble(0b0011);
  4438   00351C  0E03               	movlw	3
  4439   00351E  EC37  F01E         	call	_LCD_sendnibble
  4440   003522                     
  4441                           ;LCD.c: 76:     _delay((unsigned long)((200)*(64000000/4000000.0)));
  4442   003522  0E05               	movlw	5
  4443   003524  6E07               	movwf	??_LCD_Init^0,c
  4444   003526  0E26               	movlw	38
  4445   003528                     u5207:
  4446   003528  2EE8               	decfsz	wreg,f,c
  4447   00352A  D7FE               	bra	u5207
  4448   00352C  2E07               	decfsz	??_LCD_Init^0,f,c
  4449   00352E  D7FC               	bra	u5207
  4450   003530  D000               	nop2	
  4451   003532                     
  4452                           ;LCD.c: 77:     LCD_sendnibble(0b0011);
  4453   003532  0E03               	movlw	3
  4454   003534  EC37  F01E         	call	_LCD_sendnibble
  4455                           
  4456                           ;LCD.c: 78:     _delay((unsigned long)((200)*(64000000/4000000.0)));
  4457   003538  0E05               	movlw	5
  4458   00353A  6E07               	movwf	??_LCD_Init^0,c
  4459   00353C  0E26               	movlw	38
  4460   00353E                     u5217:
  4461   00353E  2EE8               	decfsz	wreg,f,c
  4462   003540  D7FE               	bra	u5217
  4463   003542  2E07               	decfsz	??_LCD_Init^0,f,c
  4464   003544  D7FC               	bra	u5217
  4465   003546  D000               	nop2	
  4466   003548                     
  4467                           ;LCD.c: 79:     LCD_sendnibble(0b0010);
  4468   003548  0E02               	movlw	2
  4469   00354A  EC37  F01E         	call	_LCD_sendnibble
  4470   00354E                     
  4471                           ;LCD.c: 80:     _delay((unsigned long)((200)*(64000000/4000000.0)));
  4472   00354E  0E05               	movlw	5
  4473   003550  6E07               	movwf	??_LCD_Init^0,c
  4474   003552  0E26               	movlw	38
  4475   003554                     u5227:
  4476   003554  2EE8               	decfsz	wreg,f,c
  4477   003556  D7FE               	bra	u5227
  4478   003558  2E07               	decfsz	??_LCD_Init^0,f,c
  4479   00355A  D7FC               	bra	u5227
  4480   00355C  D000               	nop2	
  4481   00355E                     
  4482                           ;LCD.c: 82:     LCD_sendbyte(0b00101100,0);
  4483   00355E  0E00               	movlw	0
  4484   003560  6E05               	movwf	LCD_sendbyte@type^0,c
  4485   003562  0E2C               	movlw	44
  4486   003564  EC3A  F020         	call	_LCD_sendbyte
  4487   003568                     
  4488                           ;LCD.c: 83:     _delay((unsigned long)((100)*(64000000/4000000.0)));
  4489   003568  0EE4               	movlw	228
  4490   00356A                     u5237:
  4491   00356A  D000               	nop2	
  4492   00356C  D000               	nop2	
  4493   00356E  2EE8               	decfsz	wreg,f,c
  4494   003570  D7FC               	bra	u5237
  4495   003572  D000               	nop2	
  4496   003574  D000               	nop2	
  4497   003576                     
  4498                           ;LCD.c: 84:     LCD_sendbyte(0b00001000,0);
  4499   003576  0E00               	movlw	0
  4500   003578  6E05               	movwf	LCD_sendbyte@type^0,c
  4501   00357A  0E08               	movlw	8
  4502   00357C  EC3A  F020         	call	_LCD_sendbyte
  4503   003580                     
  4504                           ;LCD.c: 85:     _delay((unsigned long)((100)*(64000000/4000000.0)));
  4505   003580  0EE4               	movlw	228
  4506   003582                     u5247:
  4507   003582  D000               	nop2	
  4508   003584  D000               	nop2	
  4509   003586  2EE8               	decfsz	wreg,f,c
  4510   003588  D7FC               	bra	u5247
  4511   00358A  D000               	nop2	
  4512   00358C  D000               	nop2	
  4513   00358E                     
  4514                           ;LCD.c: 86:     LCD_sendbyte(0b00000001,0);
  4515   00358E  0E00               	movlw	0
  4516   003590  6E05               	movwf	LCD_sendbyte@type^0,c
  4517   003592  0E01               	movlw	1
  4518   003594  EC3A  F020         	call	_LCD_sendbyte
  4519   003598                     
  4520                           ;LCD.c: 87:     _delay((unsigned long)((5)*(64000000/4000.0)));
  4521   003598  0E68               	movlw	104
  4522   00359A  6E07               	movwf	??_LCD_Init^0,c
  4523   00359C  0EE4               	movlw	228
  4524   00359E                     u5257:
  4525   00359E  2EE8               	decfsz	wreg,f,c
  4526   0035A0  D7FE               	bra	u5257
  4527   0035A2  2E07               	decfsz	??_LCD_Init^0,f,c
  4528   0035A4  D7FC               	bra	u5257
  4529   0035A6  D000               	nop2	
  4530   0035A8                     
  4531                           ;LCD.c: 88:     LCD_sendbyte(0b00000110,0);
  4532   0035A8  0E00               	movlw	0
  4533   0035AA  6E05               	movwf	LCD_sendbyte@type^0,c
  4534   0035AC  0E06               	movlw	6
  4535   0035AE  EC3A  F020         	call	_LCD_sendbyte
  4536   0035B2                     
  4537                           ;LCD.c: 89:     _delay((unsigned long)((100)*(64000000/4000000.0)));
  4538   0035B2  0EE4               	movlw	228
  4539   0035B4                     u5267:
  4540   0035B4  D000               	nop2	
  4541   0035B6  D000               	nop2	
  4542   0035B8  2EE8               	decfsz	wreg,f,c
  4543   0035BA  D7FC               	bra	u5267
  4544   0035BC  D000               	nop2	
  4545   0035BE  D000               	nop2	
  4546   0035C0                     
  4547                           ;LCD.c: 92:     LCD_sendbyte(0b00001100,0);
  4548   0035C0  0E00               	movlw	0
  4549   0035C2  6E05               	movwf	LCD_sendbyte@type^0,c
  4550   0035C4  0E0C               	movlw	12
  4551   0035C6  EC3A  F020         	call	_LCD_sendbyte
  4552   0035CA                     
  4553                           ;LCD.c: 93:     _delay((unsigned long)((100)*(64000000/4000000.0)));
  4554   0035CA  0EE4               	movlw	228
  4555   0035CC                     u5277:
  4556   0035CC  D000               	nop2	
  4557   0035CE  D000               	nop2	
  4558   0035D0  2EE8               	decfsz	wreg,f,c
  4559   0035D2  D7FC               	bra	u5277
  4560   0035D4  D000               	nop2	
  4561   0035D6  D000               	nop2	
  4562   0035D8  0012               	return		;funcret
  4563   0035DA                     __end_of_LCD_Init:
  4564                           	callstack 0
  4565                           
  4566 ;; *************** function _LCD_sendbyte *****************
  4567 ;; Defined at:
  4568 ;;		line 36 in file "LCD.c"
  4569 ;; Parameters:    Size  Location     Type
  4570 ;;  Byte            1    wreg     unsigned char 
  4571 ;;  type            1    4[COMRAM] unsigned char 
  4572 ;; Auto vars:     Size  Location     Type
  4573 ;;  Byte            1    5[COMRAM] unsigned char 
  4574 ;; Return value:  Size  Location     Type
  4575 ;;                  1    wreg      void 
  4576 ;; Registers used:
  4577 ;;		wreg, status,2, status,0, cstack
  4578 ;; Tracked objects:
  4579 ;;		On entry : 0/0
  4580 ;;		On exit  : 0/0
  4581 ;;		Unchanged: 0/0
  4582 ;; Data sizes:     COMRAM   BANK0   BANK1   BANK2   BANK3   BANK4   BANK5   BANK6   BANK7   BANK8   BANK9  BANK10  BANK1
      +1  BANK12  BANK13
  4583 ;;      Params:         1       0       0       0       0       0       0       0       0       0       0       0       
      +0       0       0
  4584 ;;      Locals:         1       0       0       0       0       0       0       0       0       0       0       0       
      +0       0       0
  4585 ;;      Temps:          0       0       0       0       0       0       0       0       0       0       0       0       
      +0       0       0
  4586 ;;      Totals:         2       0       0       0       0       0       0       0       0       0       0       0       
      +0       0       0
  4587 ;;Total ram usage:        2 bytes
  4588 ;; Hardware stack levels used: 1
  4589 ;; Hardware stack levels required when called: 4
  4590 ;; This function calls:
  4591 ;;		_LCD_sendnibble
  4592 ;; This function is called by:
  4593 ;;		_LCD_Init
  4594 ;;		_LCD_setline
  4595 ;;		_LCD_sendstring
  4596 ;;		_LCD_scroll
  4597 ;; This function uses a non-reentrant model
  4598 ;;
  4599                           
  4600                           	psect	text27
  4601   004074                     __ptext27:
  4602                           	callstack 0
  4603   004074                     _LCD_sendbyte:
  4604                           	callstack 24
  4605                           
  4606                           ;incstack = 0
  4607                           ;LCD_sendbyte@Byte stored from wreg
  4608   004074  6E06               	movwf	LCD_sendbyte@Byte^0,c
  4609   004076                     
  4610                           ;LCD.c: 36: void LCD_sendbyte(unsigned char Byte, char type);LCD.c: 37: {;LCD.c: 39:    
      +                           LATCbits.LATC6 = type;
  4611   004076  B005               	btfsc	LCD_sendbyte@type^0,0,c
  4612   004078  D002               	bra	u3535
  4613   00407A  9C7B               	bcf	123,6,c	;volatile
  4614   00407C  D001               	bra	u3536
  4615   00407E                     u3535:
  4616   00407E  8C7B               	bsf	123,6,c	;volatile
  4617   004080                     u3536:
  4618   004080                     
  4619                           ;LCD.c: 41:     LCD_sendnibble(Byte >> 4);
  4620   004080  3806               	swapf	LCD_sendbyte@Byte^0,w,c
  4621   004082  0B0F               	andlw	15
  4622   004084  EC37  F01E         	call	_LCD_sendnibble
  4623   004088                     
  4624                           ;LCD.c: 42:     _delay((unsigned long)((50)*(64000000/4000000.0)));
  4625   004088  0EA0               	movlw	160
  4626   00408A                     u5287:
  4627   00408A  D000               	nop2	
  4628   00408C  2EE8               	decfsz	wreg,f,c
  4629   00408E  D7FD               	bra	u5287
  4630   004090                     
  4631                           ;LCD.c: 44:  LCD_sendnibble(Byte);
  4632   004090  5006               	movf	LCD_sendbyte@Byte^0,w,c
  4633   004092  EC37  F01E         	call	_LCD_sendnibble
  4634   004096                     
  4635                           ;LCD.c: 45:     _delay((unsigned long)((50)*(64000000/4000000.0)));
  4636   004096  0EA0               	movlw	160
  4637   004098                     u5297:
  4638   004098  D000               	nop2	
  4639   00409A  2EE8               	decfsz	wreg,f,c
  4640   00409C  D7FD               	bra	u5297
  4641   00409E  0012               	return		;funcret
  4642   0040A0                     __end_of_LCD_sendbyte:
  4643                           	callstack 0
  4644                           
  4645 ;; *************** function _LCD_sendnibble *****************
  4646 ;; Defined at:
  4647 ;;		line 21 in file "LCD.c"
  4648 ;; Parameters:    Size  Location     Type
  4649 ;;  number          1    wreg     unsigned char 
  4650 ;; Auto vars:     Size  Location     Type
  4651 ;;  number          1    3[COMRAM] unsigned char 
  4652 ;; Return value:  Size  Location     Type
  4653 ;;                  1    wreg      void 
  4654 ;; Registers used:
  4655 ;;		wreg, cstack
  4656 ;; Tracked objects:
  4657 ;;		On entry : 0/0
  4658 ;;		On exit  : 0/0
  4659 ;;		Unchanged: 0/0
  4660 ;; Data sizes:     COMRAM   BANK0   BANK1   BANK2   BANK3   BANK4   BANK5   BANK6   BANK7   BANK8   BANK9  BANK10  BANK1
      +1  BANK12  BANK13
  4661 ;;      Params:         0       0       0       0       0       0       0       0       0       0       0       0       
      +0       0       0
  4662 ;;      Locals:         1       0       0       0       0       0       0       0       0       0       0       0       
      +0       0       0
  4663 ;;      Temps:          0       0       0       0       0       0       0       0       0       0       0       0       
      +0       0       0
  4664 ;;      Totals:         1       0       0       0       0       0       0       0       0       0       0       0       
      +0       0       0
  4665 ;;Total ram usage:        1 bytes
  4666 ;; Hardware stack levels used: 1
  4667 ;; Hardware stack levels required when called: 3
  4668 ;; This function calls:
  4669 ;;		_LCD_E_TOG
  4670 ;; This function is called by:
  4671 ;;		_LCD_sendbyte
  4672 ;;		_LCD_Init
  4673 ;; This function uses a non-reentrant model
  4674 ;;
  4675                           
  4676                           	psect	text28
  4677   003C6E                     __ptext28:
  4678                           	callstack 0
  4679   003C6E                     _LCD_sendnibble:
  4680                           	callstack 24
  4681                           
  4682                           ;incstack = 0
  4683                           ;LCD_sendnibble@number stored from wreg
  4684   003C6E  6E04               	movwf	LCD_sendnibble@number^0,c
  4685   003C70                     
  4686                           ;LCD.c: 21: void LCD_sendnibble(unsigned char number);LCD.c: 22: {;LCD.c: 24:     if (nu
      +                          mber & 0b000000001) LATBbits.LATB3 = 1; else LATBbits.LATB3 = 0;
  4687   003C70  A004               	btfss	LCD_sendnibble@number^0,0,c
  4688   003C72  EF3D  F01E         	goto	u3071
  4689   003C76  EF3F  F01E         	goto	u3070
  4690   003C7A                     u3071:
  4691   003C7A  EF42  F01E         	goto	l42
  4692   003C7E                     u3070:
  4693   003C7E  867A               	bsf	122,3,c	;volatile
  4694   003C80  EF43  F01E         	goto	l3128
  4695   003C84                     l42:
  4696   003C84  967A               	bcf	122,3,c	;volatile
  4697   003C86                     l3128:
  4698                           
  4699                           ;LCD.c: 25:     if (number & 0b000000010) LATBbits.LATB2 = 1; else LATBbits.LATB2 = 0;
  4700   003C86  A204               	btfss	LCD_sendnibble@number^0,1,c
  4701   003C88  EF48  F01E         	goto	u3081
  4702   003C8C  EF4A  F01E         	goto	u3080
  4703   003C90                     u3081:
  4704   003C90  EF4D  F01E         	goto	l44
  4705   003C94                     u3080:
  4706   003C94  847A               	bsf	122,2,c	;volatile
  4707   003C96  EF4E  F01E         	goto	l3132
  4708   003C9A                     l44:
  4709   003C9A  947A               	bcf	122,2,c	;volatile
  4710   003C9C                     l3132:
  4711                           
  4712                           ;LCD.c: 26:     if (number & 0b000000100) LATEbits.LATE3 = 1; else LATEbits.LATE3 = 0;
  4713   003C9C  A404               	btfss	LCD_sendnibble@number^0,2,c
  4714   003C9E  EF53  F01E         	goto	u3091
  4715   003CA2  EF55  F01E         	goto	u3090
  4716   003CA6                     u3091:
  4717   003CA6  EF58  F01E         	goto	l46
  4718   003CAA                     u3090:
  4719   003CAA  867D               	bsf	125,3,c	;volatile
  4720   003CAC  EF59  F01E         	goto	l3136
  4721   003CB0                     l46:
  4722   003CB0  967D               	bcf	125,3,c	;volatile
  4723   003CB2                     l3136:
  4724                           
  4725                           ;LCD.c: 27:     if (number & 0b000001000) LATEbits.LATE1 = 1; else LATEbits.LATE1 = 0;
  4726   003CB2  A604               	btfss	LCD_sendnibble@number^0,3,c
  4727   003CB4  EF5E  F01E         	goto	u3101
  4728   003CB8  EF60  F01E         	goto	u3100
  4729   003CBC                     u3101:
  4730   003CBC  EF63  F01E         	goto	l48
  4731   003CC0                     u3100:
  4732   003CC0  827D               	bsf	125,1,c	;volatile
  4733   003CC2  EF64  F01E         	goto	l3140
  4734   003CC6                     l48:
  4735   003CC6  927D               	bcf	125,1,c	;volatile
  4736   003CC8                     l3140:
  4737                           
  4738                           ;LCD.c: 28:     LCD_E_TOG();
  4739   003CC8  ECC6  F020         	call	_LCD_E_TOG	;wreg free
  4740   003CCC                     
  4741                           ;LCD.c: 29:     _delay((unsigned long)((50)*(64000000/4000000.0)));
  4742   003CCC  0EA0               	movlw	160
  4743   003CCE                     u5307:
  4744   003CCE  D000               	nop2	
  4745   003CD0  2EE8               	decfsz	wreg,f,c
  4746   003CD2  D7FD               	bra	u5307
  4747   003CD4  0012               	return		;funcret
  4748   003CD6                     __end_of_LCD_sendnibble:
  4749                           	callstack 0
  4750                           
  4751 ;; *************** function _LCD_E_TOG *****************
  4752 ;; Defined at:
  4753 ;;		line 9 in file "LCD.c"
  4754 ;; Parameters:    Size  Location     Type
  4755 ;;		None
  4756 ;; Auto vars:     Size  Location     Type
  4757 ;;		None
  4758 ;; Return value:  Size  Location     Type
  4759 ;;                  1    wreg      void 
  4760 ;; Registers used:
  4761 ;;		wreg
  4762 ;; Tracked objects:
  4763 ;;		On entry : 0/0
  4764 ;;		On exit  : 0/0
  4765 ;;		Unchanged: 0/0
  4766 ;; Data sizes:     COMRAM   BANK0   BANK1   BANK2   BANK3   BANK4   BANK5   BANK6   BANK7   BANK8   BANK9  BANK10  BANK1
      +1  BANK12  BANK13
  4767 ;;      Params:         0       0       0       0       0       0       0       0       0       0       0       0       
      +0       0       0
  4768 ;;      Locals:         0       0       0       0       0       0       0       0       0       0       0       0       
      +0       0       0
  4769 ;;      Temps:          0       0       0       0       0       0       0       0       0       0       0       0       
      +0       0       0
  4770 ;;      Totals:         0       0       0       0       0       0       0       0       0       0       0       0       
      +0       0       0
  4771 ;;Total ram usage:        0 bytes
  4772 ;; Hardware stack levels used: 1
  4773 ;; Hardware stack levels required when called: 2
  4774 ;; This function calls:
  4775 ;;		Nothing
  4776 ;; This function is called by:
  4777 ;;		_LCD_sendnibble
  4778 ;; This function uses a non-reentrant model
  4779 ;;
  4780                           
  4781                           	psect	text29
  4782   00418C                     __ptext29:
  4783                           	callstack 0
  4784   00418C                     _LCD_E_TOG:
  4785                           	callstack 24
  4786   00418C                     
  4787                           ;LCD.c: 12:     LATCbits.LATC2 = 1;
  4788   00418C  847B               	bsf	123,2,c	;volatile
  4789   00418E                     
  4790                           ;LCD.c: 13:  _delay((unsigned long)((5)*(64000000/4000000.0)));
  4791   00418E  0E1A               	movlw	26
  4792   004190                     u5317:
  4793   004190  2EE8               	decfsz	wreg,f,c
  4794   004192  D7FE               	bra	u5317
  4795   004194  D000               	nop2	
  4796   004196                     
  4797                           ;LCD.c: 15:     LATCbits.LATC2 = 0;
  4798   004196  947B               	bcf	123,2,c	;volatile
  4799   004198  0012               	return		;funcret
  4800   00419A                     __end_of_LCD_E_TOG:
  4801                           	callstack 0
  4802                           
  4803 ;; *************** function _Interrupts_init *****************
  4804 ;; Defined at:
  4805 ;;		line 10 in file "interrupts.c"
  4806 ;; Parameters:    Size  Location     Type
  4807 ;;		None
  4808 ;; Auto vars:     Size  Location     Type
  4809 ;;		None
  4810 ;; Return value:  Size  Location     Type
  4811 ;;                  1    wreg      void 
  4812 ;; Registers used:
  4813 ;;		None
  4814 ;; Tracked objects:
  4815 ;;		On entry : 0/0
  4816 ;;		On exit  : 0/0
  4817 ;;		Unchanged: 0/0
  4818 ;; Data sizes:     COMRAM   BANK0   BANK1   BANK2   BANK3   BANK4   BANK5   BANK6   BANK7   BANK8   BANK9  BANK10  BANK1
      +1  BANK12  BANK13
  4819 ;;      Params:         0       0       0       0       0       0       0       0       0       0       0       0       
      +0       0       0
  4820 ;;      Locals:         0       0       0       0       0       0       0       0       0       0       0       0       
      +0       0       0
  4821 ;;      Temps:          0       0       0       0       0       0       0       0       0       0       0       0       
      +0       0       0
  4822 ;;      Totals:         0       0       0       0       0       0       0       0       0       0       0       0       
      +0       0       0
  4823 ;;Total ram usage:        0 bytes
  4824 ;; Hardware stack levels used: 1
  4825 ;; Hardware stack levels required when called: 2
  4826 ;; This function calls:
  4827 ;;		Nothing
  4828 ;; This function is called by:
  4829 ;;		_main
  4830 ;; This function uses a non-reentrant model
  4831 ;;
  4832                           
  4833                           	psect	text30
  4834   00410C                     __ptext30:
  4835                           	callstack 0
  4836   00410C                     _Interrupts_init:
  4837                           	callstack 28
  4838   00410C                     
  4839                           ;interrupts.c: 14:     PIE0bits.TMR0IE=1;
  4840   00410C  010E               	movlb	14	; () banked
  4841   00410E  8B29               	bsf	41,5,b	;volatile
  4842                           
  4843                           ;interrupts.c: 15:     PIE2bits.C1IE=1;
  4844   004110  812B               	bsf	43,0,b	;volatile
  4845                           
  4846                           ;interrupts.c: 17:     IPR2bits.C1IP = 1;
  4847   004112  8121               	bsf	33,0,b	;volatile
  4848                           
  4849                           ;interrupts.c: 18:     IPR0bits.TMR0IP = 0;
  4850   004114  9B1F               	bcf	31,5,b	;volatile
  4851                           
  4852                           ;interrupts.c: 19:     INTCONbits.IPEN=1;
  4853   004116  8AF2               	bsf	242,5,c	;volatile
  4854                           
  4855                           ;interrupts.c: 20:     INTCONbits.GIE=1;
  4856   004118  8EF2               	bsf	242,7,c	;volatile
  4857                           
  4858                           ;interrupts.c: 21:     INTCONbits.PEIE = 1;
  4859   00411A  8CF2               	bsf	242,6,c	;volatile
  4860                           
  4861                           ;interrupts.c: 24:     TRISDbits.TRISD7=0;
  4862   00411C  9E84               	bcf	132,7,c	;volatile
  4863                           
  4864                           ;interrupts.c: 25:     LATDbits.LATD7 = 0;
  4865   00411E  9E7C               	bcf	124,7,c	;volatile
  4866                           
  4867                           ;interrupts.c: 26:     TRISDbits.TRISD4=0;
  4868   004120  9884               	bcf	132,4,c	;volatile
  4869                           
  4870                           ;interrupts.c: 27:     LATDbits.LATD4 = 0;
  4871   004122  987C               	bcf	124,4,c	;volatile
  4872   004124                     
  4873                           ; BSR set to: 14
  4874   004124  0012               	return		;funcret
  4875   004126                     __end_of_Interrupts_init:
  4876                           	callstack 0
  4877                           
  4878 ;; *************** function _Comp1_init *****************
  4879 ;; Defined at:
  4880 ;;		line 22 in file "comparator.c"
  4881 ;; Parameters:    Size  Location     Type
  4882 ;;		None
  4883 ;; Auto vars:     Size  Location     Type
  4884 ;;		None
  4885 ;; Return value:  Size  Location     Type
  4886 ;;                  1    wreg      void 
  4887 ;; Registers used:
  4888 ;;		wreg, status,2, cstack
  4889 ;; Tracked objects:
  4890 ;;		On entry : 0/0
  4891 ;;		On exit  : 0/0
  4892 ;;		Unchanged: 0/0
  4893 ;; Data sizes:     COMRAM   BANK0   BANK1   BANK2   BANK3   BANK4   BANK5   BANK6   BANK7   BANK8   BANK9  BANK10  BANK1
      +1  BANK12  BANK13
  4894 ;;      Params:         0       0       0       0       0       0       0       0       0       0       0       0       
      +0       0       0
  4895 ;;      Locals:         0       0       0       0       0       0       0       0       0       0       0       0       
      +0       0       0
  4896 ;;      Temps:          0       0       0       0       0       0       0       0       0       0       0       0       
      +0       0       0
  4897 ;;      Totals:         0       0       0       0       0       0       0       0       0       0       0       0       
      +0       0       0
  4898 ;;Total ram usage:        0 bytes
  4899 ;; Hardware stack levels used: 1
  4900 ;; Hardware stack levels required when called: 3
  4901 ;; This function calls:
  4902 ;;		_DAC_init
  4903 ;; This function is called by:
  4904 ;;		_main
  4905 ;; This function uses a non-reentrant model
  4906 ;;
  4907                           
  4908                           	psect	text31
  4909   0040A0                     __ptext31:
  4910                           	callstack 0
  4911   0040A0                     _Comp1_init:
  4912                           	callstack 27
  4913   0040A0                     
  4914                           ;comparator.c: 24:     TRISFbits.TRISF7=1;
  4915   0040A0  8E86               	bsf	134,7,c	;volatile
  4916   0040A2                     
  4917                           ;comparator.c: 25:     CM1NCHbits.NCH=0b011;
  4918   0040A2  010E               	movlb	14	; () banked
  4919   0040A4  51D2               	movf	210,w,b	;volatile
  4920   0040A6  0BF8               	andlw	-8
  4921   0040A8  0903               	iorlw	3
  4922   0040AA  6FD2               	movwf	210,b	;volatile
  4923                           
  4924                           ;comparator.c: 26:     CM1PCHbits.PCH=0b101;
  4925   0040AC  51D3               	movf	211,w,b	;volatile
  4926   0040AE  0BF8               	andlw	-8
  4927   0040B0  0905               	iorlw	5
  4928   0040B2  6FD3               	movwf	211,b	;volatile
  4929   0040B4                     
  4930                           ; BSR set to: 14
  4931                           ;comparator.c: 27:     CM1CON0bits.HYS=1;
  4932   0040B4  83D0               	bsf	208,1,b	;volatile
  4933   0040B6                     
  4934                           ; BSR set to: 14
  4935                           ;comparator.c: 28:     CM1CON0bits.POL=1;
  4936   0040B6  89D0               	bsf	208,4,b	;volatile
  4937   0040B8                     
  4938                           ; BSR set to: 14
  4939                           ;comparator.c: 29:     CM1CON1bits.INTP=1;
  4940   0040B8  83D1               	bsf	209,1,b	;volatile
  4941   0040BA                     
  4942                           ; BSR set to: 14
  4943                           ;comparator.c: 30:     CM1CON1bits.INTN=1;
  4944   0040BA  81D1               	bsf	209,0,b	;volatile
  4945   0040BC                     
  4946                           ; BSR set to: 14
  4947                           ;comparator.c: 31:     DAC_init();
  4948   0040BC  ECAC  F020         	call	_DAC_init	;wreg free
  4949   0040C0                     
  4950                           ;comparator.c: 32:     CM1CON0bits.EN=1;
  4951   0040C0  010E               	movlb	14	; () banked
  4952   0040C2  8FD0               	bsf	208,7,b	;volatile
  4953   0040C4                     
  4954                           ; BSR set to: 14
  4955   0040C4  0012               	return		;funcret
  4956   0040C6                     __end_of_Comp1_init:
  4957                           	callstack 0
  4958                           
  4959 ;; *************** function _DAC_init *****************
  4960 ;; Defined at:
  4961 ;;		line 7 in file "comparator.c"
  4962 ;; Parameters:    Size  Location     Type
  4963 ;;		None
  4964 ;; Auto vars:     Size  Location     Type
  4965 ;;		None
  4966 ;; Return value:  Size  Location     Type
  4967 ;;                  1    wreg      void 
  4968 ;; Registers used:
  4969 ;;		wreg, status,2
  4970 ;; Tracked objects:
  4971 ;;		On entry : 0/0
  4972 ;;		On exit  : 0/0
  4973 ;;		Unchanged: 0/0
  4974 ;; Data sizes:     COMRAM   BANK0   BANK1   BANK2   BANK3   BANK4   BANK5   BANK6   BANK7   BANK8   BANK9  BANK10  BANK1
      +1  BANK12  BANK13
  4975 ;;      Params:         0       0       0       0       0       0       0       0       0       0       0       0       
      +0       0       0
  4976 ;;      Locals:         0       0       0       0       0       0       0       0       0       0       0       0       
      +0       0       0
  4977 ;;      Temps:          0       0       0       0       0       0       0       0       0       0       0       0       
      +0       0       0
  4978 ;;      Totals:         0       0       0       0       0       0       0       0       0       0       0       0       
      +0       0       0
  4979 ;;Total ram usage:        0 bytes
  4980 ;; Hardware stack levels used: 1
  4981 ;; Hardware stack levels required when called: 2
  4982 ;; This function calls:
  4983 ;;		Nothing
  4984 ;; This function is called by:
  4985 ;;		_Comp1_init
  4986 ;; This function uses a non-reentrant model
  4987 ;;
  4988                           
  4989                           	psect	text32
  4990   004158                     __ptext32:
  4991                           	callstack 0
  4992   004158                     _DAC_init:
  4993                           	callstack 27
  4994   004158                     
  4995                           ;comparator.c: 9:     DAC1CON0bits.PSS=0b00;
  4996   004158  0EF3               	movlw	-13
  4997   00415A  010E               	movlb	14	; () banked
  4998   00415C  17C6               	andwf	198,f,b	;volatile
  4999   00415E                     
  5000                           ; BSR set to: 14
  5001                           ;comparator.c: 10:     DAC1CON0bits.NSS=0b0;
  5002   00415E  91C6               	bcf	198,0,b	;volatile
  5003                           
  5004                           ;comparator.c: 14:     DAC1CON1bits.DAC1R=0b11011;
  5005   004160  51C7               	movf	199,w,b	;volatile
  5006   004162  0BE0               	andlw	-32
  5007   004164  091B               	iorlw	27
  5008   004166  6FC7               	movwf	199,b	;volatile
  5009   004168                     
  5010                           ; BSR set to: 14
  5011                           ;comparator.c: 15:     DAC1CON0bits.DAC1EN=1;
  5012   004168  8FC6               	bsf	198,7,b	;volatile
  5013   00416A                     
  5014                           ; BSR set to: 14
  5015   00416A  0012               	return		;funcret
  5016   00416C                     __end_of_DAC_init:
  5017                           	callstack 0
  5018                           
  5019 ;; *************** function _Callibrate *****************
  5020 ;; Defined at:
  5021 ;;		line 47 in file "datetime.c"
  5022 ;; Parameters:    Size  Location     Type
  5023 ;;		None
  5024 ;; Auto vars:     Size  Location     Type
  5025 ;;		None
  5026 ;; Return value:  Size  Location     Type
  5027 ;;                  1    wreg      void 
  5028 ;; Registers used:
  5029 ;;		wreg, fsr2l, fsr2h, status,2, status,0, prodl, prodh, cstack
  5030 ;; Tracked objects:
  5031 ;;		On entry : 0/0
  5032 ;;		On exit  : 0/0
  5033 ;;		Unchanged: 0/0
  5034 ;; Data sizes:     COMRAM   BANK0   BANK1   BANK2   BANK3   BANK4   BANK5   BANK6   BANK7   BANK8   BANK9  BANK10  BANK1
      +1  BANK12  BANK13
  5035 ;;      Params:         0       0       0       0       0       0       0       0       0       0       0       0       
      +0       0       0
  5036 ;;      Locals:         0      22       0       0       0       0       0       0       0       0       0       0       
      +0       0       0
  5037 ;;      Temps:          0       4       0       0       0       0       0       0       0       0       0       0       
      +0       0       0
  5038 ;;      Totals:         0      26       0       0       0       0       0       0       0       0       0       0       
      +0       0       0
  5039 ;;Total ram usage:       26 bytes
  5040 ;; Hardware stack levels used: 1
  5041 ;; Hardware stack levels required when called: 6
  5042 ;; This function calls:
  5043 ;;		___fladd
  5044 ;;		___fldiv
  5045 ;;		___flmul
  5046 ;;		___flsub
  5047 ;;		___fltol
  5048 ;;		___lwdiv
  5049 ;;		___lwmod
  5050 ;;		___wmul
  5051 ;;		___xxtofl
  5052 ;;		_sinf
  5053 ;; This function is called by:
  5054 ;;		_main
  5055 ;; This function uses a non-reentrant model
  5056 ;;
  5057                           
  5058                           	psect	text33
  5059   001C66                     __ptext33:
  5060                           	callstack 0
  5061   001C66                     _Callibrate:
  5062                           	callstack 24
  5063   001C66                     
  5064                           ;datetime.c: 48:     if (LATDbits.LATD7)
  5065   001C66  AE7C               	btfss	124,7,c	;volatile
  5066   001C68  EF38  F00E         	goto	u5121
  5067   001C6C  EF3A  F00E         	goto	u5120
  5068   001C70                     u5121:
  5069   001C70  EF1C  F010         	goto	l209
  5070   001C74                     u5120:
  5071   001C74                     
  5072                           ;datetime.c: 49:     {;datetime.c: 50:         if (hour < 12) {sunrisetime = hour*60 + m
      +                          inute;}
  5073   001C74  0100               	movlb	0	; () banked
  5074   001C76  51F9               	movf	(_hour+1)& (0+255),w,b
  5075   001C78  E107               	bnz	u5131
  5076   001C7A  0E0C               	movlw	12
  5077   001C7C  5DF8               	subwf	_hour& (0+255),w,b
  5078   001C7E  B0D8               	btfsc	status,0,c
  5079   001C80  EF44  F00E         	goto	u5131
  5080   001C84  EF46  F00E         	goto	u5130
  5081   001C88                     u5131:
  5082   001C88  EF57  F00E         	goto	l4540
  5083   001C8C                     u5130:
  5084   001C8C                     
  5085                           ; BSR set to: 0
  5086   001C8C  C0F8  F008         	movff	_hour,___wmul@multiplier
  5087   001C90  C0F9  F009         	movff	_hour+1,___wmul@multiplier+1
  5088   001C94  0E00               	movlw	0
  5089   001C96  6E0B               	movwf	(___wmul@multiplicand+1)^0,c
  5090   001C98  0E3C               	movlw	60
  5091   001C9A  6E0A               	movwf	___wmul@multiplicand^0,c
  5092   001C9C  EC63  F020         	call	___wmul	;wreg free
  5093   001CA0  0100               	movlb	0	; () banked
  5094   001CA2  51FA               	movf	_minute& (0+255),w,b
  5095   001CA4  2408               	addwf	?___wmul^0,w,c
  5096   001CA6  6FF0               	movwf	_sunrisetime& (0+255),b
  5097   001CA8  51FB               	movf	(_minute+1)& (0+255),w,b
  5098   001CAA  2009               	addwfc	(?___wmul+1)^0,w,c
  5099   001CAC  6FF1               	movwf	(_sunrisetime+1)& (0+255),b
  5100   001CAE                     l4540:
  5101                           
  5102                           ; BSR set to: 0
  5103                           ;datetime.c: 51:         if (hour > 12) {sunsettime = hour*60 + minute;
  5104   001CAE  51F9               	movf	(_hour+1)& (0+255),w,b
  5105   001CB0  E109               	bnz	u5140
  5106   001CB2  0E0D               	movlw	13
  5107   001CB4  5DF8               	subwf	_hour& (0+255),w,b
  5108   001CB6  A0D8               	btfss	status,0,c
  5109   001CB8  EF60  F00E         	goto	u5141
  5110   001CBC  EF62  F00E         	goto	u5140
  5111   001CC0                     u5141:
  5112   001CC0  EF1C  F010         	goto	l209
  5113   001CC4                     u5140:
  5114   001CC4                     
  5115                           ; BSR set to: 0
  5116   001CC4  C0F8  F008         	movff	_hour,___wmul@multiplier
  5117   001CC8  C0F9  F009         	movff	_hour+1,___wmul@multiplier+1
  5118   001CCC  0E00               	movlw	0
  5119   001CCE  6E0B               	movwf	(___wmul@multiplicand+1)^0,c
  5120   001CD0  0E3C               	movlw	60
  5121   001CD2  6E0A               	movwf	___wmul@multiplicand^0,c
  5122   001CD4  EC63  F020         	call	___wmul	;wreg free
  5123   001CD8  0100               	movlb	0	; () banked
  5124   001CDA  51FA               	movf	_minute& (0+255),w,b
  5125   001CDC  2408               	addwf	?___wmul^0,w,c
  5126   001CDE  6FEA               	movwf	_sunsettime& (0+255),b
  5127   001CE0  51FB               	movf	(_minute+1)& (0+255),w,b
  5128   001CE2  2009               	addwfc	(?___wmul+1)^0,w,c
  5129   001CE4  6FEB               	movwf	(_sunsettime+1)& (0+255),b
  5130                           
  5131                           ;datetime.c: 53:             EoT = 9.87 * sinf(2 * ((360 * (day - 81) / 365.0) * 3.14159
      +                          265358979323846 / 180)) - 7.67 * sinf((360 * (day - 81) / 365.0 + 78.7) * 3.141592653589
      +                          79323846 / 180);
  5132   001CE6  0EDB               	movlw	219
  5133   001CE8  6E49               	movwf	___flmul@a^0,c
  5134   001CEA  0E0F               	movlw	15
  5135   001CEC  6E4A               	movwf	(___flmul@a+1)^0,c
  5136   001CEE  0E49               	movlw	73
  5137   001CF0  6E4B               	movwf	(___flmul@a+2)^0,c
  5138   001CF2  0E40               	movlw	64
  5139   001CF4  6E4C               	movwf	(___flmul@a+3)^0,c
  5140   001CF6  0E66               	movlw	102
  5141   001CF8  6E39               	movwf	___fladd@a^0,c
  5142   001CFA  0E66               	movlw	102
  5143   001CFC  6E3A               	movwf	(___fladd@a+1)^0,c
  5144   001CFE  0E9D               	movlw	157
  5145   001D00  6E3B               	movwf	(___fladd@a+2)^0,c
  5146   001D02  0E42               	movlw	66
  5147   001D04  6E3C               	movwf	(___fladd@a+3)^0,c
  5148   001D06  0E00               	movlw	0
  5149   001D08  6E20               	movwf	___fldiv@a^0,c
  5150   001D0A  0E80               	movlw	128
  5151   001D0C  6E21               	movwf	(___fldiv@a+1)^0,c
  5152   001D0E  0EB6               	movlw	182
  5153   001D10  6E22               	movwf	(___fldiv@a+2)^0,c
  5154   001D12  0E43               	movlw	67
  5155   001D14  6E23               	movwf	(___fldiv@a+3)^0,c
  5156   001D16  0E01               	movlw	1
  5157   001D18  6E0B               	movwf	(___wmul@multiplicand+1)^0,c
  5158   001D1A  0E68               	movlw	104
  5159   001D1C  6E0A               	movwf	___wmul@multiplicand^0,c
  5160   001D1E  0EAF               	movlw	175
  5161   001D20  25F6               	addwf	_day& (0+255),w,b
  5162   001D22  6E08               	movwf	___wmul@multiplier^0,c
  5163   001D24  0EFF               	movlw	255
  5164   001D26  21F7               	addwfc	(_day+1)& (0+255),w,b
  5165   001D28  6E09               	movwf	(___wmul@multiplier+1)^0,c
  5166   001D2A  EC63  F020         	call	___wmul	;wreg free
  5167   001D2E  C008  F00E         	movff	?___wmul,___xxtofl@val
  5168   001D32  C009  F00F         	movff	?___wmul+1,___xxtofl@val+1
  5169   001D36  6A10               	clrf	(___xxtofl@val+2)^0,c
  5170   001D38  6A11               	clrf	(___xxtofl@val+3)^0,c
  5171   001D3A  0E00               	movlw	0
  5172   001D3C  ECC9  F016         	call	___xxtofl
  5173   001D40  C00E  F01C         	movff	?___xxtofl,___fldiv@b
  5174   001D44  C00F  F01D         	movff	?___xxtofl+1,___fldiv@b+1
  5175   001D48  C010  F01E         	movff	?___xxtofl+2,___fldiv@b+2
  5176   001D4C  C011  F01F         	movff	?___xxtofl+3,___fldiv@b+3
  5177   001D50  ECFE  F011         	call	___fldiv	;wreg free
  5178   001D54  C01C  F035         	movff	?___fldiv,___fladd@b
  5179   001D58  C01D  F036         	movff	?___fldiv+1,___fladd@b+1
  5180   001D5C  C01E  F037         	movff	?___fldiv+2,___fladd@b+2
  5181   001D60  C01F  F038         	movff	?___fldiv+3,___fladd@b+3
  5182   001D64  ECBD  F009         	call	___fladd	;wreg free
  5183   001D68  C035  F045         	movff	?___fladd,___flmul@b
  5184   001D6C  C036  F046         	movff	?___fladd+1,___flmul@b+1
  5185   001D70  C037  F047         	movff	?___fladd+2,___flmul@b+2
  5186   001D74  C038  F048         	movff	?___fladd+3,___flmul@b+3
  5187   001D78  EC1D  F00C         	call	___flmul	;wreg free
  5188   001D7C  C045  F0C5         	movff	?___flmul,_Callibrate$2456
  5189   001D80  C046  F0C6         	movff	?___flmul+1,_Callibrate$2456+1
  5190   001D84  C047  F0C7         	movff	?___flmul+2,_Callibrate$2456+2
  5191   001D88  C048  F0C8         	movff	?___flmul+3,_Callibrate$2456+3
  5192   001D8C                     
  5193                           ;datetime.c: 53:             EoT = 9.87 * sinf(2 * ((360 * (day - 81) / 365.0) * 3.14159
      +                          265358979323846 / 180)) - 7.67 * sinf((360 * (day - 81) / 365.0 + 78.7) * 3.141592653589
      +                          79323846 / 180);
  5194   001D8C  0E00               	movlw	0
  5195   001D8E  6E20               	movwf	___fldiv@a^0,c
  5196   001D90  0E00               	movlw	0
  5197   001D92  6E21               	movwf	(___fldiv@a+1)^0,c
  5198   001D94  0E34               	movlw	52
  5199   001D96  6E22               	movwf	(___fldiv@a+2)^0,c
  5200   001D98  0E43               	movlw	67
  5201   001D9A  6E23               	movwf	(___fldiv@a+3)^0,c
  5202   001D9C  C0C5  F01C         	movff	_Callibrate$2456,___fldiv@b
  5203   001DA0  C0C6  F01D         	movff	_Callibrate$2456+1,___fldiv@b+1
  5204   001DA4  C0C7  F01E         	movff	_Callibrate$2456+2,___fldiv@b+2
  5205   001DA8  C0C8  F01F         	movff	_Callibrate$2456+3,___fldiv@b+3
  5206   001DAC  ECFE  F011         	call	___fldiv	;wreg free
  5207   001DB0  C01C  F0A5         	movff	?___fldiv,sinf@x
  5208   001DB4  C01D  F0A6         	movff	?___fldiv+1,sinf@x+1
  5209   001DB8  C01E  F0A7         	movff	?___fldiv+2,sinf@x+2
  5210   001DBC  C01F  F0A8         	movff	?___fldiv+3,sinf@x+3
  5211   001DC0  EC2E  F007         	call	_sinf	;wreg free
  5212   001DC4  C0A5  F0C9         	movff	?_sinf,_Callibrate$2457
  5213   001DC8  C0A6  F0CA         	movff	?_sinf+1,_Callibrate$2457+1
  5214   001DCC  C0A7  F0CB         	movff	?_sinf+2,_Callibrate$2457+2
  5215   001DD0  C0A8  F0CC         	movff	?_sinf+3,_Callibrate$2457+3
  5216   001DD4                     
  5217                           ;datetime.c: 53:             EoT = 9.87 * sinf(2 * ((360 * (day - 81) / 365.0) * 3.14159
      +                          265358979323846 / 180)) - 7.67 * sinf((360 * (day - 81) / 365.0 + 78.7) * 3.141592653589
      +                          79323846 / 180);
  5218   001DD4  0EDB               	movlw	219
  5219   001DD6  6E49               	movwf	___flmul@a^0,c
  5220   001DD8  0E0F               	movlw	15
  5221   001DDA  6E4A               	movwf	(___flmul@a+1)^0,c
  5222   001DDC  0E49               	movlw	73
  5223   001DDE  6E4B               	movwf	(___flmul@a+2)^0,c
  5224   001DE0  0E40               	movlw	64
  5225   001DE2  6E4C               	movwf	(___flmul@a+3)^0,c
  5226   001DE4  0E00               	movlw	0
  5227   001DE6  6E20               	movwf	___fldiv@a^0,c
  5228   001DE8  0E80               	movlw	128
  5229   001DEA  6E21               	movwf	(___fldiv@a+1)^0,c
  5230   001DEC  0EB6               	movlw	182
  5231   001DEE  6E22               	movwf	(___fldiv@a+2)^0,c
  5232   001DF0  0E43               	movlw	67
  5233   001DF2  6E23               	movwf	(___fldiv@a+3)^0,c
  5234   001DF4  0EAF               	movlw	175
  5235   001DF6  0100               	movlb	0	; () banked
  5236   001DF8  25F6               	addwf	_day& (0+255),w,b
  5237   001DFA  6E08               	movwf	___wmul@multiplier^0,c
  5238   001DFC  0EFF               	movlw	255
  5239   001DFE  21F7               	addwfc	(_day+1)& (0+255),w,b
  5240   001E00  6E09               	movwf	(___wmul@multiplier+1)^0,c
  5241   001E02  0E01               	movlw	1
  5242   001E04  6E0B               	movwf	(___wmul@multiplicand+1)^0,c
  5243   001E06  0E68               	movlw	104
  5244   001E08  6E0A               	movwf	___wmul@multiplicand^0,c
  5245   001E0A  EC63  F020         	call	___wmul	;wreg free
  5246   001E0E  C008  F00E         	movff	?___wmul,___xxtofl@val
  5247   001E12  C009  F00F         	movff	?___wmul+1,___xxtofl@val+1
  5248   001E16  6A10               	clrf	(___xxtofl@val+2)^0,c
  5249   001E18  6A11               	clrf	(___xxtofl@val+3)^0,c
  5250   001E1A  0E00               	movlw	0
  5251   001E1C  ECC9  F016         	call	___xxtofl
  5252   001E20  C00E  F01C         	movff	?___xxtofl,___fldiv@b
  5253   001E24  C00F  F01D         	movff	?___xxtofl+1,___fldiv@b+1
  5254   001E28  C010  F01E         	movff	?___xxtofl+2,___fldiv@b+2
  5255   001E2C  C011  F01F         	movff	?___xxtofl+3,___fldiv@b+3
  5256   001E30  ECFE  F011         	call	___fldiv	;wreg free
  5257   001E34  C01C  F045         	movff	?___fldiv,___flmul@b
  5258   001E38  C01D  F046         	movff	?___fldiv+1,___flmul@b+1
  5259   001E3C  C01E  F047         	movff	?___fldiv+2,___flmul@b+2
  5260   001E40  C01F  F048         	movff	?___fldiv+3,___flmul@b+3
  5261   001E44  EC1D  F00C         	call	___flmul	;wreg free
  5262   001E48  C045  F0CD         	movff	?___flmul,_Callibrate$2458
  5263   001E4C  C046  F0CE         	movff	?___flmul+1,_Callibrate$2458+1
  5264   001E50  C047  F0CF         	movff	?___flmul+2,_Callibrate$2458+2
  5265   001E54  C048  F0D0         	movff	?___flmul+3,_Callibrate$2458+3
  5266   001E58                     
  5267                           ;datetime.c: 53:             EoT = 9.87 * sinf(2 * ((360 * (day - 81) / 365.0) * 3.14159
      +                          265358979323846 / 180)) - 7.67 * sinf((360 * (day - 81) / 365.0 + 78.7) * 3.141592653589
      +                          79323846 / 180);
  5268   001E58  0E00               	movlw	0
  5269   001E5A  6E49               	movwf	___flmul@a^0,c
  5270   001E5C  0E00               	movlw	0
  5271   001E5E  6E4A               	movwf	(___flmul@a+1)^0,c
  5272   001E60  0E00               	movlw	0
  5273   001E62  6E4B               	movwf	(___flmul@a+2)^0,c
  5274   001E64  0E40               	movlw	64
  5275   001E66  6E4C               	movwf	(___flmul@a+3)^0,c
  5276   001E68  0E00               	movlw	0
  5277   001E6A  6E20               	movwf	___fldiv@a^0,c
  5278   001E6C  0E00               	movlw	0
  5279   001E6E  6E21               	movwf	(___fldiv@a+1)^0,c
  5280   001E70  0E34               	movlw	52
  5281   001E72  6E22               	movwf	(___fldiv@a+2)^0,c
  5282   001E74  0E43               	movlw	67
  5283   001E76  6E23               	movwf	(___fldiv@a+3)^0,c
  5284   001E78  C0CD  F01C         	movff	_Callibrate$2458,___fldiv@b
  5285   001E7C  C0CE  F01D         	movff	_Callibrate$2458+1,___fldiv@b+1
  5286   001E80  C0CF  F01E         	movff	_Callibrate$2458+2,___fldiv@b+2
  5287   001E84  C0D0  F01F         	movff	_Callibrate$2458+3,___fldiv@b+3
  5288   001E88  ECFE  F011         	call	___fldiv	;wreg free
  5289   001E8C  C01C  F045         	movff	?___fldiv,___flmul@b
  5290   001E90  C01D  F046         	movff	?___fldiv+1,___flmul@b+1
  5291   001E94  C01E  F047         	movff	?___fldiv+2,___flmul@b+2
  5292   001E98  C01F  F048         	movff	?___fldiv+3,___flmul@b+3
  5293   001E9C  EC1D  F00C         	call	___flmul	;wreg free
  5294   001EA0  C045  F0D1         	movff	?___flmul,_Callibrate$2459
  5295   001EA4  C046  F0D2         	movff	?___flmul+1,_Callibrate$2459+1
  5296   001EA8  C047  F0D3         	movff	?___flmul+2,_Callibrate$2459+2
  5297   001EAC  C048  F0D4         	movff	?___flmul+3,_Callibrate$2459+3
  5298   001EB0                     
  5299                           ;datetime.c: 53:             EoT = 9.87 * sinf(2 * ((360 * (day - 81) / 365.0) * 3.14159
      +                          265358979323846 / 180)) - 7.67 * sinf((360 * (day - 81) / 365.0 + 78.7) * 3.141592653589
      +                          79323846 / 180);
  5300   001EB0  C0D1  F0A5         	movff	_Callibrate$2459,sinf@x
  5301   001EB4  C0D2  F0A6         	movff	_Callibrate$2459+1,sinf@x+1
  5302   001EB8  C0D3  F0A7         	movff	_Callibrate$2459+2,sinf@x+2
  5303   001EBC  C0D4  F0A8         	movff	_Callibrate$2459+3,sinf@x+3
  5304   001EC0  EC2E  F007         	call	_sinf	;wreg free
  5305   001EC4  C0A5  F0D5         	movff	?_sinf,_Callibrate$2460
  5306   001EC8  C0A6  F0D6         	movff	?_sinf+1,_Callibrate$2460+1
  5307   001ECC  C0A7  F0D7         	movff	?_sinf+2,_Callibrate$2460+2
  5308   001ED0  C0A8  F0D8         	movff	?_sinf+3,_Callibrate$2460+3
  5309                           
  5310                           ;datetime.c: 53:             EoT = 9.87 * sinf(2 * ((360 * (day - 81) / 365.0) * 3.14159
      +                          265358979323846 / 180)) - 7.67 * sinf((360 * (day - 81) / 365.0 + 78.7) * 3.141592653589
      +                          79323846 / 180);
  5311   001ED4  0EA4               	movlw	164
  5312   001ED6  6E49               	movwf	___flmul@a^0,c
  5313   001ED8  0E70               	movlw	112
  5314   001EDA  6E4A               	movwf	(___flmul@a+1)^0,c
  5315   001EDC  0EF5               	movlw	245
  5316   001EDE  6E4B               	movwf	(___flmul@a+2)^0,c
  5317   001EE0  0E40               	movlw	64
  5318   001EE2  6E4C               	movwf	(___flmul@a+3)^0,c
  5319   001EE4  C0C9  F045         	movff	_Callibrate$2457,___flmul@b
  5320   001EE8  C0CA  F046         	movff	_Callibrate$2457+1,___flmul@b+1
  5321   001EEC  C0CB  F047         	movff	_Callibrate$2457+2,___flmul@b+2
  5322   001EF0  C0CC  F048         	movff	_Callibrate$2457+3,___flmul@b+3
  5323   001EF4  EC1D  F00C         	call	___flmul	;wreg free
  5324   001EF8  C045  F055         	movff	?___flmul,___flsub@a
  5325   001EFC  C046  F056         	movff	?___flmul+1,___flsub@a+1
  5326   001F00  C047  F057         	movff	?___flmul+2,___flsub@a+2
  5327   001F04  C048  F058         	movff	?___flmul+3,___flsub@a+3
  5328   001F08  0E85               	movlw	133
  5329   001F0A  6E49               	movwf	___flmul@a^0,c
  5330   001F0C  0EEB               	movlw	235
  5331   001F0E  6E4A               	movwf	(___flmul@a+1)^0,c
  5332   001F10  0E1D               	movlw	29
  5333   001F12  6E4B               	movwf	(___flmul@a+2)^0,c
  5334   001F14  0E41               	movlw	65
  5335   001F16  6E4C               	movwf	(___flmul@a+3)^0,c
  5336   001F18  C0D5  F045         	movff	_Callibrate$2460,___flmul@b
  5337   001F1C  C0D6  F046         	movff	_Callibrate$2460+1,___flmul@b+1
  5338   001F20  C0D7  F047         	movff	_Callibrate$2460+2,___flmul@b+2
  5339   001F24  C0D8  F048         	movff	_Callibrate$2460+3,___flmul@b+3
  5340   001F28  EC1D  F00C         	call	___flmul	;wreg free
  5341   001F2C  C045  F051         	movff	?___flmul,___flsub@b
  5342   001F30  C046  F052         	movff	?___flmul+1,___flsub@b+1
  5343   001F34  C047  F053         	movff	?___flmul+2,___flsub@b+2
  5344   001F38  C048  F054         	movff	?___flmul+3,___flsub@b+3
  5345   001F3C  EC14  F01F         	call	___flsub	;wreg free
  5346   001F40  C051  F06D         	movff	?___flsub,___fltol@f1
  5347   001F44  C052  F06E         	movff	?___flsub+1,___fltol@f1+1
  5348   001F48  C053  F06F         	movff	?___flsub+2,___fltol@f1+2
  5349   001F4C  C054  F070         	movff	?___flsub+3,___fltol@f1+3
  5350   001F50  ECE8  F019         	call	___fltol	;wreg free
  5351   001F54  C06D  F0E4         	movff	?___fltol,_EoT
  5352   001F58  C06E  F0E5         	movff	?___fltol+1,_EoT+1
  5353   001F5C                     
  5354                           ;datetime.c: 54:             if (LATHbits.LATH0) {solarnoonminutes = 12*60 + 4*(longitud
      +                          e - longitudestz) - EoT + 1;}
  5355   001F5C  A080               	btfss	128,0,c	;volatile
  5356   001F5E  EFB3  F00F         	goto	u5151
  5357   001F62  EFB5  F00F         	goto	u5150
  5358   001F66                     u5151:
  5359   001F66  EFBE  F00F         	goto	l4556
  5360   001F6A                     u5150:
  5361   001F6A  0100               	movlb	0	; () banked
  5362   001F6C  51E4               	movf	_EoT& (0+255),w,b
  5363   001F6E  08D1               	sublw	209
  5364   001F70  6FE6               	movwf	_solarnoonminutes& (0+255),b
  5365   001F72  51E5               	movf	(_EoT+1)& (0+255),w,b
  5366   001F74  A0D8               	btfss	status,0,c
  5367   001F76  2AE8               	incf	wreg,f,c
  5368   001F78  0802               	sublw	2
  5369   001F7A  6FE7               	movwf	(_solarnoonminutes+1)& (0+255),b
  5370   001F7C                     l4556:
  5371                           
  5372                           ;datetime.c: 55:             if (!LATHbits.LATH0) {solarnoonminutes = 12*60 + 4*(longitu
      +                          de - longitudestz) - EoT;}
  5373   001F7C  B080               	btfsc	128,0,c	;volatile
  5374   001F7E  EFC3  F00F         	goto	u5161
  5375   001F82  EFC5  F00F         	goto	u5160
  5376   001F86                     u5161:
  5377   001F86  EFCE  F00F         	goto	l208
  5378   001F8A                     u5160:
  5379   001F8A  0100               	movlb	0	; () banked
  5380   001F8C  51E4               	movf	_EoT& (0+255),w,b
  5381   001F8E  08D0               	sublw	208
  5382   001F90  6FE6               	movwf	_solarnoonminutes& (0+255),b
  5383   001F92  51E5               	movf	(_EoT+1)& (0+255),w,b
  5384   001F94  A0D8               	btfss	status,0,c
  5385   001F96  2AE8               	incf	wreg,f,c
  5386   001F98  0802               	sublw	2
  5387   001F9A  6FE7               	movwf	(_solarnoonminutes+1)& (0+255),b
  5388   001F9C                     l208:
  5389                           
  5390                           ;datetime.c: 56:             difference = (sunsettime- sunrisetime)/2;
  5391   001F9C  0100               	movlb	0	; () banked
  5392   001F9E  51F0               	movf	_sunrisetime& (0+255),w,b
  5393   001FA0  5DEA               	subwf	_sunsettime& (0+255),w,b
  5394   001FA2  6FC1               	movwf	??_Callibrate& (0+255),b
  5395   001FA4  51F1               	movf	(_sunrisetime+1)& (0+255),w,b
  5396   001FA6  59EB               	subwfb	(_sunsettime+1)& (0+255),w,b
  5397   001FA8  6FC2               	movwf	(??_Callibrate+1)& (0+255),b
  5398   001FAA  90D8               	bcf	status,0,c
  5399   001FAC  31C2               	rrcf	(??_Callibrate+1)& (0+255),w,b
  5400   001FAE  6FC3               	movwf	(??_Callibrate+2)& (0+255),b
  5401   001FB0  31C1               	rrcf	??_Callibrate& (0+255),w,b
  5402   001FB2  6FE8               	movwf	_difference& (0+255),b
  5403   001FB4  C0C3  F0E9         	movff	??_Callibrate+2,_difference+1
  5404   001FB8                     
  5405                           ; BSR set to: 0
  5406                           ;datetime.c: 57:             hour =(solarnoonminutes + difference)/60;
  5407   001FB8  51E8               	movf	_difference& (0+255),w,b
  5408   001FBA  25E6               	addwf	_solarnoonminutes& (0+255),w,b
  5409   001FBC  6E0E               	movwf	___lwdiv@dividend^0,c
  5410   001FBE  51E9               	movf	(_difference+1)& (0+255),w,b
  5411   001FC0  21E7               	addwfc	(_solarnoonminutes+1)& (0+255),w,b
  5412   001FC2  6E0F               	movwf	(___lwdiv@dividend+1)^0,c
  5413   001FC4  0E00               	movlw	0
  5414   001FC6  6E11               	movwf	(___lwdiv@divisor+1)^0,c
  5415   001FC8  0E3C               	movlw	60
  5416   001FCA  6E10               	movwf	___lwdiv@divisor^0,c
  5417   001FCC  ECFD  F01D         	call	___lwdiv	;wreg free
  5418   001FD0  C00E  F0F8         	movff	?___lwdiv,_hour
  5419   001FD4  C00F  F0F9         	movff	?___lwdiv+1,_hour+1
  5420   001FD8                     
  5421                           ;datetime.c: 58:             minute = (solarnoonminutes + difference)%60;
  5422   001FD8  0100               	movlb	0	; () banked
  5423   001FDA  51E8               	movf	_difference& (0+255),w,b
  5424   001FDC  25E6               	addwf	_solarnoonminutes& (0+255),w,b
  5425   001FDE  6E04               	movwf	___lwmod@dividend^0,c
  5426   001FE0  51E9               	movf	(_difference+1)& (0+255),w,b
  5427   001FE2  21E7               	addwfc	(_solarnoonminutes+1)& (0+255),w,b
  5428   001FE4  6E05               	movwf	(___lwmod@dividend+1)^0,c
  5429   001FE6  0E00               	movlw	0
  5430   001FE8  6E07               	movwf	(___lwmod@divisor+1)^0,c
  5431   001FEA  0E3C               	movlw	60
  5432   001FEC  6E06               	movwf	___lwmod@divisor^0,c
  5433   001FEE  EC6B  F01E         	call	___lwmod	;wreg free
  5434   001FF2  C004  F0FA         	movff	?___lwmod,_minute
  5435   001FF6  C005  F0FB         	movff	?___lwmod+1,_minute+1
  5436   001FFA                     
  5437                           ;datetime.c: 59:             second = ((solarnoonminutes + difference)%60)%60;
  5438   001FFA  0E00               	movlw	0
  5439   001FFC  6E07               	movwf	(___lwmod@divisor+1)^0,c
  5440   001FFE  0E3C               	movlw	60
  5441   002000  6E06               	movwf	___lwmod@divisor^0,c
  5442   002002  0100               	movlb	0	; () banked
  5443   002004  51E8               	movf	_difference& (0+255),w,b
  5444   002006  25E6               	addwf	_solarnoonminutes& (0+255),w,b
  5445   002008  6E04               	movwf	___lwmod@dividend^0,c
  5446   00200A  51E9               	movf	(_difference+1)& (0+255),w,b
  5447   00200C  21E7               	addwfc	(_solarnoonminutes+1)& (0+255),w,b
  5448   00200E  6E05               	movwf	(___lwmod@dividend+1)^0,c
  5449   002010  EC6B  F01E         	call	___lwmod	;wreg free
  5450   002014  C004  F0D9         	movff	?___lwmod,_Callibrate$2461
  5451   002018  C005  F0DA         	movff	?___lwmod+1,_Callibrate$2461+1
  5452   00201C                     
  5453                           ;datetime.c: 59:             second = ((solarnoonminutes + difference)%60)%60;
  5454   00201C  C0D9  F004         	movff	_Callibrate$2461,___lwmod@dividend
  5455   002020  C0DA  F005         	movff	_Callibrate$2461+1,___lwmod@dividend+1
  5456   002024  0E00               	movlw	0
  5457   002026  6E07               	movwf	(___lwmod@divisor+1)^0,c
  5458   002028  0E3C               	movlw	60
  5459   00202A  6E06               	movwf	___lwmod@divisor^0,c
  5460   00202C  EC6B  F01E         	call	___lwmod	;wreg free
  5461   002030  C004  F0FC         	movff	?___lwmod,_second
  5462   002034  C005  F0FD         	movff	?___lwmod+1,_second+1
  5463   002038                     l209:
  5464   002038  0012               	return		;funcret
  5465   00203A                     __end_of_Callibrate:
  5466                           	callstack 0
  5467                           
  5468 ;; *************** function _sinf *****************
  5469 ;; Defined at:
  5470 ;;		line 27 in file "C:\Program Files\Microchip\xc8\v2.45\pic\sources\c99\common\sinf.c"
  5471 ;; Parameters:    Size  Location     Type
  5472 ;;  x               4   69[BANK0 ] float 
  5473 ;; Auto vars:     Size  Location     Type
  5474 ;;  ux              4   93[BANK0 ] struct .
  5475 ;;  y               4   89[BANK0 ] struct .
  5476 ;;  sign            1   84[BANK0 ] _Bool 
  5477 ;;  n               1   83[BANK0 ] unsigned char 
  5478 ;; Return value:  Size  Location     Type
  5479 ;;                  4   69[BANK0 ] float 
  5480 ;; Registers used:
  5481 ;;		wreg, fsr2l, fsr2h, status,2, status,0, prodl, prodh, cstack
  5482 ;; Tracked objects:
  5483 ;;		On entry : 0/0
  5484 ;;		On exit  : 0/0
  5485 ;;		Unchanged: 0/0
  5486 ;; Data sizes:     COMRAM   BANK0   BANK1   BANK2   BANK3   BANK4   BANK5   BANK6   BANK7   BANK8   BANK9  BANK10  BANK1
      +1  BANK12  BANK13
  5487 ;;      Params:         0       4       0       0       0       0       0       0       0       0       0       0       
      +0       0       0
  5488 ;;      Locals:         0      22       0       0       0       0       0       0       0       0       0       0       
      +0       0       0
  5489 ;;      Temps:          0       2       0       0       0       0       0       0       0       0       0       0       
      +0       0       0
  5490 ;;      Totals:         0      28       0       0       0       0       0       0       0       0       0       0       
      +0       0       0
  5491 ;;Total ram usage:       28 bytes
  5492 ;; Hardware stack levels used: 1
  5493 ;; Hardware stack levels required when called: 5
  5494 ;; This function calls:
  5495 ;;		___cosdf
  5496 ;;		___fladd
  5497 ;;		___flneg
  5498 ;;		___rem_pio2f
  5499 ;;		___sindf
  5500 ;; This function is called by:
  5501 ;;		_Callibrate
  5502 ;; This function uses a non-reentrant model
  5503 ;;
  5504                           
  5505                           	psect	text34
  5506   000E5C                     __ptext34:
  5507                           	callstack 0
  5508   000E5C                     _sinf:
  5509                           	callstack 24
  5510   000E5C  C0A5  F0BD         	movff	sinf@x,sinf@ux
  5511   000E60  C0A6  F0BE         	movff	sinf@x+1,sinf@ux+1
  5512   000E64  C0A7  F0BF         	movff	sinf@x+2,sinf@ux+2
  5513   000E68  C0A8  F0C0         	movff	sinf@x+3,sinf@ux+3
  5514   000E6C  0100               	movlb	0	; () banked
  5515   000E6E  BFC0               	btfsc	(sinf@ux+3)& (0+255),7,b
  5516   000E70  EF3C  F007         	goto	u4991
  5517   000E74  EF3F  F007         	goto	u4990
  5518   000E78                     u4991:
  5519   000E78  0E01               	movlw	1
  5520   000E7A  EF40  F007         	goto	u5000
  5521   000E7E                     u4990:
  5522   000E7E  0E00               	movlw	0
  5523   000E80                     u5000:
  5524   000E80  6FB4               	movwf	sinf@sign& (0+255),b
  5525   000E82                     
  5526                           ; BSR set to: 0
  5527   000E82  9FC0               	bcf	(sinf@ux+3)& (0+255),7,b
  5528   000E84                     
  5529                           ; BSR set to: 0
  5530   000E84  0EDB               	movlw	219
  5531   000E86  5DBD               	subwf	sinf@ux& (0+255),w,b
  5532   000E88  0E0F               	movlw	15
  5533   000E8A  59BE               	subwfb	(sinf@ux+1)& (0+255),w,b
  5534   000E8C  0E49               	movlw	73
  5535   000E8E  59BF               	subwfb	(sinf@ux+2)& (0+255),w,b
  5536   000E90  0E3F               	movlw	63
  5537   000E92  59C0               	subwfb	(sinf@ux+3)& (0+255),w,b
  5538   000E94  B0D8               	btfsc	status,0,c
  5539   000E96  EF4F  F007         	goto	u5011
  5540   000E9A  EF51  F007         	goto	u5010
  5541   000E9E                     u5011:
  5542   000E9E  EF7A  F007         	goto	l4430
  5543   000EA2                     u5010:
  5544   000EA2                     
  5545                           ; BSR set to: 0
  5546   000EA2  0E80               	movlw	128
  5547   000EA4  5DBF               	subwf	(sinf@ux+2)& (0+255),w,b
  5548   000EA6  0E39               	movlw	57
  5549   000EA8  59C0               	subwfb	(sinf@ux+3)& (0+255),w,b
  5550   000EAA  B0D8               	btfsc	status,0,c
  5551   000EAC  EF5A  F007         	goto	u5021
  5552   000EB0  EF5C  F007         	goto	u5020
  5553   000EB4                     u5021:
  5554   000EB4  EF66  F007         	goto	l4426
  5555   000EB8                     u5020:
  5556   000EB8                     
  5557                           ; BSR set to: 0
  5558   000EB8  C0A5  F0A5         	movff	sinf@x,?_sinf
  5559   000EBC  C0A6  F0A6         	movff	sinf@x+1,?_sinf+1
  5560   000EC0  C0A7  F0A7         	movff	sinf@x+2,?_sinf+2
  5561   000EC4  C0A8  F0A8         	movff	sinf@x+3,?_sinf+3
  5562   000EC8  EFBC  F009         	goto	l1144
  5563   000ECC                     l4426:
  5564                           
  5565                           ; BSR set to: 0
  5566   000ECC  C0A5  F051         	movff	sinf@x,___sindf@x
  5567   000ED0  C0A6  F052         	movff	sinf@x+1,___sindf@x+1
  5568   000ED4  C0A7  F053         	movff	sinf@x+2,___sindf@x+2
  5569   000ED8  C0A8  F054         	movff	sinf@x+3,___sindf@x+3
  5570   000EDC  ECCB  F013         	call	___sindf	;wreg free
  5571   000EE0  C051  F0A5         	movff	?___sindf,?_sinf
  5572   000EE4  C052  F0A6         	movff	?___sindf+1,?_sinf+1
  5573   000EE8  C053  F0A7         	movff	?___sindf+2,?_sinf+2
  5574   000EEC  C054  F0A8         	movff	?___sindf+3,?_sinf+3
  5575   000EF0  EFBC  F009         	goto	l1144
  5576   000EF4                     l4430:
  5577                           
  5578                           ; BSR set to: 0
  5579   000EF4  0ED2               	movlw	210
  5580   000EF6  5DBD               	subwf	sinf@ux& (0+255),w,b
  5581   000EF8  0E53               	movlw	83
  5582   000EFA  59BE               	subwfb	(sinf@ux+1)& (0+255),w,b
  5583   000EFC  0E7B               	movlw	123
  5584   000EFE  59BF               	subwfb	(sinf@ux+2)& (0+255),w,b
  5585   000F00  0E40               	movlw	64
  5586   000F02  59C0               	subwfb	(sinf@ux+3)& (0+255),w,b
  5587   000F04  B0D8               	btfsc	status,0,c
  5588   000F06  EF87  F007         	goto	u5031
  5589   000F0A  EF89  F007         	goto	u5030
  5590   000F0E                     u5031:
  5591   000F0E  EF6C  F008         	goto	l4460
  5592   000F12                     u5030:
  5593   000F12                     
  5594                           ; BSR set to: 0
  5595   000F12  0EE4               	movlw	228
  5596   000F14  5DBD               	subwf	sinf@ux& (0+255),w,b
  5597   000F16  0ECB               	movlw	203
  5598   000F18  59BE               	subwfb	(sinf@ux+1)& (0+255),w,b
  5599   000F1A  0E16               	movlw	22
  5600   000F1C  59BF               	subwfb	(sinf@ux+2)& (0+255),w,b
  5601   000F1E  0E40               	movlw	64
  5602   000F20  59C0               	subwfb	(sinf@ux+3)& (0+255),w,b
  5603   000F22  B0D8               	btfsc	status,0,c
  5604   000F24  EF96  F007         	goto	u5041
  5605   000F28  EF98  F007         	goto	u5040
  5606   000F2C                     u5041:
  5607   000F2C  EF06  F008         	goto	l4450
  5608   000F30                     u5040:
  5609   000F30                     
  5610                           ; BSR set to: 0
  5611   000F30  51B4               	movf	sinf@sign& (0+255),w,b
  5612   000F32  B4D8               	btfsc	status,2,c
  5613   000F34  EF9E  F007         	goto	u5051
  5614   000F38  EFA0  F007         	goto	u5050
  5615   000F3C                     u5051:
  5616   000F3C  EFD8  F007         	goto	l4444
  5617   000F40                     u5050:
  5618   000F40                     
  5619                           ; BSR set to: 0
  5620   000F40  0EDB               	movlw	219
  5621   000F42  6E39               	movwf	___fladd@a^0,c
  5622   000F44  0E0F               	movlw	15
  5623   000F46  6E3A               	movwf	(___fladd@a+1)^0,c
  5624   000F48  0EC9               	movlw	201
  5625   000F4A  6E3B               	movwf	(___fladd@a+2)^0,c
  5626   000F4C  0E3F               	movlw	63
  5627   000F4E  6E3C               	movwf	(___fladd@a+3)^0,c
  5628   000F50  C0A5  F035         	movff	sinf@x,___fladd@b
  5629   000F54  C0A6  F036         	movff	sinf@x+1,___fladd@b+1
  5630   000F58  C0A7  F037         	movff	sinf@x+2,___fladd@b+2
  5631   000F5C  C0A8  F038         	movff	sinf@x+3,___fladd@b+3
  5632   000F60  ECBD  F009         	call	___fladd	;wreg free
  5633   000F64  C035  F0B5         	movff	?___fladd,_sinf$2462
  5634   000F68  C036  F0B6         	movff	?___fladd+1,_sinf$2462+1
  5635   000F6C  C037  F0B7         	movff	?___fladd+2,_sinf$2462+2
  5636   000F70  C038  F0B8         	movff	?___fladd+3,_sinf$2462+3
  5637   000F74                     l4438:
  5638   000F74  C0B5  F051         	movff	_sinf$2462,___cosdf@x
  5639   000F78  C0B6  F052         	movff	_sinf$2462+1,___cosdf@x+1
  5640   000F7C  C0B7  F053         	movff	_sinf$2462+2,___cosdf@x+2
  5641   000F80  C0B8  F054         	movff	_sinf$2462+3,___cosdf@x+3
  5642   000F84  ECE4  F014         	call	___cosdf	;wreg free
  5643   000F88  C051  F055         	movff	?___cosdf,___flneg@f1
  5644   000F8C  C052  F056         	movff	?___cosdf+1,___flneg@f1+1
  5645   000F90  C053  F057         	movff	?___cosdf+2,___flneg@f1+2
  5646   000F94  C054  F058         	movff	?___cosdf+3,___flneg@f1+3
  5647   000F98  ECD0  F01F         	call	___flneg	;wreg free
  5648   000F9C  C055  F0A5         	movff	?___flneg,?_sinf
  5649   000FA0  C056  F0A6         	movff	?___flneg+1,?_sinf+1
  5650   000FA4  C057  F0A7         	movff	?___flneg+2,?_sinf+2
  5651   000FA8  C058  F0A8         	movff	?___flneg+3,?_sinf+3
  5652   000FAC  EFBC  F009         	goto	l1144
  5653   000FB0                     l4444:
  5654                           
  5655                           ; BSR set to: 0
  5656   000FB0  C0A5  F035         	movff	sinf@x,___fladd@b
  5657   000FB4  C0A6  F036         	movff	sinf@x+1,___fladd@b+1
  5658   000FB8  C0A7  F037         	movff	sinf@x+2,___fladd@b+2
  5659   000FBC  C0A8  F038         	movff	sinf@x+3,___fladd@b+3
  5660   000FC0  0EDB               	movlw	219
  5661   000FC2  6E39               	movwf	___fladd@a^0,c
  5662   000FC4  0E0F               	movlw	15
  5663   000FC6  6E3A               	movwf	(___fladd@a+1)^0,c
  5664   000FC8  0EC9               	movlw	201
  5665   000FCA  6E3B               	movwf	(___fladd@a+2)^0,c
  5666   000FCC  0EBF               	movlw	191
  5667   000FCE  6E3C               	movwf	(___fladd@a+3)^0,c
  5668   000FD0  ECBD  F009         	call	___fladd	;wreg free
  5669   000FD4  C035  F0B5         	movff	?___fladd,_sinf$2462
  5670   000FD8  C036  F0B6         	movff	?___fladd+1,_sinf$2462+1
  5671   000FDC  C037  F0B7         	movff	?___fladd+2,_sinf$2462+2
  5672   000FE0  C038  F0B8         	movff	?___fladd+3,_sinf$2462+3
  5673   000FE4                     l4446:
  5674   000FE4  C0B5  F051         	movff	_sinf$2462,___cosdf@x
  5675   000FE8  C0B6  F052         	movff	_sinf$2462+1,___cosdf@x+1
  5676   000FEC  C0B7  F053         	movff	_sinf$2462+2,___cosdf@x+2
  5677   000FF0  C0B8  F054         	movff	_sinf$2462+3,___cosdf@x+3
  5678   000FF4  ECE4  F014         	call	___cosdf	;wreg free
  5679   000FF8  C051  F0A5         	movff	?___cosdf,?_sinf
  5680   000FFC  C052  F0A6         	movff	?___cosdf+1,?_sinf+1
  5681   001000  C053  F0A7         	movff	?___cosdf+2,?_sinf+2
  5682   001004  C054  F0A8         	movff	?___cosdf+3,?_sinf+3
  5683   001008  EFBC  F009         	goto	l1144
  5684   00100C                     l4450:
  5685                           
  5686                           ; BSR set to: 0
  5687   00100C  51B4               	movf	sinf@sign& (0+255),w,b
  5688   00100E  A4D8               	btfss	status,2,c
  5689   001010  EF0C  F008         	goto	u5061
  5690   001014  EF0E  F008         	goto	u5060
  5691   001018                     u5061:
  5692   001018  EF34  F008         	goto	l4454
  5693   00101C                     u5060:
  5694   00101C                     
  5695                           ; BSR set to: 0
  5696   00101C  0EDB               	movlw	219
  5697   00101E  6E39               	movwf	___fladd@a^0,c
  5698   001020  0E0F               	movlw	15
  5699   001022  6E3A               	movwf	(___fladd@a+1)^0,c
  5700   001024  0E49               	movlw	73
  5701   001026  6E3B               	movwf	(___fladd@a+2)^0,c
  5702   001028  0EC0               	movlw	192
  5703   00102A  6E3C               	movwf	(___fladd@a+3)^0,c
  5704   00102C  C0A5  F035         	movff	sinf@x,___fladd@b
  5705   001030  C0A6  F036         	movff	sinf@x+1,___fladd@b+1
  5706   001034  C0A7  F037         	movff	sinf@x+2,___fladd@b+2
  5707   001038  C0A8  F038         	movff	sinf@x+3,___fladd@b+3
  5708   00103C  ECBD  F009         	call	___fladd	;wreg free
  5709   001040  C035  F055         	movff	?___fladd,___flneg@f1
  5710   001044  C036  F056         	movff	?___fladd+1,___flneg@f1+1
  5711   001048  C037  F057         	movff	?___fladd+2,___flneg@f1+2
  5712   00104C  C038  F058         	movff	?___fladd+3,___flneg@f1+3
  5713   001050  ECD0  F01F         	call	___flneg	;wreg free
  5714   001054  C055  F0AB         	movff	?___flneg,_sinf$2171
  5715   001058  C056  F0AC         	movff	?___flneg+1,_sinf$2171+1
  5716   00105C  C057  F0AD         	movff	?___flneg+2,_sinf$2171+2
  5717   001060  C058  F0AE         	movff	?___flneg+3,_sinf$2171+3
  5718   001064  EF58  F008         	goto	l4456
  5719   001068                     l4454:
  5720                           
  5721                           ; BSR set to: 0
  5722   001068  0EDB               	movlw	219
  5723   00106A  6E39               	movwf	___fladd@a^0,c
  5724   00106C  0E0F               	movlw	15
  5725   00106E  6E3A               	movwf	(___fladd@a+1)^0,c
  5726   001070  0E49               	movlw	73
  5727   001072  6E3B               	movwf	(___fladd@a+2)^0,c
  5728   001074  0E40               	movlw	64
  5729   001076  6E3C               	movwf	(___fladd@a+3)^0,c
  5730   001078  C0A5  F035         	movff	sinf@x,___fladd@b
  5731   00107C  C0A6  F036         	movff	sinf@x+1,___fladd@b+1
  5732   001080  C0A7  F037         	movff	sinf@x+2,___fladd@b+2
  5733   001084  C0A8  F038         	movff	sinf@x+3,___fladd@b+3
  5734   001088  ECBD  F009         	call	___fladd	;wreg free
  5735   00108C  C035  F055         	movff	?___fladd,___flneg@f1
  5736   001090  C036  F056         	movff	?___fladd+1,___flneg@f1+1
  5737   001094  C037  F057         	movff	?___fladd+2,___flneg@f1+2
  5738   001098  C038  F058         	movff	?___fladd+3,___flneg@f1+3
  5739   00109C  ECD0  F01F         	call	___flneg	;wreg free
  5740   0010A0  C055  F0AB         	movff	?___flneg,_sinf$2171
  5741   0010A4  C056  F0AC         	movff	?___flneg+1,_sinf$2171+1
  5742   0010A8  C057  F0AD         	movff	?___flneg+2,_sinf$2171+2
  5743   0010AC  C058  F0AE         	movff	?___flneg+3,_sinf$2171+3
  5744   0010B0                     l4456:
  5745   0010B0  C0AB  F051         	movff	_sinf$2171,___sindf@x
  5746   0010B4  C0AC  F052         	movff	_sinf$2171+1,___sindf@x+1
  5747   0010B8  C0AD  F053         	movff	_sinf$2171+2,___sindf@x+2
  5748   0010BC  C0AE  F054         	movff	_sinf$2171+3,___sindf@x+3
  5749   0010C0  ECCB  F013         	call	___sindf	;wreg free
  5750   0010C4  C051  F0A5         	movff	?___sindf,?_sinf
  5751   0010C8  C052  F0A6         	movff	?___sindf+1,?_sinf+1
  5752   0010CC  C053  F0A7         	movff	?___sindf+2,?_sinf+2
  5753   0010D0  C054  F0A8         	movff	?___sindf+3,?_sinf+3
  5754   0010D4  EFBC  F009         	goto	l1144
  5755   0010D8                     l4460:
  5756                           
  5757                           ; BSR set to: 0
  5758   0010D8  0ED6               	movlw	214
  5759   0010DA  5DBD               	subwf	sinf@ux& (0+255),w,b
  5760   0010DC  0E31               	movlw	49
  5761   0010DE  59BE               	subwfb	(sinf@ux+1)& (0+255),w,b
  5762   0010E0  0EE2               	movlw	226
  5763   0010E2  59BF               	subwfb	(sinf@ux+2)& (0+255),w,b
  5764   0010E4  0E40               	movlw	64
  5765   0010E6  59C0               	subwfb	(sinf@ux+3)& (0+255),w,b
  5766   0010E8  B0D8               	btfsc	status,0,c
  5767   0010EA  EF79  F008         	goto	u5071
  5768   0010EE  EF7B  F008         	goto	u5070
  5769   0010F2                     u5071:
  5770   0010F2  EF1C  F009         	goto	l4490
  5771   0010F6                     u5070:
  5772   0010F6                     
  5773                           ; BSR set to: 0
  5774   0010F6  0EE0               	movlw	224
  5775   0010F8  5DBD               	subwf	sinf@ux& (0+255),w,b
  5776   0010FA  0EED               	movlw	237
  5777   0010FC  59BE               	subwfb	(sinf@ux+1)& (0+255),w,b
  5778   0010FE  0EAF               	movlw	175
  5779   001100  59BF               	subwfb	(sinf@ux+2)& (0+255),w,b
  5780   001102  0E40               	movlw	64
  5781   001104  59C0               	subwfb	(sinf@ux+3)& (0+255),w,b
  5782   001106  B0D8               	btfsc	status,0,c
  5783   001108  EF88  F008         	goto	u5081
  5784   00110C  EF8A  F008         	goto	u5080
  5785   001110                     u5081:
  5786   001110  EFCA  F008         	goto	l4480
  5787   001114                     u5080:
  5788   001114                     
  5789                           ; BSR set to: 0
  5790   001114  51B4               	movf	sinf@sign& (0+255),w,b
  5791   001116  B4D8               	btfsc	status,2,c
  5792   001118  EF90  F008         	goto	u5091
  5793   00111C  EF92  F008         	goto	u5090
  5794   001120                     u5091:
  5795   001120  EFAE  F008         	goto	l4474
  5796   001124                     u5090:
  5797   001124                     
  5798                           ; BSR set to: 0
  5799   001124  C0A5  F035         	movff	sinf@x,___fladd@b
  5800   001128  C0A6  F036         	movff	sinf@x+1,___fladd@b+1
  5801   00112C  C0A7  F037         	movff	sinf@x+2,___fladd@b+2
  5802   001130  C0A8  F038         	movff	sinf@x+3,___fladd@b+3
  5803   001134  0EE4               	movlw	228
  5804   001136  6E39               	movwf	___fladd@a^0,c
  5805   001138  0ECB               	movlw	203
  5806   00113A  6E3A               	movwf	(___fladd@a+1)^0,c
  5807   00113C  0E96               	movlw	150
  5808   00113E  6E3B               	movwf	(___fladd@a+2)^0,c
  5809   001140  0E40               	movlw	64
  5810   001142  6E3C               	movwf	(___fladd@a+3)^0,c
  5811   001144  ECBD  F009         	call	___fladd	;wreg free
  5812   001148  C035  F0B5         	movff	?___fladd,_sinf$2462
  5813   00114C  C036  F0B6         	movff	?___fladd+1,_sinf$2462+1
  5814   001150  C037  F0B7         	movff	?___fladd+2,_sinf$2462+2
  5815   001154  C038  F0B8         	movff	?___fladd+3,_sinf$2462+3
  5816   001158  EFF2  F007         	goto	l4446
  5817   00115C                     l4474:
  5818                           
  5819                           ; BSR set to: 0
  5820   00115C  0EE4               	movlw	228
  5821   00115E  6E39               	movwf	___fladd@a^0,c
  5822   001160  0ECB               	movlw	203
  5823   001162  6E3A               	movwf	(___fladd@a+1)^0,c
  5824   001164  0E96               	movlw	150
  5825   001166  6E3B               	movwf	(___fladd@a+2)^0,c
  5826   001168  0EC0               	movlw	192
  5827   00116A  6E3C               	movwf	(___fladd@a+3)^0,c
  5828   00116C  C0A5  F035         	movff	sinf@x,___fladd@b
  5829   001170  C0A6  F036         	movff	sinf@x+1,___fladd@b+1
  5830   001174  C0A7  F037         	movff	sinf@x+2,___fladd@b+2
  5831   001178  C0A8  F038         	movff	sinf@x+3,___fladd@b+3
  5832   00117C  ECBD  F009         	call	___fladd	;wreg free
  5833   001180  C035  F0B5         	movff	?___fladd,_sinf$2462
  5834   001184  C036  F0B6         	movff	?___fladd+1,_sinf$2462+1
  5835   001188  C037  F0B7         	movff	?___fladd+2,_sinf$2462+2
  5836   00118C  C038  F0B8         	movff	?___fladd+3,_sinf$2462+3
  5837   001190  EFBA  F007         	goto	l4438
  5838   001194                     l4480:
  5839                           
  5840                           ; BSR set to: 0
  5841   001194  51B4               	movf	sinf@sign& (0+255),w,b
  5842   001196  A4D8               	btfss	status,2,c
  5843   001198  EFD0  F008         	goto	u5101
  5844   00119C  EFD2  F008         	goto	u5100
  5845   0011A0                     u5101:
  5846   0011A0  EFEE  F008         	goto	l4484
  5847   0011A4                     u5100:
  5848   0011A4                     
  5849                           ; BSR set to: 0
  5850   0011A4  C0A5  F035         	movff	sinf@x,___fladd@b
  5851   0011A8  C0A6  F036         	movff	sinf@x+1,___fladd@b+1
  5852   0011AC  C0A7  F037         	movff	sinf@x+2,___fladd@b+2
  5853   0011B0  C0A8  F038         	movff	sinf@x+3,___fladd@b+3
  5854   0011B4  0EDB               	movlw	219
  5855   0011B6  6E39               	movwf	___fladd@a^0,c
  5856   0011B8  0E0F               	movlw	15
  5857   0011BA  6E3A               	movwf	(___fladd@a+1)^0,c
  5858   0011BC  0EC9               	movlw	201
  5859   0011BE  6E3B               	movwf	(___fladd@a+2)^0,c
  5860   0011C0  0EC0               	movlw	192
  5861   0011C2  6E3C               	movwf	(___fladd@a+3)^0,c
  5862   0011C4  ECBD  F009         	call	___fladd	;wreg free
  5863   0011C8  C035  F0AF         	movff	?___fladd,_sinf$2172
  5864   0011CC  C036  F0B0         	movff	?___fladd+1,_sinf$2172+1
  5865   0011D0  C037  F0B1         	movff	?___fladd+2,_sinf$2172+2
  5866   0011D4  C038  F0B2         	movff	?___fladd+3,_sinf$2172+3
  5867   0011D8  EF08  F009         	goto	l4486
  5868   0011DC                     l4484:
  5869                           
  5870                           ; BSR set to: 0
  5871   0011DC  C0A5  F035         	movff	sinf@x,___fladd@b
  5872   0011E0  C0A6  F036         	movff	sinf@x+1,___fladd@b+1
  5873   0011E4  C0A7  F037         	movff	sinf@x+2,___fladd@b+2
  5874   0011E8  C0A8  F038         	movff	sinf@x+3,___fladd@b+3
  5875   0011EC  0EDB               	movlw	219
  5876   0011EE  6E39               	movwf	___fladd@a^0,c
  5877   0011F0  0E0F               	movlw	15
  5878   0011F2  6E3A               	movwf	(___fladd@a+1)^0,c
  5879   0011F4  0EC9               	movlw	201
  5880   0011F6  6E3B               	movwf	(___fladd@a+2)^0,c
  5881   0011F8  0E40               	movlw	64
  5882   0011FA  6E3C               	movwf	(___fladd@a+3)^0,c
  5883   0011FC  ECBD  F009         	call	___fladd	;wreg free
  5884   001200  C035  F0AF         	movff	?___fladd,_sinf$2172
  5885   001204  C036  F0B0         	movff	?___fladd+1,_sinf$2172+1
  5886   001208  C037  F0B1         	movff	?___fladd+2,_sinf$2172+2
  5887   00120C  C038  F0B2         	movff	?___fladd+3,_sinf$2172+3
  5888   001210                     l4486:
  5889   001210  C0AF  F051         	movff	_sinf$2172,___sindf@x
  5890   001214  C0B0  F052         	movff	_sinf$2172+1,___sindf@x+1
  5891   001218  C0B1  F053         	movff	_sinf$2172+2,___sindf@x+2
  5892   00121C  C0B2  F054         	movff	_sinf$2172+3,___sindf@x+3
  5893   001220  ECCB  F013         	call	___sindf	;wreg free
  5894   001224  C051  F0A5         	movff	?___sindf,?_sinf
  5895   001228  C052  F0A6         	movff	?___sindf+1,?_sinf+1
  5896   00122C  C053  F0A7         	movff	?___sindf+2,?_sinf+2
  5897   001230  C054  F0A8         	movff	?___sindf+3,?_sinf+3
  5898   001234  EFBC  F009         	goto	l1144
  5899   001238                     l4490:
  5900                           
  5901                           ; BSR set to: 0
  5902   001238  0E80               	movlw	128
  5903   00123A  5DBF               	subwf	(sinf@ux+2)& (0+255),w,b
  5904   00123C  0E7F               	movlw	127
  5905   00123E  59C0               	subwfb	(sinf@ux+3)& (0+255),w,b
  5906   001240  A0D8               	btfss	status,0,c
  5907   001242  EF25  F009         	goto	u5111
  5908   001246  EF27  F009         	goto	u5110
  5909   00124A                     u5111:
  5910   00124A  EF39  F009         	goto	l4498
  5911   00124E                     u5110:
  5912   00124E                     
  5913                           ; BSR set to: 0
  5914   00124E  0EFF               	movlw	255
  5915   001250  13BD               	iorwf	sinf@ux& (0+255),f,b
  5916   001252  0EFF               	movlw	255
  5917   001254  13BE               	iorwf	(sinf@ux+1)& (0+255),f,b
  5918   001256  0EFF               	movlw	255
  5919   001258  13BF               	iorwf	(sinf@ux+2)& (0+255),f,b
  5920   00125A  0E00               	movlw	0
  5921   00125C  13C0               	iorwf	(sinf@ux+3)& (0+255),f,b
  5922   00125E                     
  5923                           ; BSR set to: 0
  5924   00125E  C0BD  F0A5         	movff	sinf@ux,?_sinf
  5925   001262  C0BE  F0A6         	movff	sinf@ux+1,?_sinf+1
  5926   001266  C0BF  F0A7         	movff	sinf@ux+2,?_sinf+2
  5927   00126A  C0C0  F0A8         	movff	sinf@ux+3,?_sinf+3
  5928   00126E  EFBC  F009         	goto	l1144
  5929   001272                     l4498:
  5930                           
  5931                           ; BSR set to: 0
  5932   001272  C0A5  F085         	movff	sinf@x,___rem_pio2f@x
  5933   001276  C0A6  F086         	movff	sinf@x+1,___rem_pio2f@x+1
  5934   00127A  C0A7  F087         	movff	sinf@x+2,___rem_pio2f@x+2
  5935   00127E  C0A8  F088         	movff	sinf@x+3,___rem_pio2f@x+3
  5936   001282  0EB9               	movlw	low sinf@y
  5937   001284  6F89               	movwf	___rem_pio2f@y& (0+255),b
  5938   001286  EC1D  F010         	call	___rem_pio2f	;wreg free
  5939   00128A  0100               	movlb	0	; () banked
  5940   00128C  5185               	movf	?___rem_pio2f& (0+255),w,b
  5941   00128E  0B03               	andlw	3
  5942   001290  6FB3               	movwf	sinf@n& (0+255),b
  5943   001292  EFA3  F009         	goto	l4516
  5944   001296                     l4500:
  5945                           
  5946                           ; BSR set to: 0
  5947   001296  C0B9  F055         	movff	sinf@y,___flneg@f1
  5948   00129A  C0BA  F056         	movff	sinf@y+1,___flneg@f1+1
  5949   00129E  C0BB  F057         	movff	sinf@y+2,___flneg@f1+2
  5950   0012A2  C0BC  F058         	movff	sinf@y+3,___flneg@f1+3
  5951   0012A6  ECD0  F01F         	call	___flneg	;wreg free
  5952   0012AA  C055  F0B9         	movff	?___flneg,sinf@y
  5953   0012AE  C056  F0BA         	movff	?___flneg+1,sinf@y+1
  5954   0012B2  C057  F0BB         	movff	?___flneg+2,sinf@y+2
  5955   0012B6  C058  F0BC         	movff	?___flneg+3,sinf@y+3
  5956   0012BA                     l4502:
  5957   0012BA  C0B9  F051         	movff	sinf@y,___sindf@x
  5958   0012BE  C0BA  F052         	movff	sinf@y+1,___sindf@x+1
  5959   0012C2  C0BB  F053         	movff	sinf@y+2,___sindf@x+2
  5960   0012C6  C0BC  F054         	movff	sinf@y+3,___sindf@x+3
  5961   0012CA  ECCB  F013         	call	___sindf	;wreg free
  5962   0012CE  C051  F0A5         	movff	?___sindf,?_sinf
  5963   0012D2  C052  F0A6         	movff	?___sindf+1,?_sinf+1
  5964   0012D6  C053  F0A7         	movff	?___sindf+2,?_sinf+2
  5965   0012DA  C054  F0A8         	movff	?___sindf+3,?_sinf+3
  5966   0012DE  EFBC  F009         	goto	l1144
  5967   0012E2                     l4506:
  5968                           
  5969                           ; BSR set to: 0
  5970   0012E2  C0B9  F051         	movff	sinf@y,___cosdf@x
  5971   0012E6  C0BA  F052         	movff	sinf@y+1,___cosdf@x+1
  5972   0012EA  C0BB  F053         	movff	sinf@y+2,___cosdf@x+2
  5973   0012EE  C0BC  F054         	movff	sinf@y+3,___cosdf@x+3
  5974   0012F2  ECE4  F014         	call	___cosdf	;wreg free
  5975   0012F6  C051  F0A5         	movff	?___cosdf,?_sinf
  5976   0012FA  C052  F0A6         	movff	?___cosdf+1,?_sinf+1
  5977   0012FE  C053  F0A7         	movff	?___cosdf+2,?_sinf+2
  5978   001302  C054  F0A8         	movff	?___cosdf+3,?_sinf+3
  5979   001306  EFBC  F009         	goto	l1144
  5980   00130A                     l4510:
  5981                           
  5982                           ; BSR set to: 0
  5983   00130A  C0B9  F051         	movff	sinf@y,___cosdf@x
  5984   00130E  C0BA  F052         	movff	sinf@y+1,___cosdf@x+1
  5985   001312  C0BB  F053         	movff	sinf@y+2,___cosdf@x+2
  5986   001316  C0BC  F054         	movff	sinf@y+3,___cosdf@x+3
  5987   00131A  ECE4  F014         	call	___cosdf	;wreg free
  5988   00131E  C051  F055         	movff	?___cosdf,___flneg@f1
  5989   001322  C052  F056         	movff	?___cosdf+1,___flneg@f1+1
  5990   001326  C053  F057         	movff	?___cosdf+2,___flneg@f1+2
  5991   00132A  C054  F058         	movff	?___cosdf+3,___flneg@f1+3
  5992   00132E  ECD0  F01F         	call	___flneg	;wreg free
  5993   001332  C055  F0A5         	movff	?___flneg,?_sinf
  5994   001336  C056  F0A6         	movff	?___flneg+1,?_sinf+1
  5995   00133A  C057  F0A7         	movff	?___flneg+2,?_sinf+2
  5996   00133E  C058  F0A8         	movff	?___flneg+3,?_sinf+3
  5997   001342  EFBC  F009         	goto	l1144
  5998   001346                     l4516:
  5999                           
  6000                           ; BSR set to: 0
  6001   001346  51B3               	movf	sinf@n& (0+255),w,b
  6002   001348  6FA9               	movwf	??_sinf& (0+255),b
  6003   00134A  6BAA               	clrf	(??_sinf+1)& (0+255),b
  6004                           
  6005                           ; Switch on 2 bytes has been partitioned into a top level switch of size 1, and 1 sub-sw
      +                          itches
  6006                           ; Switch size 1, requested type "simple"
  6007                           ; Number of cases is 1, Range of values is 0 to 0
  6008                           ; switch strategies available:
  6009                           ; Name         Instructions Cycles
  6010                           ; simple_byte            4     3 (average)
  6011                           ;	Chosen strategy is simple_byte
  6012   00134C  51AA               	movf	(??_sinf+1)& (0+255),w,b
  6013   00134E  0A00               	xorlw	0	; case 0
  6014   001350  B4D8               	btfsc	status,2,c
  6015   001352  EFAD  F009         	goto	l4640
  6016   001356  EF85  F009         	goto	l4510
  6017   00135A                     l4640:
  6018                           
  6019                           ; BSR set to: 0
  6020                           ; Switch size 1, requested type "simple"
  6021                           ; Number of cases is 3, Range of values is 0 to 2
  6022                           ; switch strategies available:
  6023                           ; Name         Instructions Cycles
  6024                           ; simple_byte           10     6 (average)
  6025                           ;	Chosen strategy is simple_byte
  6026   00135A  51A9               	movf	??_sinf& (0+255),w,b
  6027   00135C  0A00               	xorlw	0	; case 0
  6028   00135E  B4D8               	btfsc	status,2,c
  6029   001360  EF5D  F009         	goto	l4502
  6030   001364  0A01               	xorlw	1	; case 1
  6031   001366  B4D8               	btfsc	status,2,c
  6032   001368  EF71  F009         	goto	l4506
  6033   00136C  0A03               	xorlw	3	; case 2
  6034   00136E  B4D8               	btfsc	status,2,c
  6035   001370  EF4B  F009         	goto	l4500
  6036   001374  EF85  F009         	goto	l4510
  6037   001378                     l1144:
  6038   001378  0012               	return		;funcret
  6039   00137A                     __end_of_sinf:
  6040                           	callstack 0
  6041                           
  6042 ;; *************** function ___sindf *****************
  6043 ;; Defined at:
  6044 ;;		line 26 in file "C:\Program Files\Microchip\xc8\v2.45\pic\sources\c99\common\__sindf.c"
  6045 ;; Parameters:    Size  Location     Type
  6046 ;;  x               4   80[COMRAM] float 
  6047 ;; Auto vars:     Size  Location     Type
  6048 ;;  z               4   37[BANK0 ] float 
  6049 ;;  s               4   33[BANK0 ] float 
  6050 ;;  w               4   17[BANK0 ] float 
  6051 ;;  r               4   13[BANK0 ] float 
  6052 ;; Return value:  Size  Location     Type
  6053 ;;                  4   80[COMRAM] float 
  6054 ;; Registers used:
  6055 ;;		wreg, status,2, status,0, prodl, prodh, cstack
  6056 ;; Tracked objects:
  6057 ;;		On entry : 0/0
  6058 ;;		On exit  : 0/0
  6059 ;;		Unchanged: 0/0
  6060 ;; Data sizes:     COMRAM   BANK0   BANK1   BANK2   BANK3   BANK4   BANK5   BANK6   BANK7   BANK8   BANK9  BANK10  BANK1
      +1  BANK12  BANK13
  6061 ;;      Params:         4       0       0       0       0       0       0       0       0       0       0       0       
      +0       0       0
  6062 ;;      Locals:         0      28       0       0       0       0       0       0       0       0       0       0       
      +0       0       0
  6063 ;;      Temps:          0       0       0       0       0       0       0       0       0       0       0       0       
      +0       0       0
  6064 ;;      Totals:         4      28       0       0       0       0       0       0       0       0       0       0       
      +0       0       0
  6065 ;;Total ram usage:       32 bytes
  6066 ;; Hardware stack levels used: 1
  6067 ;; Hardware stack levels required when called: 3
  6068 ;; This function calls:
  6069 ;;		___fladd
  6070 ;;		___flmul
  6071 ;; This function is called by:
  6072 ;;		_sinf
  6073 ;; This function uses a non-reentrant model
  6074 ;;
  6075                           
  6076                           	psect	text35
  6077   002796                     __ptext35:
  6078                           	callstack 0
  6079   002796                     ___sindf:
  6080                           	callstack 25
  6081   002796  C051  F045         	movff	___sindf@x,___flmul@b
  6082   00279A  C052  F046         	movff	___sindf@x+1,___flmul@b+1
  6083   00279E  C053  F047         	movff	___sindf@x+2,___flmul@b+2
  6084   0027A2  C054  F048         	movff	___sindf@x+3,___flmul@b+3
  6085   0027A6  C051  F049         	movff	___sindf@x,___flmul@a
  6086   0027AA  C052  F04A         	movff	___sindf@x+1,___flmul@a+1
  6087   0027AE  C053  F04B         	movff	___sindf@x+2,___flmul@a+2
  6088   0027B2  C054  F04C         	movff	___sindf@x+3,___flmul@a+3
  6089   0027B6  EC1D  F00C         	call	___flmul	;wreg free
  6090   0027BA  C045  F085         	movff	?___flmul,___sindf@z
  6091   0027BE  C046  F086         	movff	?___flmul+1,___sindf@z+1
  6092   0027C2  C047  F087         	movff	?___flmul+2,___sindf@z+2
  6093   0027C6  C048  F088         	movff	?___flmul+3,___sindf@z+3
  6094   0027CA  C085  F045         	movff	___sindf@z,___flmul@b
  6095   0027CE  C086  F046         	movff	___sindf@z+1,___flmul@b+1
  6096   0027D2  C087  F047         	movff	___sindf@z+2,___flmul@b+2
  6097   0027D6  C088  F048         	movff	___sindf@z+3,___flmul@b+3
  6098   0027DA  C085  F049         	movff	___sindf@z,___flmul@a
  6099   0027DE  C086  F04A         	movff	___sindf@z+1,___flmul@a+1
  6100   0027E2  C087  F04B         	movff	___sindf@z+2,___flmul@a+2
  6101   0027E6  C088  F04C         	movff	___sindf@z+3,___flmul@a+3
  6102   0027EA  EC1D  F00C         	call	___flmul	;wreg free
  6103   0027EE  C045  F071         	movff	?___flmul,___sindf@w
  6104   0027F2  C046  F072         	movff	?___flmul+1,___sindf@w+1
  6105   0027F6  C047  F073         	movff	?___flmul+2,___sindf@w+2
  6106   0027FA  C048  F074         	movff	?___flmul+3,___sindf@w+3
  6107   0027FE  0E3C               	movlw	60
  6108   002800  6E49               	movwf	___flmul@a^0,c
  6109   002802  0E6C               	movlw	108
  6110   002804  6E4A               	movwf	(___flmul@a+1)^0,c
  6111   002806  0E36               	movlw	54
  6112   002808  6E4B               	movwf	(___flmul@a+2)^0,c
  6113   00280A  0E36               	movlw	54
  6114   00280C  6E4C               	movwf	(___flmul@a+3)^0,c
  6115   00280E  C085  F045         	movff	___sindf@z,___flmul@b
  6116   002812  C086  F046         	movff	___sindf@z+1,___flmul@b+1
  6117   002816  C087  F047         	movff	___sindf@z+2,___flmul@b+2
  6118   00281A  C088  F048         	movff	___sindf@z+3,___flmul@b+3
  6119   00281E  EC1D  F00C         	call	___flmul	;wreg free
  6120   002822  C045  F035         	movff	?___flmul,___fladd@b
  6121   002826  C046  F036         	movff	?___flmul+1,___fladd@b+1
  6122   00282A  C047  F037         	movff	?___flmul+2,___fladd@b+2
  6123   00282E  C048  F038         	movff	?___flmul+3,___fladd@b+3
  6124   002832  0ECF               	movlw	207
  6125   002834  6E39               	movwf	___fladd@a^0,c
  6126   002836  0E07               	movlw	7
  6127   002838  6E3A               	movwf	(___fladd@a+1)^0,c
  6128   00283A  0E50               	movlw	80
  6129   00283C  6E3B               	movwf	(___fladd@a+2)^0,c
  6130   00283E  0EB9               	movlw	185
  6131   002840  6E3C               	movwf	(___fladd@a+3)^0,c
  6132   002842  ECBD  F009         	call	___fladd	;wreg free
  6133   002846  C035  F06D         	movff	?___fladd,___sindf@r
  6134   00284A  C036  F06E         	movff	?___fladd+1,___sindf@r+1
  6135   00284E  C037  F06F         	movff	?___fladd+2,___sindf@r+2
  6136   002852  C038  F070         	movff	?___fladd+3,___sindf@r+3
  6137   002856  C085  F045         	movff	___sindf@z,___flmul@b
  6138   00285A  C086  F046         	movff	___sindf@z+1,___flmul@b+1
  6139   00285E  C087  F047         	movff	___sindf@z+2,___flmul@b+2
  6140   002862  C088  F048         	movff	___sindf@z+3,___flmul@b+3
  6141   002866  C051  F049         	movff	___sindf@x,___flmul@a
  6142   00286A  C052  F04A         	movff	___sindf@x+1,___flmul@a+1
  6143   00286E  C053  F04B         	movff	___sindf@x+2,___flmul@a+2
  6144   002872  C054  F04C         	movff	___sindf@x+3,___flmul@a+3
  6145   002876  EC1D  F00C         	call	___flmul	;wreg free
  6146   00287A  C045  F081         	movff	?___flmul,___sindf@s
  6147   00287E  C046  F082         	movff	?___flmul+1,___sindf@s+1
  6148   002882  C047  F083         	movff	?___flmul+2,___sindf@s+2
  6149   002886  C048  F084         	movff	?___flmul+3,___sindf@s+3
  6150   00288A  0EAB               	movlw	171
  6151   00288C  6E39               	movwf	___fladd@a^0,c
  6152   00288E  0EAA               	movlw	170
  6153   002890  6E3A               	movwf	(___fladd@a+1)^0,c
  6154   002892  0E2A               	movlw	42
  6155   002894  6E3B               	movwf	(___fladd@a+2)^0,c
  6156   002896  0EBE               	movlw	190
  6157   002898  6E3C               	movwf	(___fladd@a+3)^0,c
  6158   00289A  0E84               	movlw	132
  6159   00289C  6E49               	movwf	___flmul@a^0,c
  6160   00289E  0E88               	movlw	136
  6161   0028A0  6E4A               	movwf	(___flmul@a+1)^0,c
  6162   0028A2  0E08               	movlw	8
  6163   0028A4  6E4B               	movwf	(___flmul@a+2)^0,c
  6164   0028A6  0E3C               	movlw	60
  6165   0028A8  6E4C               	movwf	(___flmul@a+3)^0,c
  6166   0028AA  C085  F045         	movff	___sindf@z,___flmul@b
  6167   0028AE  C086  F046         	movff	___sindf@z+1,___flmul@b+1
  6168   0028B2  C087  F047         	movff	___sindf@z+2,___flmul@b+2
  6169   0028B6  C088  F048         	movff	___sindf@z+3,___flmul@b+3
  6170   0028BA  EC1D  F00C         	call	___flmul	;wreg free
  6171   0028BE  C045  F035         	movff	?___flmul,___fladd@b
  6172   0028C2  C046  F036         	movff	?___flmul+1,___fladd@b+1
  6173   0028C6  C047  F037         	movff	?___flmul+2,___fladd@b+2
  6174   0028CA  C048  F038         	movff	?___flmul+3,___fladd@b+3
  6175   0028CE  ECBD  F009         	call	___fladd	;wreg free
  6176   0028D2  C035  F075         	movff	?___fladd,___sindf$2467
  6177   0028D6  C036  F076         	movff	?___fladd+1,___sindf$2467+1
  6178   0028DA  C037  F077         	movff	?___fladd+2,___sindf$2467+2
  6179   0028DE  C038  F078         	movff	?___fladd+3,___sindf$2467+3
  6180   0028E2  C071  F049         	movff	___sindf@w,___flmul@a
  6181   0028E6  C072  F04A         	movff	___sindf@w+1,___flmul@a+1
  6182   0028EA  C073  F04B         	movff	___sindf@w+2,___flmul@a+2
  6183   0028EE  C074  F04C         	movff	___sindf@w+3,___flmul@a+3
  6184   0028F2  C081  F045         	movff	___sindf@s,___flmul@b
  6185   0028F6  C082  F046         	movff	___sindf@s+1,___flmul@b+1
  6186   0028FA  C083  F047         	movff	___sindf@s+2,___flmul@b+2
  6187   0028FE  C084  F048         	movff	___sindf@s+3,___flmul@b+3
  6188   002902  EC1D  F00C         	call	___flmul	;wreg free
  6189   002906  C045  F079         	movff	?___flmul,___sindf$2468
  6190   00290A  C046  F07A         	movff	?___flmul+1,___sindf$2468+1
  6191   00290E  C047  F07B         	movff	?___flmul+2,___sindf$2468+2
  6192   002912  C048  F07C         	movff	?___flmul+3,___sindf$2468+3
  6193   002916  C051  F039         	movff	___sindf@x,___fladd@a
  6194   00291A  C052  F03A         	movff	___sindf@x+1,___fladd@a+1
  6195   00291E  C053  F03B         	movff	___sindf@x+2,___fladd@a+2
  6196   002922  C054  F03C         	movff	___sindf@x+3,___fladd@a+3
  6197   002926  C081  F049         	movff	___sindf@s,___flmul@a
  6198   00292A  C082  F04A         	movff	___sindf@s+1,___flmul@a+1
  6199   00292E  C083  F04B         	movff	___sindf@s+2,___flmul@a+2
  6200   002932  C084  F04C         	movff	___sindf@s+3,___flmul@a+3
  6201   002936  C075  F045         	movff	___sindf$2467,___flmul@b
  6202   00293A  C076  F046         	movff	___sindf$2467+1,___flmul@b+1
  6203   00293E  C077  F047         	movff	___sindf$2467+2,___flmul@b+2
  6204   002942  C078  F048         	movff	___sindf$2467+3,___flmul@b+3
  6205   002946  EC1D  F00C         	call	___flmul	;wreg free
  6206   00294A  C045  F035         	movff	?___flmul,___fladd@b
  6207   00294E  C046  F036         	movff	?___flmul+1,___fladd@b+1
  6208   002952  C047  F037         	movff	?___flmul+2,___fladd@b+2
  6209   002956  C048  F038         	movff	?___flmul+3,___fladd@b+3
  6210   00295A  ECBD  F009         	call	___fladd	;wreg free
  6211   00295E  C035  F07D         	movff	?___fladd,___sindf$2469
  6212   002962  C036  F07E         	movff	?___fladd+1,___sindf$2469+1
  6213   002966  C037  F07F         	movff	?___fladd+2,___sindf$2469+2
  6214   00296A  C038  F080         	movff	?___fladd+3,___sindf$2469+3
  6215   00296E  C07D  F035         	movff	___sindf$2469,___fladd@b
  6216   002972  C07E  F036         	movff	___sindf$2469+1,___fladd@b+1
  6217   002976  C07F  F037         	movff	___sindf$2469+2,___fladd@b+2
  6218   00297A  C080  F038         	movff	___sindf$2469+3,___fladd@b+3
  6219   00297E  C06D  F049         	movff	___sindf@r,___flmul@a
  6220   002982  C06E  F04A         	movff	___sindf@r+1,___flmul@a+1
  6221   002986  C06F  F04B         	movff	___sindf@r+2,___flmul@a+2
  6222   00298A  C070  F04C         	movff	___sindf@r+3,___flmul@a+3
  6223   00298E  C079  F045         	movff	___sindf$2468,___flmul@b
  6224   002992  C07A  F046         	movff	___sindf$2468+1,___flmul@b+1
  6225   002996  C07B  F047         	movff	___sindf$2468+2,___flmul@b+2
  6226   00299A  C07C  F048         	movff	___sindf$2468+3,___flmul@b+3
  6227   00299E  EC1D  F00C         	call	___flmul	;wreg free
  6228   0029A2  C045  F039         	movff	?___flmul,___fladd@a
  6229   0029A6  C046  F03A         	movff	?___flmul+1,___fladd@a+1
  6230   0029AA  C047  F03B         	movff	?___flmul+2,___fladd@a+2
  6231   0029AE  C048  F03C         	movff	?___flmul+3,___fladd@a+3
  6232   0029B2  ECBD  F009         	call	___fladd	;wreg free
  6233   0029B6  C035  F051         	movff	?___fladd,?___sindf
  6234   0029BA  C036  F052         	movff	?___fladd+1,?___sindf+1
  6235   0029BE  C037  F053         	movff	?___fladd+2,?___sindf+2
  6236   0029C2  C038  F054         	movff	?___fladd+3,?___sindf+3
  6237   0029C6  0012               	return		;funcret
  6238   0029C8                     __end_of___sindf:
  6239                           	callstack 0
  6240                           
  6241 ;; *************** function ___rem_pio2f *****************
  6242 ;; Defined at:
  6243 ;;		line 44 in file "C:\Program Files\Microchip\xc8\v2.45\pic\sources\c99\common\__rem_pio2f.c"
  6244 ;; Parameters:    Size  Location     Type
  6245 ;;  x               4   37[BANK0 ] float 
  6246 ;;  y               1   41[BANK0 ] PTR 
  6247 ;;		 -> sinf@y(4), 
  6248 ;; Auto vars:     Size  Location     Type
  6249 ;;  n               4   65[BANK0 ] long 
  6250 ;;  t               4   61[BANK0 ] float 
  6251 ;;  fn              4   57[BANK0 ] float 
  6252 ;;  ux              4   53[BANK0 ] struct .
  6253 ;;  ty              4   44[BANK0 ] [1]
  6254 ;;  sign            1   52[BANK0 ] _Bool 
  6255 ;; Return value:  Size  Location     Type
  6256 ;;                  2   37[BANK0 ] int 
  6257 ;; Registers used:
  6258 ;;		wreg, fsr2l, fsr2h, status,2, status,0, prodl, prodh, cstack
  6259 ;; Tracked objects:
  6260 ;;		On entry : 0/0
  6261 ;;		On exit  : 0/0
  6262 ;;		Unchanged: 0/0
  6263 ;; Data sizes:     COMRAM   BANK0   BANK1   BANK2   BANK3   BANK4   BANK5   BANK6   BANK7   BANK8   BANK9  BANK10  BANK1
      +1  BANK12  BANK13
  6264 ;;      Params:         0       5       0       0       0       0       0       0       0       0       0       0       
      +0       0       0
  6265 ;;      Locals:         0      25       0       0       0       0       0       0       0       0       0       0       
      +0       0       0
  6266 ;;      Temps:          0       2       0       0       0       0       0       0       0       0       0       0       
      +0       0       0
  6267 ;;      Totals:         0      32       0       0       0       0       0       0       0       0       0       0       
      +0       0       0
  6268 ;;Total ram usage:       32 bytes
  6269 ;; Hardware stack levels used: 1
  6270 ;; Hardware stack levels required when called: 4
  6271 ;; This function calls:
  6272 ;;		___fladd
  6273 ;;		___flmul
  6274 ;;		___flneg
  6275 ;;		___flsub
  6276 ;;		___fltol
  6277 ;;		___xxtofl
  6278 ;;		_fabsf
  6279 ;; This function is called by:
  6280 ;;		_sinf
  6281 ;; This function uses a non-reentrant model
  6282 ;;
  6283                           
  6284                           	psect	text36
  6285   00203A                     __ptext36:
  6286                           	callstack 0
  6287   00203A                     ___rem_pio2f:
  6288                           	callstack 24
  6289   00203A  C0DC  F095         	movff	___rem_pio2f@F526,___rem_pio2f@ux
  6290   00203E  C0DD  F096         	movff	___rem_pio2f@F526+1,___rem_pio2f@ux+1
  6291   002042  C0DE  F097         	movff	___rem_pio2f@F526+2,___rem_pio2f@ux+2
  6292   002046  C0DF  F098         	movff	___rem_pio2f@F526+3,___rem_pio2f@ux+3
  6293   00204A  C085  F095         	movff	___rem_pio2f@x,___rem_pio2f@ux
  6294   00204E  C086  F096         	movff	___rem_pio2f@x+1,___rem_pio2f@ux+1
  6295   002052  C087  F097         	movff	___rem_pio2f@x+2,___rem_pio2f@ux+2
  6296   002056  C088  F098         	movff	___rem_pio2f@x+3,___rem_pio2f@ux+3
  6297   00205A  0100               	movlb	0	; () banked
  6298   00205C  BF98               	btfsc	(___rem_pio2f@ux+3)& (0+255),7,b
  6299   00205E  EF33  F010         	goto	u4931
  6300   002062  EF36  F010         	goto	u4930
  6301   002066                     u4931:
  6302   002066  0E01               	movlw	1
  6303   002068  EF37  F010         	goto	u4940
  6304   00206C                     u4930:
  6305   00206C  0E00               	movlw	0
  6306   00206E                     u4940:
  6307   00206E  6F94               	movwf	___rem_pio2f@sign& (0+255),b
  6308   002070                     
  6309                           ; BSR set to: 0
  6310   002070  9F98               	bcf	(___rem_pio2f@ux+3)& (0+255),7,b
  6311   002072                     
  6312                           ; BSR set to: 0
  6313   002072  0EDB               	movlw	219
  6314   002074  5D95               	subwf	___rem_pio2f@ux& (0+255),w,b
  6315   002076  0E0F               	movlw	15
  6316   002078  5996               	subwfb	(___rem_pio2f@ux+1)& (0+255),w,b
  6317   00207A  0EC9               	movlw	201
  6318   00207C  5997               	subwfb	(___rem_pio2f@ux+2)& (0+255),w,b
  6319   00207E  0E4D               	movlw	77
  6320   002080  5998               	subwfb	(___rem_pio2f@ux+3)& (0+255),w,b
  6321   002082  B0D8               	btfsc	status,0,c
  6322   002084  EF46  F010         	goto	u4951
  6323   002088  EF48  F010         	goto	u4950
  6324   00208C                     u4951:
  6325   00208C  EF34  F011         	goto	l4386
  6326   002090                     u4950:
  6327   002090                     
  6328                           ; BSR set to: 0
  6329   002090  C085  F004         	movff	___rem_pio2f@x,fabsf@x
  6330   002094  C086  F005         	movff	___rem_pio2f@x+1,fabsf@x+1
  6331   002098  C087  F006         	movff	___rem_pio2f@x+2,fabsf@x+2
  6332   00209C  C088  F007         	movff	___rem_pio2f@x+3,fabsf@x+3
  6333   0020A0  EC20  F020         	call	_fabsf	;wreg free
  6334   0020A4  C004  F09D         	movff	?_fabsf,___rem_pio2f@t
  6335   0020A8  C005  F09E         	movff	?_fabsf+1,___rem_pio2f@t+1
  6336   0020AC  C006  F09F         	movff	?_fabsf+2,___rem_pio2f@t+2
  6337   0020B0  C007  F0A0         	movff	?_fabsf+3,___rem_pio2f@t+3
  6338   0020B4  0E00               	movlw	0
  6339   0020B6  6E39               	movwf	___fladd@a^0,c
  6340   0020B8  0E00               	movlw	0
  6341   0020BA  6E3A               	movwf	(___fladd@a+1)^0,c
  6342   0020BC  0E00               	movlw	0
  6343   0020BE  6E3B               	movwf	(___fladd@a+2)^0,c
  6344   0020C0  0E3F               	movlw	63
  6345   0020C2  6E3C               	movwf	(___fladd@a+3)^0,c
  6346   0020C4  0E83               	movlw	131
  6347   0020C6  6E49               	movwf	___flmul@a^0,c
  6348   0020C8  0EF9               	movlw	249
  6349   0020CA  6E4A               	movwf	(___flmul@a+1)^0,c
  6350   0020CC  0E22               	movlw	34
  6351   0020CE  6E4B               	movwf	(___flmul@a+2)^0,c
  6352   0020D0  0E3F               	movlw	63
  6353   0020D2  6E4C               	movwf	(___flmul@a+3)^0,c
  6354   0020D4  C09D  F045         	movff	___rem_pio2f@t,___flmul@b
  6355   0020D8  C09E  F046         	movff	___rem_pio2f@t+1,___flmul@b+1
  6356   0020DC  C09F  F047         	movff	___rem_pio2f@t+2,___flmul@b+2
  6357   0020E0  C0A0  F048         	movff	___rem_pio2f@t+3,___flmul@b+3
  6358   0020E4  EC1D  F00C         	call	___flmul	;wreg free
  6359   0020E8  C045  F035         	movff	?___flmul,___fladd@b
  6360   0020EC  C046  F036         	movff	?___flmul+1,___fladd@b+1
  6361   0020F0  C047  F037         	movff	?___flmul+2,___fladd@b+2
  6362   0020F4  C048  F038         	movff	?___flmul+3,___fladd@b+3
  6363   0020F8  ECBD  F009         	call	___fladd	;wreg free
  6364   0020FC  C035  F06D         	movff	?___fladd,___fltol@f1
  6365   002100  C036  F06E         	movff	?___fladd+1,___fltol@f1+1
  6366   002104  C037  F06F         	movff	?___fladd+2,___fltol@f1+2
  6367   002108  C038  F070         	movff	?___fladd+3,___fltol@f1+3
  6368   00210C  ECE8  F019         	call	___fltol	;wreg free
  6369   002110  C06D  F0A1         	movff	?___fltol,___rem_pio2f@n
  6370   002114  C06E  F0A2         	movff	?___fltol+1,___rem_pio2f@n+1
  6371   002118  C06F  F0A3         	movff	?___fltol+2,___rem_pio2f@n+2
  6372   00211C  C070  F0A4         	movff	?___fltol+3,___rem_pio2f@n+3
  6373   002120  C0A1  F00E         	movff	___rem_pio2f@n,___xxtofl@val
  6374   002124  C0A2  F00F         	movff	___rem_pio2f@n+1,___xxtofl@val+1
  6375   002128  C0A3  F010         	movff	___rem_pio2f@n+2,___xxtofl@val+2
  6376   00212C  C0A4  F011         	movff	___rem_pio2f@n+3,___xxtofl@val+3
  6377   002130  0E01               	movlw	1
  6378   002132  ECC9  F016         	call	___xxtofl
  6379   002136  C00E  F099         	movff	?___xxtofl,___rem_pio2f@fn
  6380   00213A  C00F  F09A         	movff	?___xxtofl+1,___rem_pio2f@fn+1
  6381   00213E  C010  F09B         	movff	?___xxtofl+2,___rem_pio2f@fn+2
  6382   002142  C011  F09C         	movff	?___xxtofl+3,___rem_pio2f@fn+3
  6383   002146  0EDA               	movlw	218
  6384   002148  6E49               	movwf	___flmul@a^0,c
  6385   00214A  0E0F               	movlw	15
  6386   00214C  6E4A               	movwf	(___flmul@a+1)^0,c
  6387   00214E  0EC9               	movlw	201
  6388   002150  6E4B               	movwf	(___flmul@a+2)^0,c
  6389   002152  0E3F               	movlw	63
  6390   002154  6E4C               	movwf	(___flmul@a+3)^0,c
  6391   002156  C099  F045         	movff	___rem_pio2f@fn,___flmul@b
  6392   00215A  C09A  F046         	movff	___rem_pio2f@fn+1,___flmul@b+1
  6393   00215E  C09B  F047         	movff	___rem_pio2f@fn+2,___flmul@b+2
  6394   002162  C09C  F048         	movff	___rem_pio2f@fn+3,___flmul@b+3
  6395   002166  EC1D  F00C         	call	___flmul	;wreg free
  6396   00216A  C045  F055         	movff	?___flmul,___flsub@a
  6397   00216E  C046  F056         	movff	?___flmul+1,___flsub@a+1
  6398   002172  C047  F057         	movff	?___flmul+2,___flsub@a+2
  6399   002176  C048  F058         	movff	?___flmul+3,___flsub@a+3
  6400   00217A  C09D  F051         	movff	___rem_pio2f@t,___flsub@b
  6401   00217E  C09E  F052         	movff	___rem_pio2f@t+1,___flsub@b+1
  6402   002182  C09F  F053         	movff	___rem_pio2f@t+2,___flsub@b+2
  6403   002186  C0A0  F054         	movff	___rem_pio2f@t+3,___flsub@b+3
  6404   00218A  EC14  F01F         	call	___flsub	;wreg free
  6405   00218E  C051  F090         	movff	?___flsub,___rem_pio2f$2466
  6406   002192  C052  F091         	movff	?___flsub+1,___rem_pio2f$2466+1
  6407   002196  C053  F092         	movff	?___flsub+2,___rem_pio2f$2466+2
  6408   00219A  C054  F093         	movff	?___flsub+3,___rem_pio2f$2466+3
  6409   00219E  C090  F051         	movff	___rem_pio2f$2466,___flsub@b
  6410   0021A2  C091  F052         	movff	___rem_pio2f$2466+1,___flsub@b+1
  6411   0021A6  C092  F053         	movff	___rem_pio2f$2466+2,___flsub@b+2
  6412   0021AA  C093  F054         	movff	___rem_pio2f$2466+3,___flsub@b+3
  6413   0021AE  0EA3               	movlw	163
  6414   0021B0  6E49               	movwf	___flmul@a^0,c
  6415   0021B2  0E85               	movlw	133
  6416   0021B4  6E4A               	movwf	(___flmul@a+1)^0,c
  6417   0021B6  0E88               	movlw	136
  6418   0021B8  6E4B               	movwf	(___flmul@a+2)^0,c
  6419   0021BA  0E32               	movlw	50
  6420   0021BC  6E4C               	movwf	(___flmul@a+3)^0,c
  6421   0021BE  C099  F045         	movff	___rem_pio2f@fn,___flmul@b
  6422   0021C2  C09A  F046         	movff	___rem_pio2f@fn+1,___flmul@b+1
  6423   0021C6  C09B  F047         	movff	___rem_pio2f@fn+2,___flmul@b+2
  6424   0021CA  C09C  F048         	movff	___rem_pio2f@fn+3,___flmul@b+3
  6425   0021CE  EC1D  F00C         	call	___flmul	;wreg free
  6426   0021D2  C045  F055         	movff	?___flmul,___flsub@a
  6427   0021D6  C046  F056         	movff	?___flmul+1,___flsub@a+1
  6428   0021DA  C047  F057         	movff	?___flmul+2,___flsub@a+2
  6429   0021DE  C048  F058         	movff	?___flmul+3,___flsub@a+3
  6430   0021E2  EC14  F01F         	call	___flsub	;wreg free
  6431   0021E6  0100               	movlb	0	; () banked
  6432   0021E8  5189               	movf	___rem_pio2f@y& (0+255),w,b
  6433   0021EA  6ED9               	movwf	fsr2l,c
  6434   0021EC  6ADA               	clrf	fsr2h,c
  6435   0021EE  C051  FFDE         	movff	?___flsub,postinc2
  6436   0021F2  C052  FFDE         	movff	?___flsub+1,postinc2
  6437   0021F6  C053  FFDE         	movff	?___flsub+2,postinc2
  6438   0021FA  C054  FFDE         	movff	?___flsub+3,postinc2
  6439   0021FE                     
  6440                           ; BSR set to: 0
  6441   0021FE  5194               	movf	___rem_pio2f@sign& (0+255),w,b
  6442   002200  B4D8               	btfsc	status,2,c
  6443   002202  EF05  F011         	goto	u4961
  6444   002206  EF07  F011         	goto	u4960
  6445   00220A                     u4961:
  6446   00220A  EF2E  F011         	goto	l1194
  6447   00220E                     u4960:
  6448   00220E                     l4380:
  6449                           
  6450                           ; BSR set to: 0
  6451   00220E  5189               	movf	___rem_pio2f@y& (0+255),w,b
  6452   002210  6ED9               	movwf	fsr2l,c
  6453   002212  6ADA               	clrf	fsr2h,c
  6454   002214  CFDE F055          	movff	postinc2,___flneg@f1
  6455   002218  CFDE F056          	movff	postinc2,___flneg@f1+1
  6456   00221C  CFDE F057          	movff	postinc2,___flneg@f1+2
  6457   002220  CFDE F058          	movff	postinc2,___flneg@f1+3
  6458   002224  ECD0  F01F         	call	___flneg	;wreg free
  6459   002228  0100               	movlb	0	; () banked
  6460   00222A  5189               	movf	___rem_pio2f@y& (0+255),w,b
  6461   00222C  6ED9               	movwf	fsr2l,c
  6462   00222E  6ADA               	clrf	fsr2h,c
  6463   002230  C055  FFDE         	movff	?___flneg,postinc2
  6464   002234  C056  FFDE         	movff	?___flneg+1,postinc2
  6465   002238  C057  FFDE         	movff	?___flneg+2,postinc2
  6466   00223C  C058  FFDE         	movff	?___flneg+3,postinc2
  6467   002240                     
  6468                           ; BSR set to: 0
  6469   002240  C0A1  F08A         	movff	___rem_pio2f@n,??___rem_pio2f
  6470   002244  C0A2  F08B         	movff	___rem_pio2f@n+1,??___rem_pio2f+1
  6471   002248  1F8A               	comf	??___rem_pio2f& (0+255),f,b
  6472   00224A  1F8B               	comf	(??___rem_pio2f+1)& (0+255),f,b
  6473   00224C  4B8A               	infsnz	??___rem_pio2f& (0+255),f,b
  6474   00224E  2B8B               	incf	(??___rem_pio2f+1)& (0+255),f,b
  6475   002250  C08A  F085         	movff	??___rem_pio2f,?___rem_pio2f
  6476   002254  C08B  F086         	movff	??___rem_pio2f+1,?___rem_pio2f+1
  6477   002258  EFFD  F011         	goto	l1195
  6478   00225C                     l1194:
  6479                           
  6480                           ; BSR set to: 0
  6481   00225C  C0A1  F085         	movff	___rem_pio2f@n,?___rem_pio2f
  6482   002260  C0A2  F086         	movff	___rem_pio2f@n+1,?___rem_pio2f+1
  6483   002264  EFFD  F011         	goto	l1195
  6484   002268                     l4386:
  6485                           
  6486                           ; BSR set to: 0
  6487   002268  C085  F004         	movff	___rem_pio2f@x,fabsf@x
  6488   00226C  C086  F005         	movff	___rem_pio2f@x+1,fabsf@x+1
  6489   002270  C087  F006         	movff	___rem_pio2f@x+2,fabsf@x+2
  6490   002274  C088  F007         	movff	___rem_pio2f@x+3,fabsf@x+3
  6491   002278  EC20  F020         	call	_fabsf	;wreg free
  6492   00227C  C004  F09D         	movff	?_fabsf,___rem_pio2f@t
  6493   002280  C005  F09E         	movff	?_fabsf+1,___rem_pio2f@t+1
  6494   002284  C006  F09F         	movff	?_fabsf+2,___rem_pio2f@t+2
  6495   002288  C007  F0A0         	movff	?_fabsf+3,___rem_pio2f@t+3
  6496   00228C  0E00               	movlw	0
  6497   00228E  6E39               	movwf	___fladd@a^0,c
  6498   002290  0E00               	movlw	0
  6499   002292  6E3A               	movwf	(___fladd@a+1)^0,c
  6500   002294  0E00               	movlw	0
  6501   002296  6E3B               	movwf	(___fladd@a+2)^0,c
  6502   002298  0E3F               	movlw	63
  6503   00229A  6E3C               	movwf	(___fladd@a+3)^0,c
  6504   00229C  0E83               	movlw	131
  6505   00229E  6E49               	movwf	___flmul@a^0,c
  6506   0022A0  0EF9               	movlw	249
  6507   0022A2  6E4A               	movwf	(___flmul@a+1)^0,c
  6508   0022A4  0E22               	movlw	34
  6509   0022A6  6E4B               	movwf	(___flmul@a+2)^0,c
  6510   0022A8  0E3F               	movlw	63
  6511   0022AA  6E4C               	movwf	(___flmul@a+3)^0,c
  6512   0022AC  C09D  F045         	movff	___rem_pio2f@t,___flmul@b
  6513   0022B0  C09E  F046         	movff	___rem_pio2f@t+1,___flmul@b+1
  6514   0022B4  C09F  F047         	movff	___rem_pio2f@t+2,___flmul@b+2
  6515   0022B8  C0A0  F048         	movff	___rem_pio2f@t+3,___flmul@b+3
  6516   0022BC  EC1D  F00C         	call	___flmul	;wreg free
  6517   0022C0  C045  F035         	movff	?___flmul,___fladd@b
  6518   0022C4  C046  F036         	movff	?___flmul+1,___fladd@b+1
  6519   0022C8  C047  F037         	movff	?___flmul+2,___fladd@b+2
  6520   0022CC  C048  F038         	movff	?___flmul+3,___fladd@b+3
  6521   0022D0  ECBD  F009         	call	___fladd	;wreg free
  6522   0022D4  C035  F06D         	movff	?___fladd,___fltol@f1
  6523   0022D8  C036  F06E         	movff	?___fladd+1,___fltol@f1+1
  6524   0022DC  C037  F06F         	movff	?___fladd+2,___fltol@f1+2
  6525   0022E0  C038  F070         	movff	?___fladd+3,___fltol@f1+3
  6526   0022E4  ECE8  F019         	call	___fltol	;wreg free
  6527   0022E8  C06D  F0A1         	movff	?___fltol,___rem_pio2f@n
  6528   0022EC  C06E  F0A2         	movff	?___fltol+1,___rem_pio2f@n+1
  6529   0022F0  C06F  F0A3         	movff	?___fltol+2,___rem_pio2f@n+2
  6530   0022F4  C070  F0A4         	movff	?___fltol+3,___rem_pio2f@n+3
  6531   0022F8  C0A1  F00E         	movff	___rem_pio2f@n,___xxtofl@val
  6532   0022FC  C0A2  F00F         	movff	___rem_pio2f@n+1,___xxtofl@val+1
  6533   002300  C0A3  F010         	movff	___rem_pio2f@n+2,___xxtofl@val+2
  6534   002304  C0A4  F011         	movff	___rem_pio2f@n+3,___xxtofl@val+3
  6535   002308  0E01               	movlw	1
  6536   00230A  ECC9  F016         	call	___xxtofl
  6537   00230E  C00E  F099         	movff	?___xxtofl,___rem_pio2f@fn
  6538   002312  C00F  F09A         	movff	?___xxtofl+1,___rem_pio2f@fn+1
  6539   002316  C010  F09B         	movff	?___xxtofl+2,___rem_pio2f@fn+2
  6540   00231A  C011  F09C         	movff	?___xxtofl+3,___rem_pio2f@fn+3
  6541   00231E  0EDA               	movlw	218
  6542   002320  6E49               	movwf	___flmul@a^0,c
  6543   002322  0E0F               	movlw	15
  6544   002324  6E4A               	movwf	(___flmul@a+1)^0,c
  6545   002326  0EC9               	movlw	201
  6546   002328  6E4B               	movwf	(___flmul@a+2)^0,c
  6547   00232A  0E3F               	movlw	63
  6548   00232C  6E4C               	movwf	(___flmul@a+3)^0,c
  6549   00232E  C099  F045         	movff	___rem_pio2f@fn,___flmul@b
  6550   002332  C09A  F046         	movff	___rem_pio2f@fn+1,___flmul@b+1
  6551   002336  C09B  F047         	movff	___rem_pio2f@fn+2,___flmul@b+2
  6552   00233A  C09C  F048         	movff	___rem_pio2f@fn+3,___flmul@b+3
  6553   00233E  EC1D  F00C         	call	___flmul	;wreg free
  6554   002342  C045  F055         	movff	?___flmul,___flsub@a
  6555   002346  C046  F056         	movff	?___flmul+1,___flsub@a+1
  6556   00234A  C047  F057         	movff	?___flmul+2,___flsub@a+2
  6557   00234E  C048  F058         	movff	?___flmul+3,___flsub@a+3
  6558   002352  C09D  F051         	movff	___rem_pio2f@t,___flsub@b
  6559   002356  C09E  F052         	movff	___rem_pio2f@t+1,___flsub@b+1
  6560   00235A  C09F  F053         	movff	___rem_pio2f@t+2,___flsub@b+2
  6561   00235E  C0A0  F054         	movff	___rem_pio2f@t+3,___flsub@b+3
  6562   002362  EC14  F01F         	call	___flsub	;wreg free
  6563   002366  C051  F090         	movff	?___flsub,___rem_pio2f$2466
  6564   00236A  C052  F091         	movff	?___flsub+1,___rem_pio2f$2466+1
  6565   00236E  C053  F092         	movff	?___flsub+2,___rem_pio2f$2466+2
  6566   002372  C054  F093         	movff	?___flsub+3,___rem_pio2f$2466+3
  6567   002376  C090  F051         	movff	___rem_pio2f$2466,___flsub@b
  6568   00237A  C091  F052         	movff	___rem_pio2f$2466+1,___flsub@b+1
  6569   00237E  C092  F053         	movff	___rem_pio2f$2466+2,___flsub@b+2
  6570   002382  C093  F054         	movff	___rem_pio2f$2466+3,___flsub@b+3
  6571   002386  0EA3               	movlw	163
  6572   002388  6E49               	movwf	___flmul@a^0,c
  6573   00238A  0E85               	movlw	133
  6574   00238C  6E4A               	movwf	(___flmul@a+1)^0,c
  6575   00238E  0E88               	movlw	136
  6576   002390  6E4B               	movwf	(___flmul@a+2)^0,c
  6577   002392  0E32               	movlw	50
  6578   002394  6E4C               	movwf	(___flmul@a+3)^0,c
  6579   002396  C099  F045         	movff	___rem_pio2f@fn,___flmul@b
  6580   00239A  C09A  F046         	movff	___rem_pio2f@fn+1,___flmul@b+1
  6581   00239E  C09B  F047         	movff	___rem_pio2f@fn+2,___flmul@b+2
  6582   0023A2  C09C  F048         	movff	___rem_pio2f@fn+3,___flmul@b+3
  6583   0023A6  EC1D  F00C         	call	___flmul	;wreg free
  6584   0023AA  C045  F055         	movff	?___flmul,___flsub@a
  6585   0023AE  C046  F056         	movff	?___flmul+1,___flsub@a+1
  6586   0023B2  C047  F057         	movff	?___flmul+2,___flsub@a+2
  6587   0023B6  C048  F058         	movff	?___flmul+3,___flsub@a+3
  6588   0023BA  EC14  F01F         	call	___flsub	;wreg free
  6589   0023BE  C051  F08C         	movff	?___flsub,___rem_pio2f@ty
  6590   0023C2  C052  F08D         	movff	?___flsub+1,___rem_pio2f@ty+1
  6591   0023C6  C053  F08E         	movff	?___flsub+2,___rem_pio2f@ty+2
  6592   0023CA  C054  F08F         	movff	?___flsub+3,___rem_pio2f@ty+3
  6593   0023CE  0100               	movlb	0	; () banked
  6594   0023D0  5189               	movf	___rem_pio2f@y& (0+255),w,b
  6595   0023D2  6ED9               	movwf	fsr2l,c
  6596   0023D4  6ADA               	clrf	fsr2h,c
  6597   0023D6  C08C  FFDE         	movff	___rem_pio2f@ty,postinc2
  6598   0023DA  C08D  FFDE         	movff	___rem_pio2f@ty+1,postinc2
  6599   0023DE  C08E  FFDE         	movff	___rem_pio2f@ty+2,postinc2
  6600   0023E2  C08F  FFDE         	movff	___rem_pio2f@ty+3,postinc2
  6601   0023E6                     
  6602                           ; BSR set to: 0
  6603   0023E6  5194               	movf	___rem_pio2f@sign& (0+255),w,b
  6604   0023E8  B4D8               	btfsc	status,2,c
  6605   0023EA  EFF9  F011         	goto	u4971
  6606   0023EE  EFFB  F011         	goto	u4970
  6607   0023F2                     u4971:
  6608   0023F2  EF2E  F011         	goto	l1194
  6609   0023F6                     u4970:
  6610   0023F6  EF07  F011         	goto	l4380
  6611   0023FA                     l1195:
  6612                           
  6613                           ; BSR set to: 0
  6614   0023FA  0012               	return		;funcret
  6615   0023FC                     __end_of___rem_pio2f:
  6616                           	callstack 0
  6617                           
  6618 ;; *************** function _fabsf *****************
  6619 ;; Defined at:
  6620 ;;		line 4 in file "C:\Program Files\Microchip\xc8\v2.45\pic\sources\c99\common\fabsf.c"
  6621 ;; Parameters:    Size  Location     Type
  6622 ;;  x               4    3[COMRAM] float 
  6623 ;; Auto vars:     Size  Location     Type
  6624 ;;  u               4    7[COMRAM] struct .
  6625 ;; Return value:  Size  Location     Type
  6626 ;;                  4    3[COMRAM] float 
  6627 ;; Registers used:
  6628 ;;		status,2, status,0
  6629 ;; Tracked objects:
  6630 ;;		On entry : 0/0
  6631 ;;		On exit  : 0/0
  6632 ;;		Unchanged: 0/0
  6633 ;; Data sizes:     COMRAM   BANK0   BANK1   BANK2   BANK3   BANK4   BANK5   BANK6   BANK7   BANK8   BANK9  BANK10  BANK1
      +1  BANK12  BANK13
  6634 ;;      Params:         4       0       0       0       0       0       0       0       0       0       0       0       
      +0       0       0
  6635 ;;      Locals:         4       0       0       0       0       0       0       0       0       0       0       0       
      +0       0       0
  6636 ;;      Temps:          0       0       0       0       0       0       0       0       0       0       0       0       
      +0       0       0
  6637 ;;      Totals:         8       0       0       0       0       0       0       0       0       0       0       0       
      +0       0       0
  6638 ;;Total ram usage:        8 bytes
  6639 ;; Hardware stack levels used: 1
  6640 ;; Hardware stack levels required when called: 2
  6641 ;; This function calls:
  6642 ;;		Nothing
  6643 ;; This function is called by:
  6644 ;;		___rem_pio2f
  6645 ;; This function uses a non-reentrant model
  6646 ;;
  6647                           
  6648                           	psect	text37
  6649   004040                     __ptext37:
  6650                           	callstack 0
  6651   004040                     _fabsf:
  6652                           	callstack 25
  6653   004040  C10A  F008         	movff	fabsf@F465,fabsf@u
  6654   004044  C10B  F009         	movff	fabsf@F465+1,fabsf@u+1
  6655   004048  C10C  F00A         	movff	fabsf@F465+2,fabsf@u+2
  6656   00404C  C10D  F00B         	movff	fabsf@F465+3,fabsf@u+3
  6657   004050  C004  F008         	movff	fabsf@x,fabsf@u
  6658   004054  C005  F009         	movff	fabsf@x+1,fabsf@u+1
  6659   004058  C006  F00A         	movff	fabsf@x+2,fabsf@u+2
  6660   00405C  C007  F00B         	movff	fabsf@x+3,fabsf@u+3
  6661   004060  9E0B               	bcf	(fabsf@u+3)^0,7,c
  6662   004062  C008  F004         	movff	fabsf@u,?_fabsf
  6663   004066  C009  F005         	movff	fabsf@u+1,?_fabsf+1
  6664   00406A  C00A  F006         	movff	fabsf@u+2,?_fabsf+2
  6665   00406E  C00B  F007         	movff	fabsf@u+3,?_fabsf+3
  6666   004072  0012               	return		;funcret
  6667   004074                     __end_of_fabsf:
  6668                           	callstack 0
  6669                           
  6670 ;; *************** function ___xxtofl *****************
  6671 ;; Defined at:
  6672 ;;		line 10 in file "C:\Program Files\Microchip\xc8\v2.45\pic\sources\c99\common\xxtofl.c"
  6673 ;; Parameters:    Size  Location     Type
  6674 ;;  sign            1    wreg     unsigned char 
  6675 ;;  val             4   13[COMRAM] long 
  6676 ;; Auto vars:     Size  Location     Type
  6677 ;;  sign            1   21[COMRAM] unsigned char 
  6678 ;;  arg             4   23[COMRAM] unsigned long 
  6679 ;;  exp             1   22[COMRAM] unsigned char 
  6680 ;; Return value:  Size  Location     Type
  6681 ;;                  4   13[COMRAM] unsigned char 
  6682 ;; Registers used:
  6683 ;;		wreg, status,2, status,0
  6684 ;; Tracked objects:
  6685 ;;		On entry : 0/0
  6686 ;;		On exit  : 0/0
  6687 ;;		Unchanged: 0/0
  6688 ;; Data sizes:     COMRAM   BANK0   BANK1   BANK2   BANK3   BANK4   BANK5   BANK6   BANK7   BANK8   BANK9  BANK10  BANK1
      +1  BANK12  BANK13
  6689 ;;      Params:         4       0       0       0       0       0       0       0       0       0       0       0       
      +0       0       0
  6690 ;;      Locals:         6       0       0       0       0       0       0       0       0       0       0       0       
      +0       0       0
  6691 ;;      Temps:          4       0       0       0       0       0       0       0       0       0       0       0       
      +0       0       0
  6692 ;;      Totals:        14       0       0       0       0       0       0       0       0       0       0       0       
      +0       0       0
  6693 ;;Total ram usage:       14 bytes
  6694 ;; Hardware stack levels used: 1
  6695 ;; Hardware stack levels required when called: 2
  6696 ;; This function calls:
  6697 ;;		Nothing
  6698 ;; This function is called by:
  6699 ;;		_Callibrate
  6700 ;;		___rem_pio2f
  6701 ;; This function uses a non-reentrant model
  6702 ;;
  6703                           
  6704                           	psect	text38
  6705   002D92                     __ptext38:
  6706                           	callstack 0
  6707   002D92                     ___xxtofl:
  6708                           	callstack 25
  6709                           
  6710                           ;incstack = 0
  6711                           ;___xxtofl@sign stored from wreg
  6712   002D92  6E16               	movwf	___xxtofl@sign^0,c
  6713   002D94  5016               	movf	___xxtofl@sign^0,w,c
  6714   002D96  B4D8               	btfsc	status,2,c
  6715   002D98  EFD0  F016         	goto	u3381
  6716   002D9C  EFD2  F016         	goto	u3380
  6717   002DA0                     u3381:
  6718   002DA0  EFF4  F016         	goto	l1002
  6719   002DA4                     u3380:
  6720   002DA4  BE11               	btfsc	(___xxtofl@val+3)^0,7,c
  6721   002DA6  EFD9  F016         	goto	u3390
  6722   002DAA  EFD7  F016         	goto	u3391
  6723   002DAE                     u3391:
  6724   002DAE  EFF4  F016         	goto	l1002
  6725   002DB2                     u3390:
  6726   002DB2  C00E  F012         	movff	___xxtofl@val,??___xxtofl
  6727   002DB6  C00F  F013         	movff	___xxtofl@val+1,??___xxtofl+1
  6728   002DBA  C010  F014         	movff	___xxtofl@val+2,??___xxtofl+2
  6729   002DBE  C011  F015         	movff	___xxtofl@val+3,??___xxtofl+3
  6730   002DC2  1E12               	comf	??___xxtofl^0,f,c
  6731   002DC4  1E13               	comf	(??___xxtofl+1)^0,f,c
  6732   002DC6  1E14               	comf	(??___xxtofl+2)^0,f,c
  6733   002DC8  1E15               	comf	(??___xxtofl+3)^0,f,c
  6734   002DCA  2A12               	incf	??___xxtofl^0,f,c
  6735   002DCC  0E00               	movlw	0
  6736   002DCE  2213               	addwfc	(??___xxtofl+1)^0,f,c
  6737   002DD0  2214               	addwfc	(??___xxtofl+2)^0,f,c
  6738   002DD2  2215               	addwfc	(??___xxtofl+3)^0,f,c
  6739   002DD4  C012  F018         	movff	??___xxtofl,___xxtofl@arg
  6740   002DD8  C013  F019         	movff	??___xxtofl+1,___xxtofl@arg+1
  6741   002DDC  C014  F01A         	movff	??___xxtofl+2,___xxtofl@arg+2
  6742   002DE0  C015  F01B         	movff	??___xxtofl+3,___xxtofl@arg+3
  6743   002DE4  EFFC  F016         	goto	l3338
  6744   002DE8                     l1002:
  6745   002DE8  C00E  F018         	movff	___xxtofl@val,___xxtofl@arg
  6746   002DEC  C00F  F019         	movff	___xxtofl@val+1,___xxtofl@arg+1
  6747   002DF0  C010  F01A         	movff	___xxtofl@val+2,___xxtofl@arg+2
  6748   002DF4  C011  F01B         	movff	___xxtofl@val+3,___xxtofl@arg+3
  6749   002DF8                     l3338:
  6750   002DF8  500E               	movf	___xxtofl@val^0,w,c
  6751   002DFA  100F               	iorwf	(___xxtofl@val+1)^0,w,c
  6752   002DFC  1010               	iorwf	(___xxtofl@val+2)^0,w,c
  6753   002DFE  1011               	iorwf	(___xxtofl@val+3)^0,w,c
  6754   002E00  A4D8               	btfss	status,2,c
  6755   002E02  EF05  F017         	goto	u3401
  6756   002E06  EF07  F017         	goto	u3400
  6757   002E0A                     u3401:
  6758   002E0A  EF11  F017         	goto	l3344
  6759   002E0E                     u3400:
  6760   002E0E  0E00               	movlw	0
  6761   002E10  6E0E               	movwf	?___xxtofl^0,c
  6762   002E12  0E00               	movlw	0
  6763   002E14  6E0F               	movwf	(?___xxtofl+1)^0,c
  6764   002E16  0E00               	movlw	0
  6765   002E18  6E10               	movwf	(?___xxtofl+2)^0,c
  6766   002E1A  0E00               	movlw	0
  6767   002E1C  6E11               	movwf	(?___xxtofl+3)^0,c
  6768   002E1E  EFA2  F017         	goto	l1005
  6769   002E22                     l3344:
  6770   002E22  0E96               	movlw	150
  6771   002E24  6E17               	movwf	___xxtofl@exp^0,c
  6772   002E26  EF1B  F017         	goto	l3348
  6773   002E2A                     l3346:
  6774   002E2A  2A17               	incf	___xxtofl@exp^0,f,c
  6775   002E2C  90D8               	bcf	status,0,c
  6776   002E2E  321B               	rrcf	(___xxtofl@arg+3)^0,f,c
  6777   002E30  321A               	rrcf	(___xxtofl@arg+2)^0,f,c
  6778   002E32  3219               	rrcf	(___xxtofl@arg+1)^0,f,c
  6779   002E34  3218               	rrcf	___xxtofl@arg^0,f,c
  6780   002E36                     l3348:
  6781   002E36  0E00               	movlw	0
  6782   002E38  1418               	andwf	___xxtofl@arg^0,w,c
  6783   002E3A  6E12               	movwf	??___xxtofl^0,c
  6784   002E3C  0E00               	movlw	0
  6785   002E3E  1419               	andwf	(___xxtofl@arg+1)^0,w,c
  6786   002E40  6E13               	movwf	(??___xxtofl+1)^0,c
  6787   002E42  0E00               	movlw	0
  6788   002E44  141A               	andwf	(___xxtofl@arg+2)^0,w,c
  6789   002E46  6E14               	movwf	(??___xxtofl+2)^0,c
  6790   002E48  0EFE               	movlw	254
  6791   002E4A  141B               	andwf	(___xxtofl@arg+3)^0,w,c
  6792   002E4C  6E15               	movwf	(??___xxtofl+3)^0,c
  6793   002E4E  5012               	movf	??___xxtofl^0,w,c
  6794   002E50  1013               	iorwf	(??___xxtofl+1)^0,w,c
  6795   002E52  1014               	iorwf	(??___xxtofl+2)^0,w,c
  6796   002E54  1015               	iorwf	(??___xxtofl+3)^0,w,c
  6797   002E56  A4D8               	btfss	status,2,c
  6798   002E58  EF30  F017         	goto	u3411
  6799   002E5C  EF32  F017         	goto	u3410
  6800   002E60                     u3411:
  6801   002E60  EF15  F017         	goto	l3346
  6802   002E64                     u3410:
  6803   002E64  EF40  F017         	goto	l1009
  6804   002E68                     l3350:
  6805   002E68  2A17               	incf	___xxtofl@exp^0,f,c
  6806   002E6A  0E01               	movlw	1
  6807   002E6C  2618               	addwf	___xxtofl@arg^0,f,c
  6808   002E6E  0E00               	movlw	0
  6809   002E70  2219               	addwfc	(___xxtofl@arg+1)^0,f,c
  6810   002E72  221A               	addwfc	(___xxtofl@arg+2)^0,f,c
  6811   002E74  221B               	addwfc	(___xxtofl@arg+3)^0,f,c
  6812   002E76  90D8               	bcf	status,0,c
  6813   002E78  321B               	rrcf	(___xxtofl@arg+3)^0,f,c
  6814   002E7A  321A               	rrcf	(___xxtofl@arg+2)^0,f,c
  6815   002E7C  3219               	rrcf	(___xxtofl@arg+1)^0,f,c
  6816   002E7E  3218               	rrcf	___xxtofl@arg^0,f,c
  6817   002E80                     l1009:
  6818   002E80  0E00               	movlw	0
  6819   002E82  1418               	andwf	___xxtofl@arg^0,w,c
  6820   002E84  6E12               	movwf	??___xxtofl^0,c
  6821   002E86  0E00               	movlw	0
  6822   002E88  1419               	andwf	(___xxtofl@arg+1)^0,w,c
  6823   002E8A  6E13               	movwf	(??___xxtofl+1)^0,c
  6824   002E8C  0E00               	movlw	0
  6825   002E8E  141A               	andwf	(___xxtofl@arg+2)^0,w,c
  6826   002E90  6E14               	movwf	(??___xxtofl+2)^0,c
  6827   002E92  0EFF               	movlw	255
  6828   002E94  141B               	andwf	(___xxtofl@arg+3)^0,w,c
  6829   002E96  6E15               	movwf	(??___xxtofl+3)^0,c
  6830   002E98  5012               	movf	??___xxtofl^0,w,c
  6831   002E9A  1013               	iorwf	(??___xxtofl+1)^0,w,c
  6832   002E9C  1014               	iorwf	(??___xxtofl+2)^0,w,c
  6833   002E9E  1015               	iorwf	(??___xxtofl+3)^0,w,c
  6834   002EA0  A4D8               	btfss	status,2,c
  6835   002EA2  EF55  F017         	goto	u3421
  6836   002EA6  EF57  F017         	goto	u3420
  6837   002EAA                     u3421:
  6838   002EAA  EF34  F017         	goto	l3350
  6839   002EAE                     u3420:
  6840   002EAE  EF5F  F017         	goto	l3358
  6841   002EB2                     l3356:
  6842   002EB2  0617               	decf	___xxtofl@exp^0,f,c
  6843   002EB4  90D8               	bcf	status,0,c
  6844   002EB6  3618               	rlcf	___xxtofl@arg^0,f,c
  6845   002EB8  3619               	rlcf	(___xxtofl@arg+1)^0,f,c
  6846   002EBA  361A               	rlcf	(___xxtofl@arg+2)^0,f,c
  6847   002EBC  361B               	rlcf	(___xxtofl@arg+3)^0,f,c
  6848   002EBE                     l3358:
  6849   002EBE  BE1A               	btfsc	(___xxtofl@arg+2)^0,7,c
  6850   002EC0  EF64  F017         	goto	u3431
  6851   002EC4  EF66  F017         	goto	u3430
  6852   002EC8                     u3431:
  6853   002EC8  EF6E  F017         	goto	l1016
  6854   002ECC                     u3430:
  6855   002ECC  0E02               	movlw	2
  6856   002ECE  6017               	cpfslt	___xxtofl@exp^0,c
  6857   002ED0  EF6C  F017         	goto	u3441
  6858   002ED4  EF6E  F017         	goto	u3440
  6859   002ED8                     u3441:
  6860   002ED8  EF59  F017         	goto	l3356
  6861   002EDC                     u3440:
  6862   002EDC                     l1016:
  6863   002EDC  B017               	btfsc	___xxtofl@exp^0,0,c
  6864   002EDE  EF73  F017         	goto	u3451
  6865   002EE2  EF75  F017         	goto	u3450
  6866   002EE6                     u3451:
  6867   002EE6  EF76  F017         	goto	l3364
  6868   002EEA                     u3450:
  6869   002EEA  9E1A               	bcf	(___xxtofl@arg+2)^0,7,c
  6870   002EEC                     l3364:
  6871   002EEC  90D8               	bcf	status,0,c
  6872   002EEE  3217               	rrcf	___xxtofl@exp^0,f,c
  6873   002EF0  C017  F012         	movff	___xxtofl@exp,??___xxtofl
  6874   002EF4  6A13               	clrf	(??___xxtofl+1)^0,c
  6875   002EF6  6A14               	clrf	(??___xxtofl+2)^0,c
  6876   002EF8  6A15               	clrf	(??___xxtofl+3)^0,c
  6877   002EFA  C012  F015         	movff	??___xxtofl,??___xxtofl+3
  6878   002EFE  6A14               	clrf	(??___xxtofl+2)^0,c
  6879   002F00  6A13               	clrf	(??___xxtofl+1)^0,c
  6880   002F02  6A12               	clrf	??___xxtofl^0,c
  6881   002F04  5012               	movf	??___xxtofl^0,w,c
  6882   002F06  1218               	iorwf	___xxtofl@arg^0,f,c
  6883   002F08  5013               	movf	(??___xxtofl+1)^0,w,c
  6884   002F0A  1219               	iorwf	(___xxtofl@arg+1)^0,f,c
  6885   002F0C  5014               	movf	(??___xxtofl+2)^0,w,c
  6886   002F0E  121A               	iorwf	(___xxtofl@arg+2)^0,f,c
  6887   002F10  5015               	movf	(??___xxtofl+3)^0,w,c
  6888   002F12  121B               	iorwf	(___xxtofl@arg+3)^0,f,c
  6889   002F14  5016               	movf	___xxtofl@sign^0,w,c
  6890   002F16  B4D8               	btfsc	status,2,c
  6891   002F18  EF90  F017         	goto	u3461
  6892   002F1C  EF92  F017         	goto	u3460
  6893   002F20                     u3461:
  6894   002F20  EF9A  F017         	goto	l3374
  6895   002F24                     u3460:
  6896   002F24  BE11               	btfsc	(___xxtofl@val+3)^0,7,c
  6897   002F26  EF99  F017         	goto	u3470
  6898   002F2A  EF97  F017         	goto	u3471
  6899   002F2E                     u3471:
  6900   002F2E  EF9A  F017         	goto	l3374
  6901   002F32                     u3470:
  6902   002F32  8E1B               	bsf	(___xxtofl@arg+3)^0,7,c
  6903   002F34                     l3374:
  6904   002F34  C018  F00E         	movff	___xxtofl@arg,?___xxtofl
  6905   002F38  C019  F00F         	movff	___xxtofl@arg+1,?___xxtofl+1
  6906   002F3C  C01A  F010         	movff	___xxtofl@arg+2,?___xxtofl+2
  6907   002F40  C01B  F011         	movff	___xxtofl@arg+3,?___xxtofl+3
  6908   002F44                     l1005:
  6909   002F44  0012               	return		;funcret
  6910   002F46                     __end_of___xxtofl:
  6911                           	callstack 0
  6912                           
  6913 ;; *************** function ___fltol *****************
  6914 ;; Defined at:
  6915 ;;		line 43 in file "C:\Program Files\Microchip\xc8\v2.45\pic\sources\c99\common\fltol.c"
  6916 ;; Parameters:    Size  Location     Type
  6917 ;;  f1              4   13[BANK0 ] unsigned char 
  6918 ;; Auto vars:     Size  Location     Type
  6919 ;;  exp1            1   22[BANK0 ] unsigned char 
  6920 ;;  sign1           1   21[BANK0 ] unsigned char 
  6921 ;; Return value:  Size  Location     Type
  6922 ;;                  4   13[BANK0 ] long 
  6923 ;; Registers used:
  6924 ;;		wreg, status,2, status,0
  6925 ;; Tracked objects:
  6926 ;;		On entry : 0/0
  6927 ;;		On exit  : 0/0
  6928 ;;		Unchanged: 0/0
  6929 ;; Data sizes:     COMRAM   BANK0   BANK1   BANK2   BANK3   BANK4   BANK5   BANK6   BANK7   BANK8   BANK9  BANK10  BANK1
      +1  BANK12  BANK13
  6930 ;;      Params:         0       4       0       0       0       0       0       0       0       0       0       0       
      +0       0       0
  6931 ;;      Locals:         0       2       0       0       0       0       0       0       0       0       0       0       
      +0       0       0
  6932 ;;      Temps:          0       4       0       0       0       0       0       0       0       0       0       0       
      +0       0       0
  6933 ;;      Totals:         0      10       0       0       0       0       0       0       0       0       0       0       
      +0       0       0
  6934 ;;Total ram usage:       10 bytes
  6935 ;; Hardware stack levels used: 1
  6936 ;; Hardware stack levels required when called: 2
  6937 ;; This function calls:
  6938 ;;		Nothing
  6939 ;; This function is called by:
  6940 ;;		_Callibrate
  6941 ;;		___rem_pio2f
  6942 ;; This function uses a non-reentrant model
  6943 ;;
  6944                           
  6945                           	psect	text39
  6946   0033D0                     __ptext39:
  6947                           	callstack 0
  6948   0033D0                     ___fltol:
  6949                           	callstack 25
  6950   0033D0  0100               	movlb	0	; () banked
  6951   0033D2  356F               	rlcf	(___fltol@f1+2)& (0+255),w,b
  6952   0033D4  3570               	rlcf	(___fltol@f1+3)& (0+255),w,b
  6953   0033D6  6F76               	movwf	___fltol@exp1& (0+255),b
  6954   0033D8  5176               	movf	___fltol@exp1& (0+255),w,b
  6955   0033DA  A4D8               	btfss	status,2,c
  6956   0033DC  EFF2  F019         	goto	u4801
  6957   0033E0  EFF4  F019         	goto	u4800
  6958   0033E4                     u4801:
  6959   0033E4  EFFE  F019         	goto	l4256
  6960   0033E8                     u4800:
  6961   0033E8                     l4252:
  6962                           
  6963                           ; BSR set to: 0
  6964   0033E8  0E00               	movlw	0
  6965   0033EA  6F6D               	movwf	?___fltol& (0+255),b
  6966   0033EC  0E00               	movlw	0
  6967   0033EE  6F6E               	movwf	(?___fltol+1)& (0+255),b
  6968   0033F0  0E00               	movlw	0
  6969   0033F2  6F6F               	movwf	(?___fltol+2)& (0+255),b
  6970   0033F4  0E00               	movlw	0
  6971   0033F6  6F70               	movwf	(?___fltol+3)& (0+255),b
  6972   0033F8  EF6B  F01A         	goto	l644
  6973   0033FC                     l4256:
  6974                           
  6975                           ; BSR set to: 0
  6976   0033FC  C06D  F071         	movff	___fltol@f1,??___fltol
  6977   003400  C06E  F072         	movff	___fltol@f1+1,??___fltol+1
  6978   003404  C06F  F073         	movff	___fltol@f1+2,??___fltol+2
  6979   003408  C070  F074         	movff	___fltol@f1+3,??___fltol+3
  6980   00340C  0E20               	movlw	32
  6981   00340E  EF0E  F01A         	goto	u4810
  6982   003412                     u4815:
  6983   003412  90D8               	bcf	status,0,c
  6984   003414  3374               	rrcf	(??___fltol+3)& (0+255),f,b
  6985   003416  3373               	rrcf	(??___fltol+2)& (0+255),f,b
  6986   003418  3372               	rrcf	(??___fltol+1)& (0+255),f,b
  6987   00341A  3371               	rrcf	??___fltol& (0+255),f,b
  6988   00341C                     u4810:
  6989   00341C  2EE8               	decfsz	wreg,f,c
  6990   00341E  EF09  F01A         	goto	u4815
  6991   003422  5171               	movf	??___fltol& (0+255),w,b
  6992   003424  6F75               	movwf	___fltol@sign1& (0+255),b
  6993   003426                     
  6994                           ; BSR set to: 0
  6995   003426  8F6F               	bsf	(___fltol@f1+2)& (0+255),7,b
  6996   003428                     
  6997                           ; BSR set to: 0
  6998   003428  0EFF               	movlw	255
  6999   00342A  176D               	andwf	___fltol@f1& (0+255),f,b
  7000   00342C  0EFF               	movlw	255
  7001   00342E  176E               	andwf	(___fltol@f1+1)& (0+255),f,b
  7002   003430  0EFF               	movlw	255
  7003   003432  176F               	andwf	(___fltol@f1+2)& (0+255),f,b
  7004   003434  0E00               	movlw	0
  7005   003436  1770               	andwf	(___fltol@f1+3)& (0+255),f,b
  7006   003438                     
  7007                           ; BSR set to: 0
  7008   003438  0E96               	movlw	150
  7009   00343A  5F76               	subwf	___fltol@exp1& (0+255),f,b
  7010   00343C                     
  7011                           ; BSR set to: 0
  7012   00343C  BF76               	btfsc	___fltol@exp1& (0+255),7,b
  7013   00343E  EF25  F01A         	goto	u4820
  7014   003442  EF23  F01A         	goto	u4821
  7015   003446                     u4821:
  7016   003446  EF3B  F01A         	goto	l4276
  7017   00344A                     u4820:
  7018   00344A                     
  7019                           ; BSR set to: 0
  7020   00344A  5176               	movf	___fltol@exp1& (0+255),w,b
  7021   00344C  0A80               	xorlw	128
  7022   00344E  0F97               	addlw	151
  7023   003450  B0D8               	btfsc	status,0,c
  7024   003452  EF2D  F01A         	goto	u4831
  7025   003456  EF2F  F01A         	goto	u4830
  7026   00345A                     u4831:
  7027   00345A  EF31  F01A         	goto	l4272
  7028   00345E                     u4830:
  7029   00345E  EFF4  F019         	goto	l4252
  7030   003462                     l4272:
  7031                           
  7032                           ; BSR set to: 0
  7033   003462  90D8               	bcf	status,0,c
  7034   003464  3370               	rrcf	(___fltol@f1+3)& (0+255),f,b
  7035   003466  336F               	rrcf	(___fltol@f1+2)& (0+255),f,b
  7036   003468  336E               	rrcf	(___fltol@f1+1)& (0+255),f,b
  7037   00346A  336D               	rrcf	___fltol@f1& (0+255),f,b
  7038   00346C                     
  7039                           ; BSR set to: 0
  7040   00346C  3F76               	incfsz	___fltol@exp1& (0+255),f,b
  7041   00346E  EF31  F01A         	goto	l4272
  7042   003472  EF53  F01A         	goto	l4286
  7043   003476                     l4276:
  7044                           
  7045                           ; BSR set to: 0
  7046   003476  0E1F               	movlw	31
  7047   003478  6576               	cpfsgt	___fltol@exp1& (0+255),b
  7048   00347A  EF41  F01A         	goto	u4841
  7049   00347E  EF43  F01A         	goto	u4840
  7050   003482                     u4841:
  7051   003482  EF4B  F01A         	goto	l4284
  7052   003486                     u4840:
  7053   003486  EFF4  F019         	goto	l4252
  7054   00348A                     l4282:
  7055                           
  7056                           ; BSR set to: 0
  7057   00348A  90D8               	bcf	status,0,c
  7058   00348C  376D               	rlcf	___fltol@f1& (0+255),f,b
  7059   00348E  376E               	rlcf	(___fltol@f1+1)& (0+255),f,b
  7060   003490  376F               	rlcf	(___fltol@f1+2)& (0+255),f,b
  7061   003492  3770               	rlcf	(___fltol@f1+3)& (0+255),f,b
  7062   003494  0776               	decf	___fltol@exp1& (0+255),f,b
  7063   003496                     l4284:
  7064                           
  7065                           ; BSR set to: 0
  7066   003496  5176               	movf	___fltol@exp1& (0+255),w,b
  7067   003498  A4D8               	btfss	status,2,c
  7068   00349A  EF51  F01A         	goto	u4851
  7069   00349E  EF53  F01A         	goto	u4850
  7070   0034A2                     u4851:
  7071   0034A2  EF45  F01A         	goto	l4282
  7072   0034A6                     u4850:
  7073   0034A6                     l4286:
  7074                           
  7075                           ; BSR set to: 0
  7076   0034A6  5175               	movf	___fltol@sign1& (0+255),w,b
  7077   0034A8  B4D8               	btfsc	status,2,c
  7078   0034AA  EF59  F01A         	goto	u4861
  7079   0034AE  EF5B  F01A         	goto	u4860
  7080   0034B2                     u4861:
  7081   0034B2  EF63  F01A         	goto	l4290
  7082   0034B6                     u4860:
  7083   0034B6                     
  7084                           ; BSR set to: 0
  7085   0034B6  1F70               	comf	(___fltol@f1+3)& (0+255),f,b
  7086   0034B8  1F6F               	comf	(___fltol@f1+2)& (0+255),f,b
  7087   0034BA  1F6E               	comf	(___fltol@f1+1)& (0+255),f,b
  7088   0034BC  6D6D               	negf	___fltol@f1& (0+255),b
  7089   0034BE  0E00               	movlw	0
  7090   0034C0  236E               	addwfc	(___fltol@f1+1)& (0+255),f,b
  7091   0034C2  236F               	addwfc	(___fltol@f1+2)& (0+255),f,b
  7092   0034C4  2370               	addwfc	(___fltol@f1+3)& (0+255),f,b
  7093   0034C6                     l4290:
  7094                           
  7095                           ; BSR set to: 0
  7096   0034C6  C06D  F06D         	movff	___fltol@f1,?___fltol
  7097   0034CA  C06E  F06E         	movff	___fltol@f1+1,?___fltol+1
  7098   0034CE  C06F  F06F         	movff	___fltol@f1+2,?___fltol+2
  7099   0034D2  C070  F070         	movff	___fltol@f1+3,?___fltol+3
  7100   0034D6                     l644:
  7101                           
  7102                           ; BSR set to: 0
  7103   0034D6  0012               	return		;funcret
  7104   0034D8                     __end_of___fltol:
  7105                           	callstack 0
  7106                           
  7107 ;; *************** function ___flsub *****************
  7108 ;; Defined at:
  7109 ;;		line 245 in file "C:\Program Files\Microchip\xc8\v2.45\pic\sources\c99\common\sprcadd.c"
  7110 ;; Parameters:    Size  Location     Type
  7111 ;;  b               4   80[COMRAM] long 
  7112 ;;  a               4   84[COMRAM] long 
  7113 ;; Auto vars:     Size  Location     Type
  7114 ;;		None
  7115 ;; Return value:  Size  Location     Type
  7116 ;;                  4   80[COMRAM] long 
  7117 ;; Registers used:
  7118 ;;		wreg, status,2, status,0, cstack
  7119 ;; Tracked objects:
  7120 ;;		On entry : 0/0
  7121 ;;		On exit  : 0/0
  7122 ;;		Unchanged: 0/0
  7123 ;; Data sizes:     COMRAM   BANK0   BANK1   BANK2   BANK3   BANK4   BANK5   BANK6   BANK7   BANK8   BANK9  BANK10  BANK1
      +1  BANK12  BANK13
  7124 ;;      Params:         8       0       0       0       0       0       0       0       0       0       0       0       
      +0       0       0
  7125 ;;      Locals:         0       0       0       0       0       0       0       0       0       0       0       0       
      +0       0       0
  7126 ;;      Temps:          0       0       0       0       0       0       0       0       0       0       0       0       
      +0       0       0
  7127 ;;      Totals:         8       0       0       0       0       0       0       0       0       0       0       0       
      +0       0       0
  7128 ;;Total ram usage:        8 bytes
  7129 ;; Hardware stack levels used: 1
  7130 ;; Hardware stack levels required when called: 3
  7131 ;; This function calls:
  7132 ;;		___fladd
  7133 ;; This function is called by:
  7134 ;;		_Callibrate
  7135 ;;		___rem_pio2f
  7136 ;; This function uses a non-reentrant model
  7137 ;;
  7138                           
  7139                           	psect	text40
  7140   003E28                     __ptext40:
  7141                           	callstack 0
  7142   003E28                     ___flsub:
  7143                           	callstack 24
  7144   003E28  0E00               	movlw	0
  7145   003E2A  1A55               	xorwf	___flsub@a^0,f,c
  7146   003E2C  0E00               	movlw	0
  7147   003E2E  1A56               	xorwf	(___flsub@a+1)^0,f,c
  7148   003E30  0E00               	movlw	0
  7149   003E32  1A57               	xorwf	(___flsub@a+2)^0,f,c
  7150   003E34  0E80               	movlw	128
  7151   003E36  1A58               	xorwf	(___flsub@a+3)^0,f,c
  7152   003E38  C051  F035         	movff	___flsub@b,___fladd@b
  7153   003E3C  C052  F036         	movff	___flsub@b+1,___fladd@b+1
  7154   003E40  C053  F037         	movff	___flsub@b+2,___fladd@b+2
  7155   003E44  C054  F038         	movff	___flsub@b+3,___fladd@b+3
  7156   003E48  C055  F039         	movff	___flsub@a,___fladd@a
  7157   003E4C  C056  F03A         	movff	___flsub@a+1,___fladd@a+1
  7158   003E50  C057  F03B         	movff	___flsub@a+2,___fladd@a+2
  7159   003E54  C058  F03C         	movff	___flsub@a+3,___fladd@a+3
  7160   003E58  ECBD  F009         	call	___fladd	;wreg free
  7161   003E5C  C035  F051         	movff	?___fladd,?___flsub
  7162   003E60  C036  F052         	movff	?___fladd+1,?___flsub+1
  7163   003E64  C037  F053         	movff	?___fladd+2,?___flsub+2
  7164   003E68  C038  F054         	movff	?___fladd+3,?___flsub+3
  7165   003E6C  0012               	return		;funcret
  7166   003E6E                     __end_of___flsub:
  7167                           	callstack 0
  7168                           
  7169 ;; *************** function ___flneg *****************
  7170 ;; Defined at:
  7171 ;;		line 15 in file "C:\Program Files\Microchip\xc8\v2.45\pic\sources\c99\common\flneg.c"
  7172 ;; Parameters:    Size  Location     Type
  7173 ;;  f1              4   84[COMRAM] long 
  7174 ;; Auto vars:     Size  Location     Type
  7175 ;;		None
  7176 ;; Return value:  Size  Location     Type
  7177 ;;                  4   84[COMRAM] long 
  7178 ;; Registers used:
  7179 ;;		wreg, status,2, status,0
  7180 ;; Tracked objects:
  7181 ;;		On entry : 0/0
  7182 ;;		On exit  : 0/0
  7183 ;;		Unchanged: 0/0
  7184 ;; Data sizes:     COMRAM   BANK0   BANK1   BANK2   BANK3   BANK4   BANK5   BANK6   BANK7   BANK8   BANK9  BANK10  BANK1
      +1  BANK12  BANK13
  7185 ;;      Params:         4       0       0       0       0       0       0       0       0       0       0       0       
      +0       0       0
  7186 ;;      Locals:         0       0       0       0       0       0       0       0       0       0       0       0       
      +0       0       0
  7187 ;;      Temps:          0       0       0       0       0       0       0       0       0       0       0       0       
      +0       0       0
  7188 ;;      Totals:         4       0       0       0       0       0       0       0       0       0       0       0       
      +0       0       0
  7189 ;;Total ram usage:        4 bytes
  7190 ;; Hardware stack levels used: 1
  7191 ;; Hardware stack levels required when called: 2
  7192 ;; This function calls:
  7193 ;;		Nothing
  7194 ;; This function is called by:
  7195 ;;		_sinf
  7196 ;;		___rem_pio2f
  7197 ;; This function uses a non-reentrant model
  7198 ;;
  7199                           
  7200                           	psect	text41
  7201   003FA0                     __ptext41:
  7202                           	callstack 0
  7203   003FA0                     ___flneg:
  7204                           	callstack 25
  7205   003FA0  5055               	movf	___flneg@f1^0,w,c
  7206   003FA2  1056               	iorwf	(___flneg@f1+1)^0,w,c
  7207   003FA4  1057               	iorwf	(___flneg@f1+2)^0,w,c
  7208   003FA6  1058               	iorwf	(___flneg@f1+3)^0,w,c
  7209   003FA8  B4D8               	btfsc	status,2,c
  7210   003FAA  EFD9  F01F         	goto	u3301
  7211   003FAE  EFDB  F01F         	goto	u3300
  7212   003FB2                     u3301:
  7213   003FB2  EFE3  F01F         	goto	l3284
  7214   003FB6                     u3300:
  7215   003FB6  0E00               	movlw	0
  7216   003FB8  1A55               	xorwf	___flneg@f1^0,f,c
  7217   003FBA  0E00               	movlw	0
  7218   003FBC  1A56               	xorwf	(___flneg@f1+1)^0,f,c
  7219   003FBE  0E00               	movlw	0
  7220   003FC0  1A57               	xorwf	(___flneg@f1+2)^0,f,c
  7221   003FC2  0E80               	movlw	128
  7222   003FC4  1A58               	xorwf	(___flneg@f1+3)^0,f,c
  7223   003FC6                     l3284:
  7224   003FC6  C055  F055         	movff	___flneg@f1,?___flneg
  7225   003FCA  C056  F056         	movff	___flneg@f1+1,?___flneg+1
  7226   003FCE  C057  F057         	movff	___flneg@f1+2,?___flneg+2
  7227   003FD2  C058  F058         	movff	___flneg@f1+3,?___flneg+3
  7228   003FD6  0012               	return		;funcret
  7229   003FD8                     __end_of___flneg:
  7230                           	callstack 0
  7231                           
  7232 ;; *************** function ___cosdf *****************
  7233 ;; Defined at:
  7234 ;;		line 26 in file "C:\Program Files\Microchip\xc8\v2.45\pic\sources\c99\common\__cosdf.c"
  7235 ;; Parameters:    Size  Location     Type
  7236 ;;  x               4   80[COMRAM] long 
  7237 ;; Auto vars:     Size  Location     Type
  7238 ;;  z               4   33[BANK0 ] long 
  7239 ;;  w               4   29[BANK0 ] long 
  7240 ;;  r               4   13[BANK0 ] long 
  7241 ;; Return value:  Size  Location     Type
  7242 ;;                  4   80[COMRAM] float 
  7243 ;; Registers used:
  7244 ;;		wreg, status,2, status,0, prodl, prodh, cstack
  7245 ;; Tracked objects:
  7246 ;;		On entry : 0/0
  7247 ;;		On exit  : 0/0
  7248 ;;		Unchanged: 0/0
  7249 ;; Data sizes:     COMRAM   BANK0   BANK1   BANK2   BANK3   BANK4   BANK5   BANK6   BANK7   BANK8   BANK9  BANK10  BANK1
      +1  BANK12  BANK13
  7250 ;;      Params:         4       0       0       0       0       0       0       0       0       0       0       0       
      +0       0       0
  7251 ;;      Locals:         0      24       0       0       0       0       0       0       0       0       0       0       
      +0       0       0
  7252 ;;      Temps:          0       0       0       0       0       0       0       0       0       0       0       0       
      +0       0       0
  7253 ;;      Totals:         4      24       0       0       0       0       0       0       0       0       0       0       
      +0       0       0
  7254 ;;Total ram usage:       28 bytes
  7255 ;; Hardware stack levels used: 1
  7256 ;; Hardware stack levels required when called: 3
  7257 ;; This function calls:
  7258 ;;		___fladd
  7259 ;;		___flmul
  7260 ;; This function is called by:
  7261 ;;		_sinf
  7262 ;; This function uses a non-reentrant model
  7263 ;;
  7264                           
  7265                           	psect	text42
  7266   0029C8                     __ptext42:
  7267                           	callstack 0
  7268   0029C8                     ___cosdf:
  7269                           	callstack 25
  7270   0029C8  C051  F045         	movff	___cosdf@x,___flmul@b
  7271   0029CC  C052  F046         	movff	___cosdf@x+1,___flmul@b+1
  7272   0029D0  C053  F047         	movff	___cosdf@x+2,___flmul@b+2
  7273   0029D4  C054  F048         	movff	___cosdf@x+3,___flmul@b+3
  7274   0029D8  C051  F049         	movff	___cosdf@x,___flmul@a
  7275   0029DC  C052  F04A         	movff	___cosdf@x+1,___flmul@a+1
  7276   0029E0  C053  F04B         	movff	___cosdf@x+2,___flmul@a+2
  7277   0029E4  C054  F04C         	movff	___cosdf@x+3,___flmul@a+3
  7278   0029E8  EC1D  F00C         	call	___flmul	;wreg free
  7279   0029EC  C045  F081         	movff	?___flmul,___cosdf@z
  7280   0029F0  C046  F082         	movff	?___flmul+1,___cosdf@z+1
  7281   0029F4  C047  F083         	movff	?___flmul+2,___cosdf@z+2
  7282   0029F8  C048  F084         	movff	?___flmul+3,___cosdf@z+3
  7283   0029FC  C081  F045         	movff	___cosdf@z,___flmul@b
  7284   002A00  C082  F046         	movff	___cosdf@z+1,___flmul@b+1
  7285   002A04  C083  F047         	movff	___cosdf@z+2,___flmul@b+2
  7286   002A08  C084  F048         	movff	___cosdf@z+3,___flmul@b+3
  7287   002A0C  C081  F049         	movff	___cosdf@z,___flmul@a
  7288   002A10  C082  F04A         	movff	___cosdf@z+1,___flmul@a+1
  7289   002A14  C083  F04B         	movff	___cosdf@z+2,___flmul@a+2
  7290   002A18  C084  F04C         	movff	___cosdf@z+3,___flmul@a+3
  7291   002A1C  EC1D  F00C         	call	___flmul	;wreg free
  7292   002A20  C045  F07D         	movff	?___flmul,___cosdf@w
  7293   002A24  C046  F07E         	movff	?___flmul+1,___cosdf@w+1
  7294   002A28  C047  F07F         	movff	?___flmul+2,___cosdf@w+2
  7295   002A2C  C048  F080         	movff	?___flmul+3,___cosdf@w+3
  7296   002A30  0E17               	movlw	23
  7297   002A32  6E49               	movwf	___flmul@a^0,c
  7298   002A34  0E9A               	movlw	154
  7299   002A36  6E4A               	movwf	(___flmul@a+1)^0,c
  7300   002A38  0ECC               	movlw	204
  7301   002A3A  6E4B               	movwf	(___flmul@a+2)^0,c
  7302   002A3C  0E37               	movlw	55
  7303   002A3E  6E4C               	movwf	(___flmul@a+3)^0,c
  7304   002A40  C081  F045         	movff	___cosdf@z,___flmul@b
  7305   002A44  C082  F046         	movff	___cosdf@z+1,___flmul@b+1
  7306   002A48  C083  F047         	movff	___cosdf@z+2,___flmul@b+2
  7307   002A4C  C084  F048         	movff	___cosdf@z+3,___flmul@b+3
  7308   002A50  EC1D  F00C         	call	___flmul	;wreg free
  7309   002A54  C045  F035         	movff	?___flmul,___fladd@b
  7310   002A58  C046  F036         	movff	?___flmul+1,___fladd@b+1
  7311   002A5C  C047  F037         	movff	?___flmul+2,___fladd@b+2
  7312   002A60  C048  F038         	movff	?___flmul+3,___fladd@b+3
  7313   002A64  0E3F               	movlw	63
  7314   002A66  6E39               	movwf	___fladd@a^0,c
  7315   002A68  0E04               	movlw	4
  7316   002A6A  6E3A               	movwf	(___fladd@a+1)^0,c
  7317   002A6C  0EB6               	movlw	182
  7318   002A6E  6E3B               	movwf	(___fladd@a+2)^0,c
  7319   002A70  0EBA               	movlw	186
  7320   002A72  6E3C               	movwf	(___fladd@a+3)^0,c
  7321   002A74  ECBD  F009         	call	___fladd	;wreg free
  7322   002A78  C035  F06D         	movff	?___fladd,___cosdf@r
  7323   002A7C  C036  F06E         	movff	?___fladd+1,___cosdf@r+1
  7324   002A80  C037  F06F         	movff	?___fladd+2,___cosdf@r+2
  7325   002A84  C038  F070         	movff	?___fladd+3,___cosdf@r+3
  7326   002A88  0E00               	movlw	0
  7327   002A8A  6E39               	movwf	___fladd@a^0,c
  7328   002A8C  0E00               	movlw	0
  7329   002A8E  6E3A               	movwf	(___fladd@a+1)^0,c
  7330   002A90  0E80               	movlw	128
  7331   002A92  6E3B               	movwf	(___fladd@a+2)^0,c
  7332   002A94  0E3F               	movlw	63
  7333   002A96  6E3C               	movwf	(___fladd@a+3)^0,c
  7334   002A98  0E00               	movlw	0
  7335   002A9A  6E49               	movwf	___flmul@a^0,c
  7336   002A9C  0E00               	movlw	0
  7337   002A9E  6E4A               	movwf	(___flmul@a+1)^0,c
  7338   002AA0  0E00               	movlw	0
  7339   002AA2  6E4B               	movwf	(___flmul@a+2)^0,c
  7340   002AA4  0EBF               	movlw	191
  7341   002AA6  6E4C               	movwf	(___flmul@a+3)^0,c
  7342   002AA8  C081  F045         	movff	___cosdf@z,___flmul@b
  7343   002AAC  C082  F046         	movff	___cosdf@z+1,___flmul@b+1
  7344   002AB0  C083  F047         	movff	___cosdf@z+2,___flmul@b+2
  7345   002AB4  C084  F048         	movff	___cosdf@z+3,___flmul@b+3
  7346   002AB8  EC1D  F00C         	call	___flmul	;wreg free
  7347   002ABC  C045  F035         	movff	?___flmul,___fladd@b
  7348   002AC0  C046  F036         	movff	?___flmul+1,___fladd@b+1
  7349   002AC4  C047  F037         	movff	?___flmul+2,___fladd@b+2
  7350   002AC8  C048  F038         	movff	?___flmul+3,___fladd@b+3
  7351   002ACC  ECBD  F009         	call	___fladd	;wreg free
  7352   002AD0  C035  F071         	movff	?___fladd,___cosdf$2463
  7353   002AD4  C036  F072         	movff	?___fladd+1,___cosdf$2463+1
  7354   002AD8  C037  F073         	movff	?___fladd+2,___cosdf$2463+2
  7355   002ADC  C038  F074         	movff	?___fladd+3,___cosdf$2463+3
  7356   002AE0  C081  F049         	movff	___cosdf@z,___flmul@a
  7357   002AE4  C082  F04A         	movff	___cosdf@z+1,___flmul@a+1
  7358   002AE8  C083  F04B         	movff	___cosdf@z+2,___flmul@a+2
  7359   002AEC  C084  F04C         	movff	___cosdf@z+3,___flmul@a+3
  7360   002AF0  C07D  F045         	movff	___cosdf@w,___flmul@b
  7361   002AF4  C07E  F046         	movff	___cosdf@w+1,___flmul@b+1
  7362   002AF8  C07F  F047         	movff	___cosdf@w+2,___flmul@b+2
  7363   002AFC  C080  F048         	movff	___cosdf@w+3,___flmul@b+3
  7364   002B00  EC1D  F00C         	call	___flmul	;wreg free
  7365   002B04  C045  F075         	movff	?___flmul,___cosdf$2464
  7366   002B08  C046  F076         	movff	?___flmul+1,___cosdf$2464+1
  7367   002B0C  C047  F077         	movff	?___flmul+2,___cosdf$2464+2
  7368   002B10  C048  F078         	movff	?___flmul+3,___cosdf$2464+3
  7369   002B14  0E9F               	movlw	159
  7370   002B16  6E49               	movwf	___flmul@a^0,c
  7371   002B18  0EAA               	movlw	170
  7372   002B1A  6E4A               	movwf	(___flmul@a+1)^0,c
  7373   002B1C  0E2A               	movlw	42
  7374   002B1E  6E4B               	movwf	(___flmul@a+2)^0,c
  7375   002B20  0E3D               	movlw	61
  7376   002B22  6E4C               	movwf	(___flmul@a+3)^0,c
  7377   002B24  C07D  F045         	movff	___cosdf@w,___flmul@b
  7378   002B28  C07E  F046         	movff	___cosdf@w+1,___flmul@b+1
  7379   002B2C  C07F  F047         	movff	___cosdf@w+2,___flmul@b+2
  7380   002B30  C080  F048         	movff	___cosdf@w+3,___flmul@b+3
  7381   002B34  EC1D  F00C         	call	___flmul	;wreg free
  7382   002B38  C045  F039         	movff	?___flmul,___fladd@a
  7383   002B3C  C046  F03A         	movff	?___flmul+1,___fladd@a+1
  7384   002B40  C047  F03B         	movff	?___flmul+2,___fladd@a+2
  7385   002B44  C048  F03C         	movff	?___flmul+3,___fladd@a+3
  7386   002B48  C071  F035         	movff	___cosdf$2463,___fladd@b
  7387   002B4C  C072  F036         	movff	___cosdf$2463+1,___fladd@b+1
  7388   002B50  C073  F037         	movff	___cosdf$2463+2,___fladd@b+2
  7389   002B54  C074  F038         	movff	___cosdf$2463+3,___fladd@b+3
  7390   002B58  ECBD  F009         	call	___fladd	;wreg free
  7391   002B5C  C035  F079         	movff	?___fladd,___cosdf$2465
  7392   002B60  C036  F07A         	movff	?___fladd+1,___cosdf$2465+1
  7393   002B64  C037  F07B         	movff	?___fladd+2,___cosdf$2465+2
  7394   002B68  C038  F07C         	movff	?___fladd+3,___cosdf$2465+3
  7395   002B6C  C079  F035         	movff	___cosdf$2465,___fladd@b
  7396   002B70  C07A  F036         	movff	___cosdf$2465+1,___fladd@b+1
  7397   002B74  C07B  F037         	movff	___cosdf$2465+2,___fladd@b+2
  7398   002B78  C07C  F038         	movff	___cosdf$2465+3,___fladd@b+3
  7399   002B7C  C06D  F049         	movff	___cosdf@r,___flmul@a
  7400   002B80  C06E  F04A         	movff	___cosdf@r+1,___flmul@a+1
  7401   002B84  C06F  F04B         	movff	___cosdf@r+2,___flmul@a+2
  7402   002B88  C070  F04C         	movff	___cosdf@r+3,___flmul@a+3
  7403   002B8C  C075  F045         	movff	___cosdf$2464,___flmul@b
  7404   002B90  C076  F046         	movff	___cosdf$2464+1,___flmul@b+1
  7405   002B94  C077  F047         	movff	___cosdf$2464+2,___flmul@b+2
  7406   002B98  C078  F048         	movff	___cosdf$2464+3,___flmul@b+3
  7407   002B9C  EC1D  F00C         	call	___flmul	;wreg free
  7408   002BA0  C045  F039         	movff	?___flmul,___fladd@a
  7409   002BA4  C046  F03A         	movff	?___flmul+1,___fladd@a+1
  7410   002BA8  C047  F03B         	movff	?___flmul+2,___fladd@a+2
  7411   002BAC  C048  F03C         	movff	?___flmul+3,___fladd@a+3
  7412   002BB0  ECBD  F009         	call	___fladd	;wreg free
  7413   002BB4  C035  F051         	movff	?___fladd,?___cosdf
  7414   002BB8  C036  F052         	movff	?___fladd+1,?___cosdf+1
  7415   002BBC  C037  F053         	movff	?___fladd+2,?___cosdf+2
  7416   002BC0  C038  F054         	movff	?___fladd+3,?___cosdf+3
  7417   002BC4  0012               	return		;funcret
  7418   002BC6                     __end_of___cosdf:
  7419                           	callstack 0
  7420                           
  7421 ;; *************** function ___flmul *****************
  7422 ;; Defined at:
  7423 ;;		line 8 in file "C:\Program Files\Microchip\xc8\v2.45\pic\sources\c99\common\sprcmul.c"
  7424 ;; Parameters:    Size  Location     Type
  7425 ;;  b               4   68[COMRAM] float 
  7426 ;;  a               4   72[COMRAM] float 
  7427 ;; Auto vars:     Size  Location     Type
  7428 ;;  prod            4    7[BANK0 ] struct .
  7429 ;;  grs             4    1[BANK0 ] unsigned long 
  7430 ;;  temp            2   11[BANK0 ] struct .
  7431 ;;  bexp            1    6[BANK0 ] unsigned char 
  7432 ;;  aexp            1    5[BANK0 ] unsigned char 
  7433 ;;  sign            1    0[BANK0 ] unsigned char 
  7434 ;; Return value:  Size  Location     Type
  7435 ;;                  4   68[COMRAM] unsigned char 
  7436 ;; Registers used:
  7437 ;;		wreg, status,2, status,0, prodl, prodh
  7438 ;; Tracked objects:
  7439 ;;		On entry : 0/0
  7440 ;;		On exit  : 0/0
  7441 ;;		Unchanged: 0/0
  7442 ;; Data sizes:     COMRAM   BANK0   BANK1   BANK2   BANK3   BANK4   BANK5   BANK6   BANK7   BANK8   BANK9  BANK10  BANK1
      +1  BANK12  BANK13
  7443 ;;      Params:         8       0       0       0       0       0       0       0       0       0       0       0       
      +0       0       0
  7444 ;;      Locals:         0      13       0       0       0       0       0       0       0       0       0       0       
      +0       0       0
  7445 ;;      Temps:          4       0       0       0       0       0       0       0       0       0       0       0       
      +0       0       0
  7446 ;;      Totals:        12      13       0       0       0       0       0       0       0       0       0       0       
      +0       0       0
  7447 ;;Total ram usage:       25 bytes
  7448 ;; Hardware stack levels used: 1
  7449 ;; Hardware stack levels required when called: 2
  7450 ;; This function calls:
  7451 ;;		Nothing
  7452 ;; This function is called by:
  7453 ;;		_Callibrate
  7454 ;;		___cosdf
  7455 ;;		___rem_pio2f
  7456 ;;		___sindf
  7457 ;; This function uses a non-reentrant model
  7458 ;;
  7459                           
  7460                           	psect	text43
  7461   00183A                     __ptext43:
  7462                           	callstack 0
  7463   00183A                     ___flmul:
  7464                           	callstack 25
  7465   00183A  5048               	movf	(___flmul@b+3)^0,w,c
  7466   00183C  0B80               	andlw	128
  7467   00183E  0100               	movlb	0	; () banked
  7468   001840  6F60               	movwf	___flmul@sign& (0+255),b
  7469   001842  5048               	movf	(___flmul@b+3)^0,w,c
  7470   001844  2448               	addwf	(___flmul@b+3)^0,w,c
  7471   001846  6F66               	movwf	___flmul@bexp& (0+255),b
  7472   001848                     
  7473                           ; BSR set to: 0
  7474   001848  AE47               	btfss	(___flmul@b+2)^0,7,c
  7475   00184A  EF29  F00C         	goto	u3111
  7476   00184E  EF2B  F00C         	goto	u3110
  7477   001852                     u3111:
  7478   001852  EF2C  F00C         	goto	l3150
  7479   001856                     u3110:
  7480   001856                     
  7481                           ; BSR set to: 0
  7482   001856  8166               	bsf	___flmul@bexp& (0+255),0,b
  7483   001858                     l3150:
  7484                           
  7485                           ; BSR set to: 0
  7486   001858  5166               	movf	___flmul@bexp& (0+255),w,b
  7487   00185A  B4D8               	btfsc	status,2,c
  7488   00185C  EF32  F00C         	goto	u3121
  7489   001860  EF34  F00C         	goto	u3120
  7490   001864                     u3121:
  7491   001864  EF47  F00C         	goto	l3158
  7492   001868                     u3120:
  7493   001868                     
  7494                           ; BSR set to: 0
  7495   001868  2966               	incf	___flmul@bexp& (0+255),w,b
  7496   00186A  A4D8               	btfss	status,2,c
  7497   00186C  EF3A  F00C         	goto	u3131
  7498   001870  EF3C  F00C         	goto	u3130
  7499   001874                     u3131:
  7500   001874  EF44  F00C         	goto	l3156
  7501   001878                     u3130:
  7502   001878                     
  7503                           ; BSR set to: 0
  7504   001878  0E00               	movlw	0
  7505   00187A  6E45               	movwf	___flmul@b^0,c
  7506   00187C  0E00               	movlw	0
  7507   00187E  6E46               	movwf	(___flmul@b+1)^0,c
  7508   001880  0E00               	movlw	0
  7509   001882  6E47               	movwf	(___flmul@b+2)^0,c
  7510   001884  0E00               	movlw	0
  7511   001886  6E48               	movwf	(___flmul@b+3)^0,c
  7512   001888                     l3156:
  7513                           
  7514                           ; BSR set to: 0
  7515   001888  8E47               	bsf	(___flmul@b+2)^0,7,c
  7516   00188A  EF4F  F00C         	goto	l3160
  7517   00188E                     l3158:
  7518                           
  7519                           ; BSR set to: 0
  7520   00188E  0E00               	movlw	0
  7521   001890  6E45               	movwf	___flmul@b^0,c
  7522   001892  0E00               	movlw	0
  7523   001894  6E46               	movwf	(___flmul@b+1)^0,c
  7524   001896  0E00               	movlw	0
  7525   001898  6E47               	movwf	(___flmul@b+2)^0,c
  7526   00189A  0E00               	movlw	0
  7527   00189C  6E48               	movwf	(___flmul@b+3)^0,c
  7528   00189E                     l3160:
  7529                           
  7530                           ; BSR set to: 0
  7531   00189E  504C               	movf	(___flmul@a+3)^0,w,c
  7532   0018A0  0B80               	andlw	128
  7533   0018A2  1B60               	xorwf	___flmul@sign& (0+255),f,b
  7534   0018A4                     
  7535                           ; BSR set to: 0
  7536   0018A4  504C               	movf	(___flmul@a+3)^0,w,c
  7537   0018A6  244C               	addwf	(___flmul@a+3)^0,w,c
  7538   0018A8  6F65               	movwf	___flmul@aexp& (0+255),b
  7539   0018AA                     
  7540                           ; BSR set to: 0
  7541   0018AA  AE4B               	btfss	(___flmul@a+2)^0,7,c
  7542   0018AC  EF5A  F00C         	goto	u3141
  7543   0018B0  EF5C  F00C         	goto	u3140
  7544   0018B4                     u3141:
  7545   0018B4  EF5D  F00C         	goto	l3168
  7546   0018B8                     u3140:
  7547   0018B8                     
  7548                           ; BSR set to: 0
  7549   0018B8  8165               	bsf	___flmul@aexp& (0+255),0,b
  7550   0018BA                     l3168:
  7551                           
  7552                           ; BSR set to: 0
  7553   0018BA  5165               	movf	___flmul@aexp& (0+255),w,b
  7554   0018BC  B4D8               	btfsc	status,2,c
  7555   0018BE  EF63  F00C         	goto	u3151
  7556   0018C2  EF65  F00C         	goto	u3150
  7557   0018C6                     u3151:
  7558   0018C6  EF78  F00C         	goto	l3176
  7559   0018CA                     u3150:
  7560   0018CA                     
  7561                           ; BSR set to: 0
  7562   0018CA  2965               	incf	___flmul@aexp& (0+255),w,b
  7563   0018CC  A4D8               	btfss	status,2,c
  7564   0018CE  EF6B  F00C         	goto	u3161
  7565   0018D2  EF6D  F00C         	goto	u3160
  7566   0018D6                     u3161:
  7567   0018D6  EF75  F00C         	goto	l3174
  7568   0018DA                     u3160:
  7569   0018DA                     
  7570                           ; BSR set to: 0
  7571   0018DA  0E00               	movlw	0
  7572   0018DC  6E49               	movwf	___flmul@a^0,c
  7573   0018DE  0E00               	movlw	0
  7574   0018E0  6E4A               	movwf	(___flmul@a+1)^0,c
  7575   0018E2  0E00               	movlw	0
  7576   0018E4  6E4B               	movwf	(___flmul@a+2)^0,c
  7577   0018E6  0E00               	movlw	0
  7578   0018E8  6E4C               	movwf	(___flmul@a+3)^0,c
  7579   0018EA                     l3174:
  7580                           
  7581                           ; BSR set to: 0
  7582   0018EA  8E4B               	bsf	(___flmul@a+2)^0,7,c
  7583   0018EC  EF80  F00C         	goto	l961
  7584   0018F0                     l3176:
  7585                           
  7586                           ; BSR set to: 0
  7587   0018F0  0E00               	movlw	0
  7588   0018F2  6E49               	movwf	___flmul@a^0,c
  7589   0018F4  0E00               	movlw	0
  7590   0018F6  6E4A               	movwf	(___flmul@a+1)^0,c
  7591   0018F8  0E00               	movlw	0
  7592   0018FA  6E4B               	movwf	(___flmul@a+2)^0,c
  7593   0018FC  0E00               	movlw	0
  7594   0018FE  6E4C               	movwf	(___flmul@a+3)^0,c
  7595   001900                     l961:
  7596                           
  7597                           ; BSR set to: 0
  7598   001900  5165               	movf	___flmul@aexp& (0+255),w,b
  7599   001902  B4D8               	btfsc	status,2,c
  7600   001904  EF86  F00C         	goto	u3171
  7601   001908  EF88  F00C         	goto	u3170
  7602   00190C                     u3171:
  7603   00190C  EF90  F00C         	goto	l3180
  7604   001910                     u3170:
  7605   001910                     
  7606                           ; BSR set to: 0
  7607   001910  5166               	movf	___flmul@bexp& (0+255),w,b
  7608   001912  A4D8               	btfss	status,2,c
  7609   001914  EF8E  F00C         	goto	u3181
  7610   001918  EF90  F00C         	goto	u3180
  7611   00191C                     u3181:
  7612   00191C  EF9A  F00C         	goto	l3184
  7613   001920                     u3180:
  7614   001920                     l3180:
  7615                           
  7616                           ; BSR set to: 0
  7617   001920  0E00               	movlw	0
  7618   001922  6E45               	movwf	?___flmul^0,c
  7619   001924  0E00               	movlw	0
  7620   001926  6E46               	movwf	(?___flmul+1)^0,c
  7621   001928  0E00               	movlw	0
  7622   00192A  6E47               	movwf	(?___flmul+2)^0,c
  7623   00192C  0E00               	movlw	0
  7624   00192E  6E48               	movwf	(?___flmul+3)^0,c
  7625   001930  EF32  F00E         	goto	l965
  7626   001934                     l3184:
  7627                           
  7628                           ; BSR set to: 0
  7629   001934  504B               	movf	(___flmul@a+2)^0,w,c
  7630   001936  0245               	mulwf	___flmul@b^0,c
  7631   001938  CFF3 F06B          	movff	prodl,___flmul@temp
  7632   00193C  CFF4 F06C          	movff	prodh,___flmul@temp+1
  7633   001940                     
  7634                           ; BSR set to: 0
  7635   001940  516B               	movf	___flmul@temp& (0+255),w,b
  7636   001942  6F61               	movwf	___flmul@grs& (0+255),b
  7637   001944  6B62               	clrf	(___flmul@grs+1)& (0+255),b
  7638   001946  6B63               	clrf	(___flmul@grs+2)& (0+255),b
  7639   001948  6B64               	clrf	(___flmul@grs+3)& (0+255),b
  7640   00194A                     
  7641                           ; BSR set to: 0
  7642   00194A  516C               	movf	(___flmul@temp+1)& (0+255),w,b
  7643   00194C  6F67               	movwf	___flmul@prod& (0+255),b
  7644   00194E  6B68               	clrf	(___flmul@prod+1)& (0+255),b
  7645   001950  6B69               	clrf	(___flmul@prod+2)& (0+255),b
  7646   001952  6B6A               	clrf	(___flmul@prod+3)& (0+255),b
  7647   001954  504A               	movf	(___flmul@a+1)^0,w,c
  7648   001956  0246               	mulwf	(___flmul@b+1)^0,c
  7649   001958  CFF3 F06B          	movff	prodl,___flmul@temp
  7650   00195C  CFF4 F06C          	movff	prodh,___flmul@temp+1
  7651   001960                     
  7652                           ; BSR set to: 0
  7653   001960  516B               	movf	___flmul@temp& (0+255),w,b
  7654   001962  2761               	addwf	___flmul@grs& (0+255),f,b
  7655   001964  0E00               	movlw	0
  7656   001966  2362               	addwfc	(___flmul@grs+1)& (0+255),f,b
  7657   001968  2363               	addwfc	(___flmul@grs+2)& (0+255),f,b
  7658   00196A  2364               	addwfc	(___flmul@grs+3)& (0+255),f,b
  7659   00196C                     
  7660                           ; BSR set to: 0
  7661   00196C  516C               	movf	(___flmul@temp+1)& (0+255),w,b
  7662   00196E  2767               	addwf	___flmul@prod& (0+255),f,b
  7663   001970  0E00               	movlw	0
  7664   001972  2368               	addwfc	(___flmul@prod+1)& (0+255),f,b
  7665   001974  2369               	addwfc	(___flmul@prod+2)& (0+255),f,b
  7666   001976  236A               	addwfc	(___flmul@prod+3)& (0+255),f,b
  7667   001978  5049               	movf	___flmul@a^0,w,c
  7668   00197A  0247               	mulwf	(___flmul@b+2)^0,c
  7669   00197C  CFF3 F06B          	movff	prodl,___flmul@temp
  7670   001980  CFF4 F06C          	movff	prodh,___flmul@temp+1
  7671   001984                     
  7672                           ; BSR set to: 0
  7673   001984  516B               	movf	___flmul@temp& (0+255),w,b
  7674   001986  2761               	addwf	___flmul@grs& (0+255),f,b
  7675   001988  0E00               	movlw	0
  7676   00198A  2362               	addwfc	(___flmul@grs+1)& (0+255),f,b
  7677   00198C  2363               	addwfc	(___flmul@grs+2)& (0+255),f,b
  7678   00198E  2364               	addwfc	(___flmul@grs+3)& (0+255),f,b
  7679   001990                     
  7680                           ; BSR set to: 0
  7681   001990  516C               	movf	(___flmul@temp+1)& (0+255),w,b
  7682   001992  2767               	addwf	___flmul@prod& (0+255),f,b
  7683   001994  0E00               	movlw	0
  7684   001996  2368               	addwfc	(___flmul@prod+1)& (0+255),f,b
  7685   001998  2369               	addwfc	(___flmul@prod+2)& (0+255),f,b
  7686   00199A  236A               	addwfc	(___flmul@prod+3)& (0+255),f,b
  7687   00199C                     
  7688                           ; BSR set to: 0
  7689   00199C  C063  F064         	movff	___flmul@grs+2,___flmul@grs+3
  7690   0019A0  C062  F063         	movff	___flmul@grs+1,___flmul@grs+2
  7691   0019A4  C061  F062         	movff	___flmul@grs,___flmul@grs+1
  7692   0019A8  6B61               	clrf	___flmul@grs& (0+255),b
  7693   0019AA                     
  7694                           ; BSR set to: 0
  7695   0019AA  5049               	movf	___flmul@a^0,w,c
  7696   0019AC  0246               	mulwf	(___flmul@b+1)^0,c
  7697   0019AE  CFF3 F06B          	movff	prodl,___flmul@temp
  7698   0019B2  CFF4 F06C          	movff	prodh,___flmul@temp+1
  7699   0019B6                     
  7700                           ; BSR set to: 0
  7701   0019B6  516B               	movf	___flmul@temp& (0+255),w,b
  7702   0019B8  2761               	addwf	___flmul@grs& (0+255),f,b
  7703   0019BA  516C               	movf	(___flmul@temp+1)& (0+255),w,b
  7704   0019BC  2362               	addwfc	(___flmul@grs+1)& (0+255),f,b
  7705   0019BE  0E00               	movlw	0
  7706   0019C0  2363               	addwfc	(___flmul@grs+2)& (0+255),f,b
  7707   0019C2  0E00               	movlw	0
  7708   0019C4  2364               	addwfc	(___flmul@grs+3)& (0+255),f,b
  7709   0019C6                     
  7710                           ; BSR set to: 0
  7711   0019C6  504A               	movf	(___flmul@a+1)^0,w,c
  7712   0019C8  0245               	mulwf	___flmul@b^0,c
  7713   0019CA  CFF3 F06B          	movff	prodl,___flmul@temp
  7714   0019CE  CFF4 F06C          	movff	prodh,___flmul@temp+1
  7715   0019D2                     
  7716                           ; BSR set to: 0
  7717   0019D2  516B               	movf	___flmul@temp& (0+255),w,b
  7718   0019D4  2761               	addwf	___flmul@grs& (0+255),f,b
  7719   0019D6  516C               	movf	(___flmul@temp+1)& (0+255),w,b
  7720   0019D8  2362               	addwfc	(___flmul@grs+1)& (0+255),f,b
  7721   0019DA  0E00               	movlw	0
  7722   0019DC  2363               	addwfc	(___flmul@grs+2)& (0+255),f,b
  7723   0019DE  0E00               	movlw	0
  7724   0019E0  2364               	addwfc	(___flmul@grs+3)& (0+255),f,b
  7725   0019E2                     
  7726                           ; BSR set to: 0
  7727   0019E2  C063  F064         	movff	___flmul@grs+2,___flmul@grs+3
  7728   0019E6  C062  F063         	movff	___flmul@grs+1,___flmul@grs+2
  7729   0019EA  C061  F062         	movff	___flmul@grs,___flmul@grs+1
  7730   0019EE  6B61               	clrf	___flmul@grs& (0+255),b
  7731   0019F0  5049               	movf	___flmul@a^0,w,c
  7732   0019F2  0245               	mulwf	___flmul@b^0,c
  7733   0019F4  CFF3 F06B          	movff	prodl,___flmul@temp
  7734   0019F8  CFF4 F06C          	movff	prodh,___flmul@temp+1
  7735   0019FC                     
  7736                           ; BSR set to: 0
  7737   0019FC  516B               	movf	___flmul@temp& (0+255),w,b
  7738   0019FE  2761               	addwf	___flmul@grs& (0+255),f,b
  7739   001A00  516C               	movf	(___flmul@temp+1)& (0+255),w,b
  7740   001A02  2362               	addwfc	(___flmul@grs+1)& (0+255),f,b
  7741   001A04  0E00               	movlw	0
  7742   001A06  2363               	addwfc	(___flmul@grs+2)& (0+255),f,b
  7743   001A08  0E00               	movlw	0
  7744   001A0A  2364               	addwfc	(___flmul@grs+3)& (0+255),f,b
  7745   001A0C                     
  7746                           ; BSR set to: 0
  7747   001A0C  504B               	movf	(___flmul@a+2)^0,w,c
  7748   001A0E  0246               	mulwf	(___flmul@b+1)^0,c
  7749   001A10  CFF3 F06B          	movff	prodl,___flmul@temp
  7750   001A14  CFF4 F06C          	movff	prodh,___flmul@temp+1
  7751   001A18  516B               	movf	___flmul@temp& (0+255),w,b
  7752   001A1A  2767               	addwf	___flmul@prod& (0+255),f,b
  7753   001A1C  516C               	movf	(___flmul@temp+1)& (0+255),w,b
  7754   001A1E  2368               	addwfc	(___flmul@prod+1)& (0+255),f,b
  7755   001A20  0E00               	movlw	0
  7756   001A22  2369               	addwfc	(___flmul@prod+2)& (0+255),f,b
  7757   001A24  0E00               	movlw	0
  7758   001A26  236A               	addwfc	(___flmul@prod+3)& (0+255),f,b
  7759   001A28                     
  7760                           ; BSR set to: 0
  7761   001A28  504A               	movf	(___flmul@a+1)^0,w,c
  7762   001A2A  0247               	mulwf	(___flmul@b+2)^0,c
  7763   001A2C  CFF3 F06B          	movff	prodl,___flmul@temp
  7764   001A30  CFF4 F06C          	movff	prodh,___flmul@temp+1
  7765   001A34                     
  7766                           ; BSR set to: 0
  7767   001A34  516B               	movf	___flmul@temp& (0+255),w,b
  7768   001A36  2767               	addwf	___flmul@prod& (0+255),f,b
  7769   001A38  516C               	movf	(___flmul@temp+1)& (0+255),w,b
  7770   001A3A  2368               	addwfc	(___flmul@prod+1)& (0+255),f,b
  7771   001A3C  0E00               	movlw	0
  7772   001A3E  2369               	addwfc	(___flmul@prod+2)& (0+255),f,b
  7773   001A40  0E00               	movlw	0
  7774   001A42  236A               	addwfc	(___flmul@prod+3)& (0+255),f,b
  7775   001A44  504B               	movf	(___flmul@a+2)^0,w,c
  7776   001A46  0247               	mulwf	(___flmul@b+2)^0,c
  7777   001A48  CFF3 F06B          	movff	prodl,___flmul@temp
  7778   001A4C  CFF4 F06C          	movff	prodh,___flmul@temp+1
  7779   001A50                     
  7780                           ; BSR set to: 0
  7781   001A50  516B               	movf	___flmul@temp& (0+255),w,b
  7782   001A52  6E4D               	movwf	??___flmul^0,c
  7783   001A54  516C               	movf	(___flmul@temp+1)& (0+255),w,b
  7784   001A56  6E4E               	movwf	(??___flmul+1)^0,c
  7785   001A58  6A4F               	clrf	(??___flmul+2)^0,c
  7786   001A5A  6A50               	clrf	(??___flmul+3)^0,c
  7787   001A5C  C04F  F050         	movff	??___flmul+2,??___flmul+3
  7788   001A60  C04E  F04F         	movff	??___flmul+1,??___flmul+2
  7789   001A64  C04D  F04E         	movff	??___flmul,??___flmul+1
  7790   001A68  6A4D               	clrf	??___flmul^0,c
  7791   001A6A  504D               	movf	??___flmul^0,w,c
  7792   001A6C  2767               	addwf	___flmul@prod& (0+255),f,b
  7793   001A6E  504E               	movf	(??___flmul+1)^0,w,c
  7794   001A70  2368               	addwfc	(___flmul@prod+1)& (0+255),f,b
  7795   001A72  504F               	movf	(??___flmul+2)^0,w,c
  7796   001A74  2369               	addwfc	(___flmul@prod+2)& (0+255),f,b
  7797   001A76  5050               	movf	(??___flmul+3)^0,w,c
  7798   001A78  236A               	addwfc	(___flmul@prod+3)& (0+255),f,b
  7799   001A7A                     
  7800                           ; BSR set to: 0
  7801   001A7A  C061  F04D         	movff	___flmul@grs,??___flmul
  7802   001A7E  C062  F04E         	movff	___flmul@grs+1,??___flmul+1
  7803   001A82  C063  F04F         	movff	___flmul@grs+2,??___flmul+2
  7804   001A86  C064  F050         	movff	___flmul@grs+3,??___flmul+3
  7805   001A8A  0E19               	movlw	25
  7806   001A8C  EF4D  F00D         	goto	u3190
  7807   001A90                     u3195:
  7808   001A90  90D8               	bcf	status,0,c
  7809   001A92  3250               	rrcf	(??___flmul+3)^0,f,c
  7810   001A94  324F               	rrcf	(??___flmul+2)^0,f,c
  7811   001A96  324E               	rrcf	(??___flmul+1)^0,f,c
  7812   001A98  324D               	rrcf	??___flmul^0,f,c
  7813   001A9A                     u3190:
  7814   001A9A  2EE8               	decfsz	wreg,f,c
  7815   001A9C  EF48  F00D         	goto	u3195
  7816   001AA0  504D               	movf	??___flmul^0,w,c
  7817   001AA2  2767               	addwf	___flmul@prod& (0+255),f,b
  7818   001AA4  504E               	movf	(??___flmul+1)^0,w,c
  7819   001AA6  2368               	addwfc	(___flmul@prod+1)& (0+255),f,b
  7820   001AA8  504F               	movf	(??___flmul+2)^0,w,c
  7821   001AAA  2369               	addwfc	(___flmul@prod+2)& (0+255),f,b
  7822   001AAC  5050               	movf	(??___flmul+3)^0,w,c
  7823   001AAE  236A               	addwfc	(___flmul@prod+3)& (0+255),f,b
  7824   001AB0                     
  7825                           ; BSR set to: 0
  7826   001AB0  C063  F064         	movff	___flmul@grs+2,___flmul@grs+3
  7827   001AB4  C062  F063         	movff	___flmul@grs+1,___flmul@grs+2
  7828   001AB8  C061  F062         	movff	___flmul@grs,___flmul@grs+1
  7829   001ABC  6B61               	clrf	___flmul@grs& (0+255),b
  7830   001ABE                     
  7831                           ; BSR set to: 0
  7832   001ABE  5165               	movf	___flmul@aexp& (0+255),w,b
  7833   001AC0  C066  F04D         	movff	___flmul@bexp,??___flmul
  7834   001AC4  6A4E               	clrf	(??___flmul+1)^0,c
  7835   001AC6  264D               	addwf	??___flmul^0,f,c
  7836   001AC8  0E00               	movlw	0
  7837   001ACA  224E               	addwfc	(??___flmul+1)^0,f,c
  7838   001ACC  0E82               	movlw	130
  7839   001ACE  244D               	addwf	??___flmul^0,w,c
  7840   001AD0  6F6B               	movwf	___flmul@temp& (0+255),b
  7841   001AD2  0EFF               	movlw	255
  7842   001AD4  204E               	addwfc	(??___flmul+1)^0,w,c
  7843   001AD6  6F6C               	movwf	(___flmul@temp+1)& (0+255),b
  7844   001AD8  EF83  F00D         	goto	l3232
  7845   001ADC                     l3226:
  7846                           
  7847                           ; BSR set to: 0
  7848   001ADC  90D8               	bcf	status,0,c
  7849   001ADE  3767               	rlcf	___flmul@prod& (0+255),f,b
  7850   001AE0  3768               	rlcf	(___flmul@prod+1)& (0+255),f,b
  7851   001AE2  3769               	rlcf	(___flmul@prod+2)& (0+255),f,b
  7852   001AE4  376A               	rlcf	(___flmul@prod+3)& (0+255),f,b
  7853   001AE6                     
  7854                           ; BSR set to: 0
  7855   001AE6  AF64               	btfss	(___flmul@grs+3)& (0+255),7,b
  7856   001AE8  EF78  F00D         	goto	u3201
  7857   001AEC  EF7A  F00D         	goto	u3200
  7858   001AF0                     u3201:
  7859   001AF0  EF7B  F00D         	goto	l968
  7860   001AF4                     u3200:
  7861   001AF4                     
  7862                           ; BSR set to: 0
  7863   001AF4  8167               	bsf	___flmul@prod& (0+255),0,b
  7864   001AF6                     l968:
  7865                           
  7866                           ; BSR set to: 0
  7867   001AF6  90D8               	bcf	status,0,c
  7868   001AF8  3761               	rlcf	___flmul@grs& (0+255),f,b
  7869   001AFA  3762               	rlcf	(___flmul@grs+1)& (0+255),f,b
  7870   001AFC  3763               	rlcf	(___flmul@grs+2)& (0+255),f,b
  7871   001AFE  3764               	rlcf	(___flmul@grs+3)& (0+255),f,b
  7872   001B00  076B               	decf	___flmul@temp& (0+255),f,b
  7873   001B02  A0D8               	btfss	status,0,c
  7874   001B04  076C               	decf	(___flmul@temp+1)& (0+255),f,b
  7875   001B06                     l3232:
  7876                           
  7877                           ; BSR set to: 0
  7878   001B06  AF69               	btfss	(___flmul@prod+2)& (0+255),7,b
  7879   001B08  EF88  F00D         	goto	u3211
  7880   001B0C  EF8A  F00D         	goto	u3210
  7881   001B10                     u3211:
  7882   001B10  EF6E  F00D         	goto	l3226
  7883   001B14                     u3210:
  7884   001B14                     
  7885                           ; BSR set to: 0
  7886   001B14  0E00               	movlw	0
  7887   001B16  6F65               	movwf	___flmul@aexp& (0+255),b
  7888   001B18                     
  7889                           ; BSR set to: 0
  7890   001B18  AF64               	btfss	(___flmul@grs+3)& (0+255),7,b
  7891   001B1A  EF91  F00D         	goto	u3221
  7892   001B1E  EF93  F00D         	goto	u3220
  7893   001B22                     u3221:
  7894   001B22  EFB7  F00D         	goto	l970
  7895   001B26                     u3220:
  7896   001B26                     
  7897                           ; BSR set to: 0
  7898   001B26  0EFF               	movlw	255
  7899   001B28  1561               	andwf	___flmul@grs& (0+255),w,b
  7900   001B2A  6E4D               	movwf	??___flmul^0,c
  7901   001B2C  0EFF               	movlw	255
  7902   001B2E  1562               	andwf	(___flmul@grs+1)& (0+255),w,b
  7903   001B30  6E4E               	movwf	(??___flmul+1)^0,c
  7904   001B32  0EFF               	movlw	255
  7905   001B34  1563               	andwf	(___flmul@grs+2)& (0+255),w,b
  7906   001B36  6E4F               	movwf	(??___flmul+2)^0,c
  7907   001B38  0E7F               	movlw	127
  7908   001B3A  1564               	andwf	(___flmul@grs+3)& (0+255),w,b
  7909   001B3C  6E50               	movwf	(??___flmul+3)^0,c
  7910   001B3E  504D               	movf	??___flmul^0,w,c
  7911   001B40  104E               	iorwf	(??___flmul+1)^0,w,c
  7912   001B42  104F               	iorwf	(??___flmul+2)^0,w,c
  7913   001B44  1050               	iorwf	(??___flmul+3)^0,w,c
  7914   001B46  B4D8               	btfsc	status,2,c
  7915   001B48  EFA8  F00D         	goto	u3231
  7916   001B4C  EFAA  F00D         	goto	u3230
  7917   001B50                     u3231:
  7918   001B50  EFAE  F00D         	goto	l971
  7919   001B54                     u3230:
  7920   001B54                     l3240:
  7921                           
  7922                           ; BSR set to: 0
  7923   001B54  0E01               	movlw	1
  7924   001B56  6F65               	movwf	___flmul@aexp& (0+255),b
  7925   001B58  EFB7  F00D         	goto	l970
  7926   001B5C                     l971:
  7927                           
  7928                           ; BSR set to: 0
  7929   001B5C  A167               	btfss	___flmul@prod& (0+255),0,b
  7930   001B5E  EFB3  F00D         	goto	u3241
  7931   001B62  EFB5  F00D         	goto	u3240
  7932   001B66                     u3241:
  7933   001B66  EFB7  F00D         	goto	l970
  7934   001B6A                     u3240:
  7935   001B6A  EFAA  F00D         	goto	l3240
  7936   001B6E                     l970:
  7937                           
  7938                           ; BSR set to: 0
  7939   001B6E  5165               	movf	___flmul@aexp& (0+255),w,b
  7940   001B70  B4D8               	btfsc	status,2,c
  7941   001B72  EFBD  F00D         	goto	u3251
  7942   001B76  EFBF  F00D         	goto	u3250
  7943   001B7A                     u3251:
  7944   001B7A  EFE3  F00D         	goto	l3252
  7945   001B7E                     u3250:
  7946   001B7E                     
  7947                           ; BSR set to: 0
  7948   001B7E  0E01               	movlw	1
  7949   001B80  2767               	addwf	___flmul@prod& (0+255),f,b
  7950   001B82  0E00               	movlw	0
  7951   001B84  2368               	addwfc	(___flmul@prod+1)& (0+255),f,b
  7952   001B86  2369               	addwfc	(___flmul@prod+2)& (0+255),f,b
  7953   001B88  236A               	addwfc	(___flmul@prod+3)& (0+255),f,b
  7954   001B8A                     
  7955                           ; BSR set to: 0
  7956   001B8A  A16A               	btfss	(___flmul@prod+3)& (0+255),0,b
  7957   001B8C  EFCA  F00D         	goto	u3261
  7958   001B90  EFCC  F00D         	goto	u3260
  7959   001B94                     u3261:
  7960   001B94  EFE3  F00D         	goto	l3252
  7961   001B98                     u3260:
  7962   001B98                     
  7963                           ; BSR set to: 0
  7964   001B98  C067  F04D         	movff	___flmul@prod,??___flmul
  7965   001B9C  C068  F04E         	movff	___flmul@prod+1,??___flmul+1
  7966   001BA0  C069  F04F         	movff	___flmul@prod+2,??___flmul+2
  7967   001BA4  C06A  F050         	movff	___flmul@prod+3,??___flmul+3
  7968   001BA8  3450               	rlcf	(??___flmul+3)^0,w,c
  7969   001BAA  3250               	rrcf	(??___flmul+3)^0,f,c
  7970   001BAC  324F               	rrcf	(??___flmul+2)^0,f,c
  7971   001BAE  324E               	rrcf	(??___flmul+1)^0,f,c
  7972   001BB0  324D               	rrcf	??___flmul^0,f,c
  7973   001BB2  C04D  F067         	movff	??___flmul,___flmul@prod
  7974   001BB6  C04E  F068         	movff	??___flmul+1,___flmul@prod+1
  7975   001BBA  C04F  F069         	movff	??___flmul+2,___flmul@prod+2
  7976   001BBE  C050  F06A         	movff	??___flmul+3,___flmul@prod+3
  7977   001BC2                     
  7978                           ; BSR set to: 0
  7979   001BC2  4B6B               	infsnz	___flmul@temp& (0+255),f,b
  7980   001BC4  2B6C               	incf	(___flmul@temp+1)& (0+255),f,b
  7981   001BC6                     l3252:
  7982                           
  7983                           ; BSR set to: 0
  7984   001BC6  BF6C               	btfsc	(___flmul@temp+1)& (0+255),7,b
  7985   001BC8  EFEE  F00D         	goto	u3271
  7986   001BCC  516C               	movf	(___flmul@temp+1)& (0+255),w,b
  7987   001BCE  E108               	bnz	u3270
  7988   001BD0  296B               	incf	___flmul@temp& (0+255),w,b
  7989   001BD2  A0D8               	btfss	status,0,c
  7990   001BD4  EFEE  F00D         	goto	u3271
  7991   001BD8  EFF0  F00D         	goto	u3270
  7992   001BDC                     u3271:
  7993   001BDC  EFFA  F00D         	goto	l3256
  7994   001BE0                     u3270:
  7995   001BE0                     
  7996                           ; BSR set to: 0
  7997   001BE0  0E00               	movlw	0
  7998   001BE2  6F67               	movwf	___flmul@prod& (0+255),b
  7999   001BE4  0E00               	movlw	0
  8000   001BE6  6F68               	movwf	(___flmul@prod+1)& (0+255),b
  8001   001BE8  0E80               	movlw	128
  8002   001BEA  6F69               	movwf	(___flmul@prod+2)& (0+255),b
  8003   001BEC  0E7F               	movlw	127
  8004   001BEE  6F6A               	movwf	(___flmul@prod+3)& (0+255),b
  8005   001BF0  EF28  F00E         	goto	l3268
  8006   001BF4                     l3256:
  8007                           
  8008                           ; BSR set to: 0
  8009   001BF4  BF6C               	btfsc	(___flmul@temp+1)& (0+255),7,b
  8010   001BF6  EF07  F00E         	goto	u3280
  8011   001BFA  516C               	movf	(___flmul@temp+1)& (0+255),w,b
  8012   001BFC  E106               	bnz	u3281
  8013   001BFE  056B               	decf	___flmul@temp& (0+255),w,b
  8014   001C00  B0D8               	btfsc	status,0,c
  8015   001C02  EF05  F00E         	goto	u3281
  8016   001C06  EF07  F00E         	goto	u3280
  8017   001C0A                     u3281:
  8018   001C0A  EF13  F00E         	goto	l978
  8019   001C0E                     u3280:
  8020   001C0E                     
  8021                           ; BSR set to: 0
  8022   001C0E  0E00               	movlw	0
  8023   001C10  6F67               	movwf	___flmul@prod& (0+255),b
  8024   001C12  0E00               	movlw	0
  8025   001C14  6F68               	movwf	(___flmul@prod+1)& (0+255),b
  8026   001C16  0E00               	movlw	0
  8027   001C18  6F69               	movwf	(___flmul@prod+2)& (0+255),b
  8028   001C1A  0E00               	movlw	0
  8029   001C1C  6F6A               	movwf	(___flmul@prod+3)& (0+255),b
  8030   001C1E  0E00               	movlw	0
  8031   001C20  6F60               	movwf	___flmul@sign& (0+255),b
  8032   001C22  EF28  F00E         	goto	l3268
  8033   001C26                     l978:
  8034                           
  8035                           ; BSR set to: 0
  8036   001C26  C06B  F066         	movff	___flmul@temp,___flmul@bexp
  8037   001C2A                     
  8038                           ; BSR set to: 0
  8039   001C2A  0EFF               	movlw	255
  8040   001C2C  1767               	andwf	___flmul@prod& (0+255),f,b
  8041   001C2E  0EFF               	movlw	255
  8042   001C30  1768               	andwf	(___flmul@prod+1)& (0+255),f,b
  8043   001C32  0E7F               	movlw	127
  8044   001C34  1769               	andwf	(___flmul@prod+2)& (0+255),f,b
  8045   001C36  0E00               	movlw	0
  8046   001C38  176A               	andwf	(___flmul@prod+3)& (0+255),f,b
  8047   001C3A                     
  8048                           ; BSR set to: 0
  8049   001C3A  A166               	btfss	___flmul@bexp& (0+255),0,b
  8050   001C3C  EF22  F00E         	goto	u3291
  8051   001C40  EF24  F00E         	goto	u3290
  8052   001C44                     u3291:
  8053   001C44  EF25  F00E         	goto	l3266
  8054   001C48                     u3290:
  8055   001C48                     
  8056                           ; BSR set to: 0
  8057   001C48  8F69               	bsf	(___flmul@prod+2)& (0+255),7,b
  8058   001C4A                     l3266:
  8059                           
  8060                           ; BSR set to: 0
  8061   001C4A  90D8               	bcf	status,0,c
  8062   001C4C  3166               	rrcf	___flmul@bexp& (0+255),w,b
  8063   001C4E  6F6A               	movwf	(___flmul@prod+3)& (0+255),b
  8064   001C50                     l3268:
  8065                           
  8066                           ; BSR set to: 0
  8067   001C50  5160               	movf	___flmul@sign& (0+255),w,b
  8068   001C52  136A               	iorwf	(___flmul@prod+3)& (0+255),f,b
  8069   001C54                     
  8070                           ; BSR set to: 0
  8071   001C54  C067  F045         	movff	___flmul@prod,?___flmul
  8072   001C58  C068  F046         	movff	___flmul@prod+1,?___flmul+1
  8073   001C5C  C069  F047         	movff	___flmul@prod+2,?___flmul+2
  8074   001C60  C06A  F048         	movff	___flmul@prod+3,?___flmul+3
  8075   001C64                     l965:
  8076                           
  8077                           ; BSR set to: 0
  8078   001C64  0012               	return		;funcret
  8079   001C66                     __end_of___flmul:
  8080                           	callstack 0
  8081                           
  8082 ;; *************** function ___fladd *****************
  8083 ;; Defined at:
  8084 ;;		line 10 in file "C:\Program Files\Microchip\xc8\v2.45\pic\sources\c99\common\sprcadd.c"
  8085 ;; Parameters:    Size  Location     Type
  8086 ;;  b               4   52[COMRAM] unsigned char 
  8087 ;;  a               4   56[COMRAM] unsigned char 
  8088 ;; Auto vars:     Size  Location     Type
  8089 ;;  grs             1   67[COMRAM] unsigned char 
  8090 ;;  bexp            1   66[COMRAM] unsigned char 
  8091 ;;  aexp            1   65[COMRAM] unsigned char 
  8092 ;;  signs           1   64[COMRAM] unsigned char 
  8093 ;; Return value:  Size  Location     Type
  8094 ;;                  4   52[COMRAM] unsigned char 
  8095 ;; Registers used:
  8096 ;;		wreg, status,2, status,0
  8097 ;; Tracked objects:
  8098 ;;		On entry : 0/0
  8099 ;;		On exit  : 0/0
  8100 ;;		Unchanged: 0/0
  8101 ;; Data sizes:     COMRAM   BANK0   BANK1   BANK2   BANK3   BANK4   BANK5   BANK6   BANK7   BANK8   BANK9  BANK10  BANK1
      +1  BANK12  BANK13
  8102 ;;      Params:         8       0       0       0       0       0       0       0       0       0       0       0       
      +0       0       0
  8103 ;;      Locals:         4       0       0       0       0       0       0       0       0       0       0       0       
      +0       0       0
  8104 ;;      Temps:          4       0       0       0       0       0       0       0       0       0       0       0       
      +0       0       0
  8105 ;;      Totals:        16       0       0       0       0       0       0       0       0       0       0       0       
      +0       0       0
  8106 ;;Total ram usage:       16 bytes
  8107 ;; Hardware stack levels used: 1
  8108 ;; Hardware stack levels required when called: 2
  8109 ;; This function calls:
  8110 ;;		Nothing
  8111 ;; This function is called by:
  8112 ;;		_Callibrate
  8113 ;;		___flsub
  8114 ;;		_sinf
  8115 ;;		___cosdf
  8116 ;;		___rem_pio2f
  8117 ;;		___sindf
  8118 ;; This function uses a non-reentrant model
  8119 ;;
  8120                           
  8121                           	psect	text44
  8122   00137A                     __ptext44:
  8123                           	callstack 0
  8124   00137A                     ___fladd:
  8125                           	callstack 25
  8126   00137A  5038               	movf	(___fladd@b+3)^0,w,c
  8127   00137C  0B80               	andlw	128
  8128   00137E  6E41               	movwf	___fladd@signs^0,c
  8129   001380  5038               	movf	(___fladd@b+3)^0,w,c
  8130   001382  2438               	addwf	(___fladd@b+3)^0,w,c
  8131   001384  6E43               	movwf	___fladd@bexp^0,c
  8132   001386  AE37               	btfss	(___fladd@b+2)^0,7,c
  8133   001388  EFC8  F009         	goto	u2561
  8134   00138C  EFCA  F009         	goto	u2560
  8135   001390                     u2561:
  8136   001390  EFCB  F009         	goto	l2864
  8137   001394                     u2560:
  8138   001394  8043               	bsf	___fladd@bexp^0,0,c
  8139   001396                     l2864:
  8140   001396  5043               	movf	___fladd@bexp^0,w,c
  8141   001398  B4D8               	btfsc	status,2,c
  8142   00139A  EFD1  F009         	goto	u2571
  8143   00139E  EFD3  F009         	goto	u2570
  8144   0013A2                     u2571:
  8145   0013A2  EFE8  F009         	goto	l2874
  8146   0013A6                     u2570:
  8147   0013A6  2843               	incf	___fladd@bexp^0,w,c
  8148   0013A8  A4D8               	btfss	status,2,c
  8149   0013AA  EFD9  F009         	goto	u2581
  8150   0013AE  EFDB  F009         	goto	u2580
  8151   0013B2                     u2581:
  8152   0013B2  EFE3  F009         	goto	l2870
  8153   0013B6                     u2580:
  8154   0013B6  0E00               	movlw	0
  8155   0013B8  6E35               	movwf	___fladd@b^0,c
  8156   0013BA  0E00               	movlw	0
  8157   0013BC  6E36               	movwf	(___fladd@b+1)^0,c
  8158   0013BE  0E00               	movlw	0
  8159   0013C0  6E37               	movwf	(___fladd@b+2)^0,c
  8160   0013C2  0E00               	movlw	0
  8161   0013C4  6E38               	movwf	(___fladd@b+3)^0,c
  8162   0013C6                     l2870:
  8163   0013C6  8E37               	bsf	(___fladd@b+2)^0,7,c
  8164   0013C8  0E00               	movlw	0
  8165   0013CA  6E38               	movwf	(___fladd@b+3)^0,c
  8166   0013CC  EFF0  F009         	goto	l2876
  8167   0013D0                     l2874:
  8168   0013D0  0E00               	movlw	0
  8169   0013D2  6E35               	movwf	___fladd@b^0,c
  8170   0013D4  0E00               	movlw	0
  8171   0013D6  6E36               	movwf	(___fladd@b+1)^0,c
  8172   0013D8  0E00               	movlw	0
  8173   0013DA  6E37               	movwf	(___fladd@b+2)^0,c
  8174   0013DC  0E00               	movlw	0
  8175   0013DE  6E38               	movwf	(___fladd@b+3)^0,c
  8176   0013E0                     l2876:
  8177   0013E0  503C               	movf	(___fladd@a+3)^0,w,c
  8178   0013E2  0B80               	andlw	128
  8179   0013E4  6E42               	movwf	___fladd@aexp^0,c
  8180   0013E6  5041               	movf	___fladd@signs^0,w,c
  8181   0013E8  1842               	xorwf	___fladd@aexp^0,w,c
  8182   0013EA  B4D8               	btfsc	status,2,c
  8183   0013EC  EFFA  F009         	goto	u2591
  8184   0013F0  EFFC  F009         	goto	u2590
  8185   0013F4                     u2591:
  8186   0013F4  EFFD  F009         	goto	l2882
  8187   0013F8                     u2590:
  8188   0013F8  8C41               	bsf	___fladd@signs^0,6,c
  8189   0013FA                     l2882:
  8190   0013FA  503C               	movf	(___fladd@a+3)^0,w,c
  8191   0013FC  243C               	addwf	(___fladd@a+3)^0,w,c
  8192   0013FE  6E42               	movwf	___fladd@aexp^0,c
  8193   001400  AE3B               	btfss	(___fladd@a+2)^0,7,c
  8194   001402  EF05  F00A         	goto	u2601
  8195   001406  EF07  F00A         	goto	u2600
  8196   00140A                     u2601:
  8197   00140A  EF08  F00A         	goto	l2888
  8198   00140E                     u2600:
  8199   00140E  8042               	bsf	___fladd@aexp^0,0,c
  8200   001410                     l2888:
  8201   001410  5042               	movf	___fladd@aexp^0,w,c
  8202   001412  B4D8               	btfsc	status,2,c
  8203   001414  EF0E  F00A         	goto	u2611
  8204   001418  EF10  F00A         	goto	u2610
  8205   00141C                     u2611:
  8206   00141C  EF25  F00A         	goto	l2898
  8207   001420                     u2610:
  8208   001420  2842               	incf	___fladd@aexp^0,w,c
  8209   001422  A4D8               	btfss	status,2,c
  8210   001424  EF16  F00A         	goto	u2621
  8211   001428  EF18  F00A         	goto	u2620
  8212   00142C                     u2621:
  8213   00142C  EF20  F00A         	goto	l2894
  8214   001430                     u2620:
  8215   001430  0E00               	movlw	0
  8216   001432  6E39               	movwf	___fladd@a^0,c
  8217   001434  0E00               	movlw	0
  8218   001436  6E3A               	movwf	(___fladd@a+1)^0,c
  8219   001438  0E00               	movlw	0
  8220   00143A  6E3B               	movwf	(___fladd@a+2)^0,c
  8221   00143C  0E00               	movlw	0
  8222   00143E  6E3C               	movwf	(___fladd@a+3)^0,c
  8223   001440                     l2894:
  8224   001440  8E3B               	bsf	(___fladd@a+2)^0,7,c
  8225   001442  0E00               	movlw	0
  8226   001444  6E3C               	movwf	(___fladd@a+3)^0,c
  8227   001446  EF2D  F00A         	goto	l2900
  8228   00144A                     l2898:
  8229   00144A  0E00               	movlw	0
  8230   00144C  6E39               	movwf	___fladd@a^0,c
  8231   00144E  0E00               	movlw	0
  8232   001450  6E3A               	movwf	(___fladd@a+1)^0,c
  8233   001452  0E00               	movlw	0
  8234   001454  6E3B               	movwf	(___fladd@a+2)^0,c
  8235   001456  0E00               	movlw	0
  8236   001458  6E3C               	movwf	(___fladd@a+3)^0,c
  8237   00145A                     l2900:
  8238   00145A  5043               	movf	___fladd@bexp^0,w,c
  8239   00145C  5C42               	subwf	___fladd@aexp^0,w,c
  8240   00145E  B0D8               	btfsc	status,0,c
  8241   001460  EF34  F00A         	goto	u2631
  8242   001464  EF36  F00A         	goto	u2630
  8243   001468                     u2631:
  8244   001468  EF5D  F00A         	goto	l2936
  8245   00146C                     u2630:
  8246   00146C  AC41               	btfss	___fladd@signs^0,6,c
  8247   00146E  EF3B  F00A         	goto	u2641
  8248   001472  EF3D  F00A         	goto	u2640
  8249   001476                     u2641:
  8250   001476  EF3F  F00A         	goto	l2906
  8251   00147A                     u2640:
  8252   00147A  0E80               	movlw	128
  8253   00147C  1A41               	xorwf	___fladd@signs^0,f,c
  8254   00147E                     l2906:
  8255   00147E  C043  F044         	movff	___fladd@bexp,___fladd@grs
  8256   001482  C042  F043         	movff	___fladd@aexp,___fladd@bexp
  8257   001486  C044  F042         	movff	___fladd@grs,___fladd@aexp
  8258   00148A  C035  F044         	movff	___fladd@b,___fladd@grs
  8259   00148E  C039  F035         	movff	___fladd@a,___fladd@b
  8260   001492  C044  F039         	movff	___fladd@grs,___fladd@a
  8261   001496  C036  F044         	movff	___fladd@b+1,___fladd@grs
  8262   00149A  C03A  F036         	movff	___fladd@a+1,___fladd@b+1
  8263   00149E  C044  F03A         	movff	___fladd@grs,___fladd@a+1
  8264   0014A2  C037  F044         	movff	___fladd@b+2,___fladd@grs
  8265   0014A6  C03B  F037         	movff	___fladd@a+2,___fladd@b+2
  8266   0014AA  C044  F03B         	movff	___fladd@grs,___fladd@a+2
  8267   0014AE  C038  F044         	movff	___fladd@b+3,___fladd@grs
  8268   0014B2  C03C  F038         	movff	___fladd@a+3,___fladd@b+3
  8269   0014B6  C044  F03C         	movff	___fladd@grs,___fladd@a+3
  8270   0014BA                     l2936:
  8271   0014BA  0E00               	movlw	0
  8272   0014BC  6E44               	movwf	___fladd@grs^0,c
  8273   0014BE  5043               	movf	___fladd@bexp^0,w,c
  8274   0014C0  C042  F03D         	movff	___fladd@aexp,??___fladd
  8275   0014C4  6A3E               	clrf	(??___fladd+1)^0,c
  8276   0014C6  5E3D               	subwf	??___fladd^0,f,c
  8277   0014C8  0E00               	movlw	0
  8278   0014CA  5A3E               	subwfb	(??___fladd+1)^0,f,c
  8279   0014CC  BE3E               	btfsc	(??___fladd+1)^0,7,c
  8280   0014CE  EF72  F00A         	goto	u2651
  8281   0014D2  503E               	movf	(??___fladd+1)^0,w,c
  8282   0014D4  E109               	bnz	u2650
  8283   0014D6  0E1A               	movlw	26
  8284   0014D8  5C3D               	subwf	??___fladd^0,w,c
  8285   0014DA  A0D8               	btfss	status,0,c
  8286   0014DC  EF72  F00A         	goto	u2651
  8287   0014E0  EF74  F00A         	goto	u2650
  8288   0014E4                     u2651:
  8289   0014E4  EFAB  F00A         	goto	l876
  8290   0014E8                     u2650:
  8291   0014E8  5035               	movf	___fladd@b^0,w,c
  8292   0014EA  1036               	iorwf	(___fladd@b+1)^0,w,c
  8293   0014EC  1037               	iorwf	(___fladd@b+2)^0,w,c
  8294   0014EE  1038               	iorwf	(___fladd@b+3)^0,w,c
  8295   0014F0  A4D8               	btfss	status,2,c
  8296   0014F2  EF7D  F00A         	goto	u2661
  8297   0014F6  EF80  F00A         	goto	u2660
  8298   0014FA                     u2661:
  8299   0014FA  0E01               	movlw	1
  8300   0014FC  EF81  F00A         	goto	u2670
  8301   001500                     u2660:
  8302   001500  0E00               	movlw	0
  8303   001502                     u2670:
  8304   001502  6E44               	movwf	___fladd@grs^0,c
  8305   001504  0E00               	movlw	0
  8306   001506  6E35               	movwf	___fladd@b^0,c
  8307   001508  0E00               	movlw	0
  8308   00150A  6E36               	movwf	(___fladd@b+1)^0,c
  8309   00150C  0E00               	movlw	0
  8310   00150E  6E37               	movwf	(___fladd@b+2)^0,c
  8311   001510  0E00               	movlw	0
  8312   001512  6E38               	movwf	(___fladd@b+3)^0,c
  8313   001514  C042  F043         	movff	___fladd@aexp,___fladd@bexp
  8314   001518  EFB4  F00A         	goto	l875
  8315   00151C                     l877:
  8316   00151C  A044               	btfss	___fladd@grs^0,0,c
  8317   00151E  EF93  F00A         	goto	u2681
  8318   001522  EF95  F00A         	goto	u2680
  8319   001526                     u2681:
  8320   001526  EF9B  F00A         	goto	l2948
  8321   00152A                     u2680:
  8322   00152A  90D8               	bcf	status,0,c
  8323   00152C  3044               	rrcf	___fladd@grs^0,w,c
  8324   00152E  0901               	iorlw	1
  8325   001530  6E44               	movwf	___fladd@grs^0,c
  8326   001532  EF9D  F00A         	goto	l2950
  8327   001536                     l2948:
  8328   001536  90D8               	bcf	status,0,c
  8329   001538  3244               	rrcf	___fladd@grs^0,f,c
  8330   00153A                     l2950:
  8331   00153A  A035               	btfss	___fladd@b^0,0,c
  8332   00153C  EFA2  F00A         	goto	u2691
  8333   001540  EFA4  F00A         	goto	u2690
  8334   001544                     u2691:
  8335   001544  EFA5  F00A         	goto	l2954
  8336   001548                     u2690:
  8337   001548  8E44               	bsf	___fladd@grs^0,7,c
  8338   00154A                     l2954:
  8339   00154A  3438               	rlcf	(___fladd@b+3)^0,w,c
  8340   00154C  3238               	rrcf	(___fladd@b+3)^0,f,c
  8341   00154E  3237               	rrcf	(___fladd@b+2)^0,f,c
  8342   001550  3236               	rrcf	(___fladd@b+1)^0,f,c
  8343   001552  3235               	rrcf	___fladd@b^0,f,c
  8344   001554  2A43               	incf	___fladd@bexp^0,f,c
  8345   001556                     l876:
  8346   001556  5042               	movf	___fladd@aexp^0,w,c
  8347   001558  5C43               	subwf	___fladd@bexp^0,w,c
  8348   00155A  A0D8               	btfss	status,0,c
  8349   00155C  EFB2  F00A         	goto	u2701
  8350   001560  EFB4  F00A         	goto	u2700
  8351   001564                     u2701:
  8352   001564  EF8E  F00A         	goto	l877
  8353   001568                     u2700:
  8354   001568                     l875:
  8355   001568  BC41               	btfsc	___fladd@signs^0,6,c
  8356   00156A  EFB9  F00A         	goto	u2711
  8357   00156E  EFBB  F00A         	goto	u2710
  8358   001572                     u2711:
  8359   001572  EFFB  F00A         	goto	l2982
  8360   001576                     u2710:
  8361   001576  5043               	movf	___fladd@bexp^0,w,c
  8362   001578  A4D8               	btfss	status,2,c
  8363   00157A  EFC1  F00A         	goto	u2721
  8364   00157E  EFC3  F00A         	goto	u2720
  8365   001582                     u2721:
  8366   001582  EFCD  F00A         	goto	l2964
  8367   001586                     u2720:
  8368   001586  0E00               	movlw	0
  8369   001588  6E35               	movwf	?___fladd^0,c
  8370   00158A  0E00               	movlw	0
  8371   00158C  6E36               	movwf	(?___fladd+1)^0,c
  8372   00158E  0E00               	movlw	0
  8373   001590  6E37               	movwf	(?___fladd+2)^0,c
  8374   001592  0E00               	movlw	0
  8375   001594  6E38               	movwf	(?___fladd+3)^0,c
  8376   001596  EF1C  F00C         	goto	l884
  8377   00159A                     l2964:
  8378   00159A  5039               	movf	___fladd@a^0,w,c
  8379   00159C  2635               	addwf	___fladd@b^0,f,c
  8380   00159E  503A               	movf	(___fladd@a+1)^0,w,c
  8381   0015A0  2236               	addwfc	(___fladd@b+1)^0,f,c
  8382   0015A2  503B               	movf	(___fladd@a+2)^0,w,c
  8383   0015A4  2237               	addwfc	(___fladd@b+2)^0,f,c
  8384   0015A6  503C               	movf	(___fladd@a+3)^0,w,c
  8385   0015A8  2238               	addwfc	(___fladd@b+3)^0,f,c
  8386   0015AA  A038               	btfss	(___fladd@b+3)^0,0,c
  8387   0015AC  EFDA  F00A         	goto	u2731
  8388   0015B0  EFDC  F00A         	goto	u2730
  8389   0015B4                     u2731:
  8390   0015B4  EF88  F00B         	goto	l3018
  8391   0015B8                     u2730:
  8392   0015B8  A044               	btfss	___fladd@grs^0,0,c
  8393   0015BA  EFE1  F00A         	goto	u2741
  8394   0015BE  EFE3  F00A         	goto	u2740
  8395   0015C2                     u2741:
  8396   0015C2  EFE9  F00A         	goto	l2972
  8397   0015C6                     u2740:
  8398   0015C6  90D8               	bcf	status,0,c
  8399   0015C8  3044               	rrcf	___fladd@grs^0,w,c
  8400   0015CA  0901               	iorlw	1
  8401   0015CC  6E44               	movwf	___fladd@grs^0,c
  8402   0015CE  EFEB  F00A         	goto	l2974
  8403   0015D2                     l2972:
  8404   0015D2  90D8               	bcf	status,0,c
  8405   0015D4  3244               	rrcf	___fladd@grs^0,f,c
  8406   0015D6                     l2974:
  8407   0015D6  A035               	btfss	___fladd@b^0,0,c
  8408   0015D8  EFF0  F00A         	goto	u2751
  8409   0015DC  EFF2  F00A         	goto	u2750
  8410   0015E0                     u2751:
  8411   0015E0  EFF3  F00A         	goto	l2978
  8412   0015E4                     u2750:
  8413   0015E4  8E44               	bsf	___fladd@grs^0,7,c
  8414   0015E6                     l2978:
  8415   0015E6  3438               	rlcf	(___fladd@b+3)^0,w,c
  8416   0015E8  3238               	rrcf	(___fladd@b+3)^0,f,c
  8417   0015EA  3237               	rrcf	(___fladd@b+2)^0,f,c
  8418   0015EC  3236               	rrcf	(___fladd@b+1)^0,f,c
  8419   0015EE  3235               	rrcf	___fladd@b^0,f,c
  8420   0015F0  2A43               	incf	___fladd@bexp^0,f,c
  8421   0015F2  EF88  F00B         	goto	l3018
  8422   0015F6                     l2982:
  8423   0015F6  5039               	movf	___fladd@a^0,w,c
  8424   0015F8  5C35               	subwf	___fladd@b^0,w,c
  8425   0015FA  503A               	movf	(___fladd@a+1)^0,w,c
  8426   0015FC  5836               	subwfb	(___fladd@b+1)^0,w,c
  8427   0015FE  503B               	movf	(___fladd@a+2)^0,w,c
  8428   001600  5837               	subwfb	(___fladd@b+2)^0,w,c
  8429   001602  5038               	movf	(___fladd@b+3)^0,w,c
  8430   001604  0A80               	xorlw	128
  8431   001606  6E3D               	movwf	??___fladd^0,c
  8432   001608  503C               	movf	(___fladd@a+3)^0,w,c
  8433   00160A  0A80               	xorlw	128
  8434   00160C  583D               	subwfb	??___fladd^0,w,c
  8435   00160E  B0D8               	btfsc	status,0,c
  8436   001610  EF0C  F00B         	goto	u2761
  8437   001614  EF0E  F00B         	goto	u2760
  8438   001618                     u2761:
  8439   001618  EF39  F00B         	goto	l2992
  8440   00161C                     u2760:
  8441   00161C  5035               	movf	___fladd@b^0,w,c
  8442   00161E  5C39               	subwf	___fladd@a^0,w,c
  8443   001620  6E3D               	movwf	??___fladd^0,c
  8444   001622  5036               	movf	(___fladd@b+1)^0,w,c
  8445   001624  583A               	subwfb	(___fladd@a+1)^0,w,c
  8446   001626  6E3E               	movwf	(??___fladd+1)^0,c
  8447   001628  5037               	movf	(___fladd@b+2)^0,w,c
  8448   00162A  583B               	subwfb	(___fladd@a+2)^0,w,c
  8449   00162C  6E3F               	movwf	(??___fladd+2)^0,c
  8450   00162E  5038               	movf	(___fladd@b+3)^0,w,c
  8451   001630  583C               	subwfb	(___fladd@a+3)^0,w,c
  8452   001632  6E40               	movwf	(??___fladd+3)^0,c
  8453   001634  0EFF               	movlw	255
  8454   001636  243D               	addwf	??___fladd^0,w,c
  8455   001638  6E35               	movwf	___fladd@b^0,c
  8456   00163A  0EFF               	movlw	255
  8457   00163C  203E               	addwfc	(??___fladd+1)^0,w,c
  8458   00163E  6E36               	movwf	(___fladd@b+1)^0,c
  8459   001640  0EFF               	movlw	255
  8460   001642  203F               	addwfc	(??___fladd+2)^0,w,c
  8461   001644  6E37               	movwf	(___fladd@b+2)^0,c
  8462   001646  0EFF               	movlw	255
  8463   001648  2040               	addwfc	(??___fladd+3)^0,w,c
  8464   00164A  6E38               	movwf	(___fladd@b+3)^0,c
  8465   00164C  0E80               	movlw	128
  8466   00164E  1A41               	xorwf	___fladd@signs^0,f,c
  8467   001650  6C44               	negf	___fladd@grs^0,c
  8468   001652  5044               	movf	___fladd@grs^0,w,c
  8469   001654  A4D8               	btfss	status,2,c
  8470   001656  EF2F  F00B         	goto	u2771
  8471   00165A  EF31  F00B         	goto	u2770
  8472   00165E                     u2771:
  8473   00165E  EF41  F00B         	goto	l892
  8474   001662                     u2770:
  8475   001662  0E01               	movlw	1
  8476   001664  2635               	addwf	___fladd@b^0,f,c
  8477   001666  0E00               	movlw	0
  8478   001668  2236               	addwfc	(___fladd@b+1)^0,f,c
  8479   00166A  2237               	addwfc	(___fladd@b+2)^0,f,c
  8480   00166C  2238               	addwfc	(___fladd@b+3)^0,f,c
  8481   00166E  EF41  F00B         	goto	l892
  8482   001672                     l2992:
  8483   001672  5039               	movf	___fladd@a^0,w,c
  8484   001674  5E35               	subwf	___fladd@b^0,f,c
  8485   001676  503A               	movf	(___fladd@a+1)^0,w,c
  8486   001678  5A36               	subwfb	(___fladd@b+1)^0,f,c
  8487   00167A  503B               	movf	(___fladd@a+2)^0,w,c
  8488   00167C  5A37               	subwfb	(___fladd@b+2)^0,f,c
  8489   00167E  503C               	movf	(___fladd@a+3)^0,w,c
  8490   001680  5A38               	subwfb	(___fladd@b+3)^0,f,c
  8491   001682                     l892:
  8492   001682  5035               	movf	___fladd@b^0,w,c
  8493   001684  1036               	iorwf	(___fladd@b+1)^0,w,c
  8494   001686  1037               	iorwf	(___fladd@b+2)^0,w,c
  8495   001688  1038               	iorwf	(___fladd@b+3)^0,w,c
  8496   00168A  A4D8               	btfss	status,2,c
  8497   00168C  EF4A  F00B         	goto	u2781
  8498   001690  EF4C  F00B         	goto	u2780
  8499   001694                     u2781:
  8500   001694  EF81  F00B         	goto	l3016
  8501   001698                     u2780:
  8502   001698  5044               	movf	___fladd@grs^0,w,c
  8503   00169A  A4D8               	btfss	status,2,c
  8504   00169C  EF52  F00B         	goto	u2791
  8505   0016A0  EF54  F00B         	goto	u2790
  8506   0016A4                     u2791:
  8507   0016A4  EF81  F00B         	goto	l3016
  8508   0016A8                     u2790:
  8509   0016A8  0E00               	movlw	0
  8510   0016AA  6E35               	movwf	?___fladd^0,c
  8511   0016AC  0E00               	movlw	0
  8512   0016AE  6E36               	movwf	(?___fladd+1)^0,c
  8513   0016B0  0E00               	movlw	0
  8514   0016B2  6E37               	movwf	(?___fladd+2)^0,c
  8515   0016B4  0E00               	movlw	0
  8516   0016B6  6E38               	movwf	(?___fladd+3)^0,c
  8517   0016B8  EF1C  F00C         	goto	l884
  8518   0016BC                     l3000:
  8519   0016BC  90D8               	bcf	status,0,c
  8520   0016BE  3635               	rlcf	___fladd@b^0,f,c
  8521   0016C0  3636               	rlcf	(___fladd@b+1)^0,f,c
  8522   0016C2  3637               	rlcf	(___fladd@b+2)^0,f,c
  8523   0016C4  3638               	rlcf	(___fladd@b+3)^0,f,c
  8524   0016C6  AE44               	btfss	___fladd@grs^0,7,c
  8525   0016C8  EF68  F00B         	goto	u2801
  8526   0016CC  EF6A  F00B         	goto	u2800
  8527   0016D0                     u2801:
  8528   0016D0  EF6B  F00B         	goto	l3006
  8529   0016D4                     u2800:
  8530   0016D4  8035               	bsf	___fladd@b^0,0,c
  8531   0016D6                     l3006:
  8532   0016D6  A044               	btfss	___fladd@grs^0,0,c
  8533   0016D8  EF70  F00B         	goto	u2811
  8534   0016DC  EF72  F00B         	goto	u2810
  8535   0016E0                     u2811:
  8536   0016E0  EF76  F00B         	goto	l3010
  8537   0016E4                     u2810:
  8538   0016E4  80D8               	bsf	status,0,c
  8539   0016E6  3644               	rlcf	___fladd@grs^0,f,c
  8540   0016E8  EF78  F00B         	goto	l3012
  8541   0016EC                     l3010:
  8542   0016EC  90D8               	bcf	status,0,c
  8543   0016EE  3644               	rlcf	___fladd@grs^0,f,c
  8544   0016F0                     l3012:
  8545   0016F0  5043               	movf	___fladd@bexp^0,w,c
  8546   0016F2  B4D8               	btfsc	status,2,c
  8547   0016F4  EF7E  F00B         	goto	u2821
  8548   0016F8  EF80  F00B         	goto	u2820
  8549   0016FC                     u2821:
  8550   0016FC  EF81  F00B         	goto	l3016
  8551   001700                     u2820:
  8552   001700  0643               	decf	___fladd@bexp^0,f,c
  8553   001702                     l3016:
  8554   001702  AE37               	btfss	(___fladd@b+2)^0,7,c
  8555   001704  EF86  F00B         	goto	u2831
  8556   001708  EF88  F00B         	goto	u2830
  8557   00170C                     u2831:
  8558   00170C  EF5E  F00B         	goto	l3000
  8559   001710                     u2830:
  8560   001710                     l3018:
  8561   001710  0E00               	movlw	0
  8562   001712  6E42               	movwf	___fladd@aexp^0,c
  8563   001714  AE44               	btfss	___fladd@grs^0,7,c
  8564   001716  EF8F  F00B         	goto	u2841
  8565   00171A  EF91  F00B         	goto	u2840
  8566   00171E                     u2841:
  8567   00171E  EFA9  F00B         	goto	l901
  8568   001722                     u2840:
  8569   001722  C044  F03D         	movff	___fladd@grs,??___fladd
  8570   001726  0E7F               	movlw	127
  8571   001728  163D               	andwf	??___fladd^0,f,c
  8572   00172A  B4D8               	btfsc	status,2,c
  8573   00172C  EF9A  F00B         	goto	u2851
  8574   001730  EF9C  F00B         	goto	u2850
  8575   001734                     u2851:
  8576   001734  EFA0  F00B         	goto	l902
  8577   001738                     u2850:
  8578   001738                     l3024:
  8579   001738  0E01               	movlw	1
  8580   00173A  6E42               	movwf	___fladd@aexp^0,c
  8581   00173C  EFA9  F00B         	goto	l901
  8582   001740                     l902:
  8583   001740  A035               	btfss	___fladd@b^0,0,c
  8584   001742  EFA5  F00B         	goto	u2861
  8585   001746  EFA7  F00B         	goto	u2860
  8586   00174A                     u2861:
  8587   00174A  EFA9  F00B         	goto	l901
  8588   00174E                     u2860:
  8589   00174E  EF9C  F00B         	goto	l3024
  8590   001752                     l901:
  8591   001752  5042               	movf	___fladd@aexp^0,w,c
  8592   001754  B4D8               	btfsc	status,2,c
  8593   001756  EFAF  F00B         	goto	u2871
  8594   00175A  EFB1  F00B         	goto	u2870
  8595   00175E                     u2871:
  8596   00175E  EFDC  F00B         	goto	l3036
  8597   001762                     u2870:
  8598   001762  0E01               	movlw	1
  8599   001764  2635               	addwf	___fladd@b^0,f,c
  8600   001766  0E00               	movlw	0
  8601   001768  2236               	addwfc	(___fladd@b+1)^0,f,c
  8602   00176A  2237               	addwfc	(___fladd@b+2)^0,f,c
  8603   00176C  2238               	addwfc	(___fladd@b+3)^0,f,c
  8604   00176E  A038               	btfss	(___fladd@b+3)^0,0,c
  8605   001770  EFBC  F00B         	goto	u2881
  8606   001774  EFBE  F00B         	goto	u2880
  8607   001778                     u2881:
  8608   001778  EFDC  F00B         	goto	l3036
  8609   00177C                     u2880:
  8610   00177C  C035  F03D         	movff	___fladd@b,??___fladd
  8611   001780  C036  F03E         	movff	___fladd@b+1,??___fladd+1
  8612   001784  C037  F03F         	movff	___fladd@b+2,??___fladd+2
  8613   001788  C038  F040         	movff	___fladd@b+3,??___fladd+3
  8614   00178C  3440               	rlcf	(??___fladd+3)^0,w,c
  8615   00178E  3240               	rrcf	(??___fladd+3)^0,f,c
  8616   001790  323F               	rrcf	(??___fladd+2)^0,f,c
  8617   001792  323E               	rrcf	(??___fladd+1)^0,f,c
  8618   001794  323D               	rrcf	??___fladd^0,f,c
  8619   001796  C03D  F035         	movff	??___fladd,___fladd@b
  8620   00179A  C03E  F036         	movff	??___fladd+1,___fladd@b+1
  8621   00179E  C03F  F037         	movff	??___fladd+2,___fladd@b+2
  8622   0017A2  C040  F038         	movff	??___fladd+3,___fladd@b+3
  8623   0017A6  2843               	incf	___fladd@bexp^0,w,c
  8624   0017A8  B4D8               	btfsc	status,2,c
  8625   0017AA  EFD9  F00B         	goto	u2891
  8626   0017AE  EFDB  F00B         	goto	u2890
  8627   0017B2                     u2891:
  8628   0017B2  EFDC  F00B         	goto	l3036
  8629   0017B6                     u2890:
  8630   0017B6  2A43               	incf	___fladd@bexp^0,f,c
  8631   0017B8                     l3036:
  8632   0017B8  2843               	incf	___fladd@bexp^0,w,c
  8633   0017BA  B4D8               	btfsc	status,2,c
  8634   0017BC  EFE2  F00B         	goto	u2901
  8635   0017C0  EFE4  F00B         	goto	u2900
  8636   0017C4                     u2901:
  8637   0017C4  EFEC  F00B         	goto	l3040
  8638   0017C8                     u2900:
  8639   0017C8  5043               	movf	___fladd@bexp^0,w,c
  8640   0017CA  A4D8               	btfss	status,2,c
  8641   0017CC  EFEA  F00B         	goto	u2911
  8642   0017D0  EFEC  F00B         	goto	u2910
  8643   0017D4                     u2911:
  8644   0017D4  EFFE  F00B         	goto	l3044
  8645   0017D8                     u2910:
  8646   0017D8                     l3040:
  8647   0017D8  0E00               	movlw	0
  8648   0017DA  6E35               	movwf	___fladd@b^0,c
  8649   0017DC  0E00               	movlw	0
  8650   0017DE  6E36               	movwf	(___fladd@b+1)^0,c
  8651   0017E0  0E00               	movlw	0
  8652   0017E2  6E37               	movwf	(___fladd@b+2)^0,c
  8653   0017E4  0E00               	movlw	0
  8654   0017E6  6E38               	movwf	(___fladd@b+3)^0,c
  8655   0017E8  5043               	movf	___fladd@bexp^0,w,c
  8656   0017EA  A4D8               	btfss	status,2,c
  8657   0017EC  EFFA  F00B         	goto	u2921
  8658   0017F0  EFFC  F00B         	goto	u2920
  8659   0017F4                     u2921:
  8660   0017F4  EFFE  F00B         	goto	l3044
  8661   0017F8                     u2920:
  8662   0017F8  0E00               	movlw	0
  8663   0017FA  6E41               	movwf	___fladd@signs^0,c
  8664   0017FC                     l3044:
  8665   0017FC  A043               	btfss	___fladd@bexp^0,0,c
  8666   0017FE  EF03  F00C         	goto	u2931
  8667   001802  EF05  F00C         	goto	u2930
  8668   001806                     u2931:
  8669   001806  EF08  F00C         	goto	l3048
  8670   00180A                     u2930:
  8671   00180A  8E37               	bsf	(___fladd@b+2)^0,7,c
  8672   00180C  EF09  F00C         	goto	l3050
  8673   001810                     l3048:
  8674   001810  9E37               	bcf	(___fladd@b+2)^0,7,c
  8675   001812                     l3050:
  8676   001812  90D8               	bcf	status,0,c
  8677   001814  3043               	rrcf	___fladd@bexp^0,w,c
  8678   001816  6E38               	movwf	(___fladd@b+3)^0,c
  8679   001818  AE41               	btfss	___fladd@signs^0,7,c
  8680   00181A  EF11  F00C         	goto	u2941
  8681   00181E  EF13  F00C         	goto	u2940
  8682   001822                     u2941:
  8683   001822  EF14  F00C         	goto	l3056
  8684   001826                     u2940:
  8685   001826  8E38               	bsf	(___fladd@b+3)^0,7,c
  8686   001828                     l3056:
  8687   001828  C035  F035         	movff	___fladd@b,?___fladd
  8688   00182C  C036  F036         	movff	___fladd@b+1,?___fladd+1
  8689   001830  C037  F037         	movff	___fladd@b+2,?___fladd+2
  8690   001834  C038  F038         	movff	___fladd@b+3,?___fladd+3
  8691   001838                     l884:
  8692   001838  0012               	return		;funcret
  8693   00183A                     __end_of___fladd:
  8694                           	callstack 0
  8695                           
  8696 ;; *************** function ___wmul *****************
  8697 ;; Defined at:
  8698 ;;		line 15 in file "C:\Program Files\Microchip\xc8\v2.45\pic\sources\c99\common\Umul16.c"
  8699 ;; Parameters:    Size  Location     Type
  8700 ;;  multiplier      2    7[COMRAM] unsigned int 
  8701 ;;  multiplicand    2    9[COMRAM] unsigned int 
  8702 ;; Auto vars:     Size  Location     Type
  8703 ;;  product         2   11[COMRAM] unsigned int 
  8704 ;; Return value:  Size  Location     Type
  8705 ;;                  2    7[COMRAM] unsigned int 
  8706 ;; Registers used:
  8707 ;;		wreg, status,2, status,0, prodl, prodh
  8708 ;; Tracked objects:
  8709 ;;		On entry : 0/0
  8710 ;;		On exit  : 0/0
  8711 ;;		Unchanged: 0/0
  8712 ;; Data sizes:     COMRAM   BANK0   BANK1   BANK2   BANK3   BANK4   BANK5   BANK6   BANK7   BANK8   BANK9  BANK10  BANK1
      +1  BANK12  BANK13
  8713 ;;      Params:         4       0       0       0       0       0       0       0       0       0       0       0       
      +0       0       0
  8714 ;;      Locals:         2       0       0       0       0       0       0       0       0       0       0       0       
      +0       0       0
  8715 ;;      Temps:          0       0       0       0       0       0       0       0       0       0       0       0       
      +0       0       0
  8716 ;;      Totals:         6       0       0       0       0       0       0       0       0       0       0       0       
      +0       0       0
  8717 ;;Total ram usage:        6 bytes
  8718 ;; Hardware stack levels used: 1
  8719 ;; Hardware stack levels required when called: 2
  8720 ;; This function calls:
  8721 ;;		Nothing
  8722 ;; This function is called by:
  8723 ;;		_Callibrate
  8724 ;;		_calc_time
  8725 ;;		_read_prec_or_width
  8726 ;;		_ADC_getval
  8727 ;; This function uses a non-reentrant model
  8728 ;;
  8729                           
  8730                           	psect	text45
  8731   0040C6                     __ptext45:
  8732                           	callstack 0
  8733   0040C6                     ___wmul:
  8734                           	callstack 23
  8735   0040C6  5008               	movf	___wmul@multiplier^0,w,c
  8736   0040C8  020A               	mulwf	___wmul@multiplicand^0,c
  8737   0040CA  CFF3 F00C          	movff	prodl,___wmul@product
  8738   0040CE  CFF4 F00D          	movff	prodh,___wmul@product+1
  8739   0040D2  5008               	movf	___wmul@multiplier^0,w,c
  8740   0040D4  020B               	mulwf	(___wmul@multiplicand+1)^0,c
  8741   0040D6  50F3               	movf	243,w,c
  8742   0040D8  260D               	addwf	(___wmul@product+1)^0,f,c
  8743   0040DA  5009               	movf	(___wmul@multiplier+1)^0,w,c
  8744   0040DC  020A               	mulwf	___wmul@multiplicand^0,c
  8745   0040DE  50F3               	movf	243,w,c
  8746   0040E0  260D               	addwf	(___wmul@product+1)^0,f,c
  8747   0040E2  C00C  F008         	movff	___wmul@product,?___wmul
  8748   0040E6  C00D  F009         	movff	___wmul@product+1,?___wmul+1
  8749   0040EA  0012               	return		;funcret
  8750   0040EC                     __end_of___wmul:
  8751                           	callstack 0
  8752                           
  8753 ;; *************** function ___lwmod *****************
  8754 ;; Defined at:
  8755 ;;		line 7 in file "C:\Program Files\Microchip\xc8\v2.45\pic\sources\c99\common\lwmod.c"
  8756 ;; Parameters:    Size  Location     Type
  8757 ;;  dividend        2    3[COMRAM] unsigned int 
  8758 ;;  divisor         2    5[COMRAM] unsigned int 
  8759 ;; Auto vars:     Size  Location     Type
  8760 ;;  counter         1    7[COMRAM] unsigned char 
  8761 ;; Return value:  Size  Location     Type
  8762 ;;                  2    3[COMRAM] unsigned int 
  8763 ;; Registers used:
  8764 ;;		wreg, status,2, status,0
  8765 ;; Tracked objects:
  8766 ;;		On entry : 0/0
  8767 ;;		On exit  : 0/0
  8768 ;;		Unchanged: 0/0
  8769 ;; Data sizes:     COMRAM   BANK0   BANK1   BANK2   BANK3   BANK4   BANK5   BANK6   BANK7   BANK8   BANK9  BANK10  BANK1
      +1  BANK12  BANK13
  8770 ;;      Params:         4       0       0       0       0       0       0       0       0       0       0       0       
      +0       0       0
  8771 ;;      Locals:         1       0       0       0       0       0       0       0       0       0       0       0       
      +0       0       0
  8772 ;;      Temps:          0       0       0       0       0       0       0       0       0       0       0       0       
      +0       0       0
  8773 ;;      Totals:         5       0       0       0       0       0       0       0       0       0       0       0       
      +0       0       0
  8774 ;;Total ram usage:        5 bytes
  8775 ;; Hardware stack levels used: 1
  8776 ;; Hardware stack levels required when called: 2
  8777 ;; This function calls:
  8778 ;;		Nothing
  8779 ;; This function is called by:
  8780 ;;		_LEDarray_control
  8781 ;;		_Callibrate
  8782 ;;		_month_days
  8783 ;; This function uses a non-reentrant model
  8784 ;;
  8785                           
  8786                           	psect	text46
  8787   003CD6                     __ptext46:
  8788                           	callstack 0
  8789   003CD6                     ___lwmod:
  8790                           	callstack 26
  8791   003CD6  5006               	movf	___lwmod@divisor^0,w,c
  8792   003CD8  1007               	iorwf	(___lwmod@divisor+1)^0,w,c
  8793   003CDA  B4D8               	btfsc	status,2,c
  8794   003CDC  EF72  F01E         	goto	u3631
  8795   003CE0  EF74  F01E         	goto	u3630
  8796   003CE4                     u3631:
  8797   003CE4  EF98  F01E         	goto	l848
  8798   003CE8                     u3630:
  8799   003CE8  0E01               	movlw	1
  8800   003CEA  6E08               	movwf	___lwmod@counter^0,c
  8801   003CEC  EF7C  F01E         	goto	l3478
  8802   003CF0                     l3476:
  8803   003CF0  90D8               	bcf	status,0,c
  8804   003CF2  3606               	rlcf	___lwmod@divisor^0,f,c
  8805   003CF4  3607               	rlcf	(___lwmod@divisor+1)^0,f,c
  8806   003CF6  2A08               	incf	___lwmod@counter^0,f,c
  8807   003CF8                     l3478:
  8808   003CF8  AE07               	btfss	(___lwmod@divisor+1)^0,7,c
  8809   003CFA  EF81  F01E         	goto	u3641
  8810   003CFE  EF83  F01E         	goto	u3640
  8811   003D02                     u3641:
  8812   003D02  EF78  F01E         	goto	l3476
  8813   003D06                     u3640:
  8814   003D06                     l3480:
  8815   003D06  5006               	movf	___lwmod@divisor^0,w,c
  8816   003D08  5C04               	subwf	___lwmod@dividend^0,w,c
  8817   003D0A  5007               	movf	(___lwmod@divisor+1)^0,w,c
  8818   003D0C  5805               	subwfb	(___lwmod@dividend+1)^0,w,c
  8819   003D0E  A0D8               	btfss	status,0,c
  8820   003D10  EF8C  F01E         	goto	u3651
  8821   003D14  EF8E  F01E         	goto	u3650
  8822   003D18                     u3651:
  8823   003D18  EF92  F01E         	goto	l3484
  8824   003D1C                     u3650:
  8825   003D1C  5006               	movf	___lwmod@divisor^0,w,c
  8826   003D1E  5E04               	subwf	___lwmod@dividend^0,f,c
  8827   003D20  5007               	movf	(___lwmod@divisor+1)^0,w,c
  8828   003D22  5A05               	subwfb	(___lwmod@dividend+1)^0,f,c
  8829   003D24                     l3484:
  8830   003D24  90D8               	bcf	status,0,c
  8831   003D26  3207               	rrcf	(___lwmod@divisor+1)^0,f,c
  8832   003D28  3206               	rrcf	___lwmod@divisor^0,f,c
  8833   003D2A  2E08               	decfsz	___lwmod@counter^0,f,c
  8834   003D2C  EF83  F01E         	goto	l3480
  8835   003D30                     l848:
  8836   003D30  C004  F004         	movff	___lwmod@dividend,?___lwmod
  8837   003D34  C005  F005         	movff	___lwmod@dividend+1,?___lwmod+1
  8838   003D38  0012               	return		;funcret
  8839   003D3A                     __end_of___lwmod:
  8840                           	callstack 0
  8841                           
  8842 ;; *************** function ___lwdiv *****************
  8843 ;; Defined at:
  8844 ;;		line 7 in file "C:\Program Files\Microchip\xc8\v2.45\pic\sources\c99\common\lwdiv.c"
  8845 ;; Parameters:    Size  Location     Type
  8846 ;;  dividend        2   13[COMRAM] unsigned int 
  8847 ;;  divisor         2   15[COMRAM] unsigned int 
  8848 ;; Auto vars:     Size  Location     Type
  8849 ;;  quotient        2   17[COMRAM] unsigned int 
  8850 ;;  counter         1   19[COMRAM] unsigned char 
  8851 ;; Return value:  Size  Location     Type
  8852 ;;                  2   13[COMRAM] unsigned int 
  8853 ;; Registers used:
  8854 ;;		wreg, status,2, status,0
  8855 ;; Tracked objects:
  8856 ;;		On entry : 0/0
  8857 ;;		On exit  : 0/0
  8858 ;;		Unchanged: 0/0
  8859 ;; Data sizes:     COMRAM   BANK0   BANK1   BANK2   BANK3   BANK4   BANK5   BANK6   BANK7   BANK8   BANK9  BANK10  BANK1
      +1  BANK12  BANK13
  8860 ;;      Params:         4       0       0       0       0       0       0       0       0       0       0       0       
      +0       0       0
  8861 ;;      Locals:         3       0       0       0       0       0       0       0       0       0       0       0       
      +0       0       0
  8862 ;;      Temps:          0       0       0       0       0       0       0       0       0       0       0       0       
      +0       0       0
  8863 ;;      Totals:         7       0       0       0       0       0       0       0       0       0       0       0       
      +0       0       0
  8864 ;;Total ram usage:        7 bytes
  8865 ;; Hardware stack levels used: 1
  8866 ;; Hardware stack levels required when called: 2
  8867 ;; This function calls:
  8868 ;;		Nothing
  8869 ;; This function is called by:
  8870 ;;		_Callibrate
  8871 ;;		_calc_time
  8872 ;;		_ADC_getval
  8873 ;; This function uses a non-reentrant model
  8874 ;;
  8875                           
  8876                           	psect	text47
  8877   003BFA                     __ptext47:
  8878                           	callstack 0
  8879   003BFA                     ___lwdiv:
  8880                           	callstack 27
  8881   003BFA  0E00               	movlw	0
  8882   003BFC  6E13               	movwf	(___lwdiv@quotient+1)^0,c
  8883   003BFE  0E00               	movlw	0
  8884   003C00  6E12               	movwf	___lwdiv@quotient^0,c
  8885   003C02  5010               	movf	___lwdiv@divisor^0,w,c
  8886   003C04  1011               	iorwf	(___lwdiv@divisor+1)^0,w,c
  8887   003C06  B4D8               	btfsc	status,2,c
  8888   003C08  EF08  F01E         	goto	u4351
  8889   003C0C  EF0A  F01E         	goto	u4350
  8890   003C10                     u4351:
  8891   003C10  EF32  F01E         	goto	l838
  8892   003C14                     u4350:
  8893   003C14  0E01               	movlw	1
  8894   003C16  6E14               	movwf	___lwdiv@counter^0,c
  8895   003C18  EF12  F01E         	goto	l3918
  8896   003C1C                     l3916:
  8897   003C1C  90D8               	bcf	status,0,c
  8898   003C1E  3610               	rlcf	___lwdiv@divisor^0,f,c
  8899   003C20  3611               	rlcf	(___lwdiv@divisor+1)^0,f,c
  8900   003C22  2A14               	incf	___lwdiv@counter^0,f,c
  8901   003C24                     l3918:
  8902   003C24  AE11               	btfss	(___lwdiv@divisor+1)^0,7,c
  8903   003C26  EF17  F01E         	goto	u4361
  8904   003C2A  EF19  F01E         	goto	u4360
  8905   003C2E                     u4361:
  8906   003C2E  EF0E  F01E         	goto	l3916
  8907   003C32                     u4360:
  8908   003C32                     l3920:
  8909   003C32  90D8               	bcf	status,0,c
  8910   003C34  3612               	rlcf	___lwdiv@quotient^0,f,c
  8911   003C36  3613               	rlcf	(___lwdiv@quotient+1)^0,f,c
  8912   003C38  5010               	movf	___lwdiv@divisor^0,w,c
  8913   003C3A  5C0E               	subwf	___lwdiv@dividend^0,w,c
  8914   003C3C  5011               	movf	(___lwdiv@divisor+1)^0,w,c
  8915   003C3E  580F               	subwfb	(___lwdiv@dividend+1)^0,w,c
  8916   003C40  A0D8               	btfss	status,0,c
  8917   003C42  EF25  F01E         	goto	u4371
  8918   003C46  EF27  F01E         	goto	u4370
  8919   003C4A                     u4371:
  8920   003C4A  EF2C  F01E         	goto	l3928
  8921   003C4E                     u4370:
  8922   003C4E  5010               	movf	___lwdiv@divisor^0,w,c
  8923   003C50  5E0E               	subwf	___lwdiv@dividend^0,f,c
  8924   003C52  5011               	movf	(___lwdiv@divisor+1)^0,w,c
  8925   003C54  5A0F               	subwfb	(___lwdiv@dividend+1)^0,f,c
  8926   003C56  8012               	bsf	___lwdiv@quotient^0,0,c
  8927   003C58                     l3928:
  8928   003C58  90D8               	bcf	status,0,c
  8929   003C5A  3211               	rrcf	(___lwdiv@divisor+1)^0,f,c
  8930   003C5C  3210               	rrcf	___lwdiv@divisor^0,f,c
  8931   003C5E  2E14               	decfsz	___lwdiv@counter^0,f,c
  8932   003C60  EF19  F01E         	goto	l3920
  8933   003C64                     l838:
  8934   003C64  C012  F00E         	movff	___lwdiv@quotient,?___lwdiv
  8935   003C68  C013  F00F         	movff	___lwdiv@quotient+1,?___lwdiv+1
  8936   003C6C  0012               	return		;funcret
  8937   003C6E                     __end_of___lwdiv:
  8938                           	callstack 0
  8939                           
  8940 ;; *************** function ___fldiv *****************
  8941 ;; Defined at:
  8942 ;;		line 11 in file "C:\Program Files\Microchip\xc8\v2.45\pic\sources\c99\common\sprcdiv.c"
  8943 ;; Parameters:    Size  Location     Type
  8944 ;;  b               4   27[COMRAM] unsigned int 
  8945 ;;  a               4   31[COMRAM] unsigned int 
  8946 ;; Auto vars:     Size  Location     Type
  8947 ;;  grs             4   46[COMRAM] unsigned long 
  8948 ;;  rem             4   39[COMRAM] unsigned long 
  8949 ;;  new_exp         2   44[COMRAM] short 
  8950 ;;  aexp            1   51[COMRAM] unsigned char 
  8951 ;;  bexp            1   50[COMRAM] unsigned char 
  8952 ;;  sign            1   43[COMRAM] unsigned char 
  8953 ;; Return value:  Size  Location     Type
  8954 ;;                  4   27[COMRAM] unsigned char 
  8955 ;; Registers used:
  8956 ;;		wreg, status,2, status,0
  8957 ;; Tracked objects:
  8958 ;;		On entry : 0/0
  8959 ;;		On exit  : 0/0
  8960 ;;		Unchanged: 0/0
  8961 ;; Data sizes:     COMRAM   BANK0   BANK1   BANK2   BANK3   BANK4   BANK5   BANK6   BANK7   BANK8   BANK9  BANK10  BANK1
      +1  BANK12  BANK13
  8962 ;;      Params:         8       0       0       0       0       0       0       0       0       0       0       0       
      +0       0       0
  8963 ;;      Locals:        13       0       0       0       0       0       0       0       0       0       0       0       
      +0       0       0
  8964 ;;      Temps:          4       0       0       0       0       0       0       0       0       0       0       0       
      +0       0       0
  8965 ;;      Totals:        25       0       0       0       0       0       0       0       0       0       0       0       
      +0       0       0
  8966 ;;Total ram usage:       25 bytes
  8967 ;; Hardware stack levels used: 1
  8968 ;; Hardware stack levels required when called: 2
  8969 ;; This function calls:
  8970 ;;		Nothing
  8971 ;; This function is called by:
  8972 ;;		_Callibrate
  8973 ;; This function uses a non-reentrant model
  8974 ;;
  8975                           
  8976                           	psect	text48
  8977   0023FC                     __ptext48:
  8978                           	callstack 0
  8979   0023FC                     ___fldiv:
  8980                           	callstack 27
  8981   0023FC  501F               	movf	(___fldiv@b+3)^0,w,c
  8982   0023FE  0B80               	andlw	128
  8983   002400  6E2C               	movwf	___fldiv@sign^0,c
  8984   002402  501F               	movf	(___fldiv@b+3)^0,w,c
  8985   002404  241F               	addwf	(___fldiv@b+3)^0,w,c
  8986   002406  6E33               	movwf	___fldiv@bexp^0,c
  8987   002408  AE1E               	btfss	(___fldiv@b+2)^0,7,c
  8988   00240A  EF09  F012         	goto	u4121
  8989   00240E  EF0B  F012         	goto	u4120
  8990   002412                     u4121:
  8991   002412  EF0C  F012         	goto	l3778
  8992   002416                     u4120:
  8993   002416  8033               	bsf	___fldiv@bexp^0,0,c
  8994   002418                     l3778:
  8995   002418  5033               	movf	___fldiv@bexp^0,w,c
  8996   00241A  B4D8               	btfsc	status,2,c
  8997   00241C  EF12  F012         	goto	u4131
  8998   002420  EF14  F012         	goto	u4130
  8999   002424                     u4131:
  9000   002424  EF29  F012         	goto	l3788
  9001   002428                     u4130:
  9002   002428  2833               	incf	___fldiv@bexp^0,w,c
  9003   00242A  A4D8               	btfss	status,2,c
  9004   00242C  EF1A  F012         	goto	u4141
  9005   002430  EF1C  F012         	goto	u4140
  9006   002434                     u4141:
  9007   002434  EF24  F012         	goto	l3784
  9008   002438                     u4140:
  9009   002438  0E00               	movlw	0
  9010   00243A  6E1C               	movwf	___fldiv@b^0,c
  9011   00243C  0E00               	movlw	0
  9012   00243E  6E1D               	movwf	(___fldiv@b+1)^0,c
  9013   002440  0E00               	movlw	0
  9014   002442  6E1E               	movwf	(___fldiv@b+2)^0,c
  9015   002444  0E00               	movlw	0
  9016   002446  6E1F               	movwf	(___fldiv@b+3)^0,c
  9017   002448                     l3784:
  9018   002448  8E1E               	bsf	(___fldiv@b+2)^0,7,c
  9019   00244A  0E00               	movlw	0
  9020   00244C  6E1F               	movwf	(___fldiv@b+3)^0,c
  9021   00244E  EF31  F012         	goto	l3790
  9022   002452                     l3788:
  9023   002452  0E00               	movlw	0
  9024   002454  6E1C               	movwf	___fldiv@b^0,c
  9025   002456  0E00               	movlw	0
  9026   002458  6E1D               	movwf	(___fldiv@b+1)^0,c
  9027   00245A  0E00               	movlw	0
  9028   00245C  6E1E               	movwf	(___fldiv@b+2)^0,c
  9029   00245E  0E00               	movlw	0
  9030   002460  6E1F               	movwf	(___fldiv@b+3)^0,c
  9031   002462                     l3790:
  9032   002462  5023               	movf	(___fldiv@a+3)^0,w,c
  9033   002464  0B80               	andlw	128
  9034   002466  1A2C               	xorwf	___fldiv@sign^0,f,c
  9035   002468  5023               	movf	(___fldiv@a+3)^0,w,c
  9036   00246A  2423               	addwf	(___fldiv@a+3)^0,w,c
  9037   00246C  6E34               	movwf	___fldiv@aexp^0,c
  9038   00246E  AE22               	btfss	(___fldiv@a+2)^0,7,c
  9039   002470  EF3C  F012         	goto	u4151
  9040   002474  EF3E  F012         	goto	u4150
  9041   002478                     u4151:
  9042   002478  EF3F  F012         	goto	l3798
  9043   00247C                     u4150:
  9044   00247C  8034               	bsf	___fldiv@aexp^0,0,c
  9045   00247E                     l3798:
  9046   00247E  5034               	movf	___fldiv@aexp^0,w,c
  9047   002480  B4D8               	btfsc	status,2,c
  9048   002482  EF45  F012         	goto	u4161
  9049   002486  EF47  F012         	goto	u4160
  9050   00248A                     u4161:
  9051   00248A  EF5C  F012         	goto	l3808
  9052   00248E                     u4160:
  9053   00248E  2834               	incf	___fldiv@aexp^0,w,c
  9054   002490  A4D8               	btfss	status,2,c
  9055   002492  EF4D  F012         	goto	u4171
  9056   002496  EF4F  F012         	goto	u4170
  9057   00249A                     u4171:
  9058   00249A  EF57  F012         	goto	l3804
  9059   00249E                     u4170:
  9060   00249E  0E00               	movlw	0
  9061   0024A0  6E20               	movwf	___fldiv@a^0,c
  9062   0024A2  0E00               	movlw	0
  9063   0024A4  6E21               	movwf	(___fldiv@a+1)^0,c
  9064   0024A6  0E00               	movlw	0
  9065   0024A8  6E22               	movwf	(___fldiv@a+2)^0,c
  9066   0024AA  0E00               	movlw	0
  9067   0024AC  6E23               	movwf	(___fldiv@a+3)^0,c
  9068   0024AE                     l3804:
  9069   0024AE  8E22               	bsf	(___fldiv@a+2)^0,7,c
  9070   0024B0  0E00               	movlw	0
  9071   0024B2  6E23               	movwf	(___fldiv@a+3)^0,c
  9072   0024B4  EF64  F012         	goto	l3810
  9073   0024B8                     l3808:
  9074   0024B8  0E00               	movlw	0
  9075   0024BA  6E20               	movwf	___fldiv@a^0,c
  9076   0024BC  0E00               	movlw	0
  9077   0024BE  6E21               	movwf	(___fldiv@a+1)^0,c
  9078   0024C0  0E00               	movlw	0
  9079   0024C2  6E22               	movwf	(___fldiv@a+2)^0,c
  9080   0024C4  0E00               	movlw	0
  9081   0024C6  6E23               	movwf	(___fldiv@a+3)^0,c
  9082   0024C8                     l3810:
  9083   0024C8  5020               	movf	___fldiv@a^0,w,c
  9084   0024CA  1021               	iorwf	(___fldiv@a+1)^0,w,c
  9085   0024CC  1022               	iorwf	(___fldiv@a+2)^0,w,c
  9086   0024CE  1023               	iorwf	(___fldiv@a+3)^0,w,c
  9087   0024D0  A4D8               	btfss	status,2,c
  9088   0024D2  EF6D  F012         	goto	u4181
  9089   0024D6  EF6F  F012         	goto	u4180
  9090   0024DA                     u4181:
  9091   0024DA  EF87  F012         	goto	l3822
  9092   0024DE                     u4180:
  9093   0024DE  0E00               	movlw	0
  9094   0024E0  6E1C               	movwf	___fldiv@b^0,c
  9095   0024E2  0E00               	movlw	0
  9096   0024E4  6E1D               	movwf	(___fldiv@b+1)^0,c
  9097   0024E6  0E00               	movlw	0
  9098   0024E8  6E1E               	movwf	(___fldiv@b+2)^0,c
  9099   0024EA  0E00               	movlw	0
  9100   0024EC  6E1F               	movwf	(___fldiv@b+3)^0,c
  9101   0024EE  0E80               	movlw	128
  9102   0024F0  121E               	iorwf	(___fldiv@b+2)^0,f,c
  9103   0024F2  0E7F               	movlw	127
  9104   0024F4  121F               	iorwf	(___fldiv@b+3)^0,f,c
  9105   0024F6                     l3816:
  9106   0024F6  502C               	movf	___fldiv@sign^0,w,c
  9107   0024F8  121F               	iorwf	(___fldiv@b+3)^0,f,c
  9108   0024FA  C01C  F01C         	movff	___fldiv@b,?___fldiv
  9109   0024FE  C01D  F01D         	movff	___fldiv@b+1,?___fldiv+1
  9110   002502  C01E  F01E         	movff	___fldiv@b+2,?___fldiv+2
  9111   002506  C01F  F01F         	movff	___fldiv@b+3,?___fldiv+3
  9112   00250A  EFCA  F013         	goto	l929
  9113   00250E                     l3822:
  9114   00250E  5033               	movf	___fldiv@bexp^0,w,c
  9115   002510  A4D8               	btfss	status,2,c
  9116   002512  EF8D  F012         	goto	u4191
  9117   002516  EF8F  F012         	goto	u4190
  9118   00251A                     u4191:
  9119   00251A  EF99  F012         	goto	l3830
  9120   00251E                     u4190:
  9121   00251E  0E00               	movlw	0
  9122   002520  6E1C               	movwf	?___fldiv^0,c
  9123   002522  0E00               	movlw	0
  9124   002524  6E1D               	movwf	(?___fldiv+1)^0,c
  9125   002526  0E00               	movlw	0
  9126   002528  6E1E               	movwf	(?___fldiv+2)^0,c
  9127   00252A  0E00               	movlw	0
  9128   00252C  6E1F               	movwf	(?___fldiv+3)^0,c
  9129   00252E  EFCA  F013         	goto	l929
  9130   002532                     l3830:
  9131   002532  5034               	movf	___fldiv@aexp^0,w,c
  9132   002534  C033  F024         	movff	___fldiv@bexp,??___fldiv
  9133   002538  6A25               	clrf	(??___fldiv+1)^0,c
  9134   00253A  5E24               	subwf	??___fldiv^0,f,c
  9135   00253C  0E00               	movlw	0
  9136   00253E  5A25               	subwfb	(??___fldiv+1)^0,f,c
  9137   002540  0E7F               	movlw	127
  9138   002542  2424               	addwf	??___fldiv^0,w,c
  9139   002544  6E2D               	movwf	___fldiv@new_exp^0,c
  9140   002546  0E00               	movlw	0
  9141   002548  2025               	addwfc	(??___fldiv+1)^0,w,c
  9142   00254A  6E2E               	movwf	(___fldiv@new_exp+1)^0,c
  9143   00254C  C01C  F028         	movff	___fldiv@b,___fldiv@rem
  9144   002550  C01D  F029         	movff	___fldiv@b+1,___fldiv@rem+1
  9145   002554  C01E  F02A         	movff	___fldiv@b+2,___fldiv@rem+2
  9146   002558  C01F  F02B         	movff	___fldiv@b+3,___fldiv@rem+3
  9147   00255C  0E00               	movlw	0
  9148   00255E  6E1C               	movwf	___fldiv@b^0,c
  9149   002560  0E00               	movlw	0
  9150   002562  6E1D               	movwf	(___fldiv@b+1)^0,c
  9151   002564  0E00               	movlw	0
  9152   002566  6E1E               	movwf	(___fldiv@b+2)^0,c
  9153   002568  0E00               	movlw	0
  9154   00256A  6E1F               	movwf	(___fldiv@b+3)^0,c
  9155   00256C  0E00               	movlw	0
  9156   00256E  6E2F               	movwf	___fldiv@grs^0,c
  9157   002570  0E00               	movlw	0
  9158   002572  6E30               	movwf	(___fldiv@grs+1)^0,c
  9159   002574  0E00               	movlw	0
  9160   002576  6E31               	movwf	(___fldiv@grs+2)^0,c
  9161   002578  0E00               	movlw	0
  9162   00257A  6E32               	movwf	(___fldiv@grs+3)^0,c
  9163   00257C  0E00               	movlw	0
  9164   00257E  6E34               	movwf	___fldiv@aexp^0,c
  9165   002580  EFFA  F012         	goto	l931
  9166   002584                     l3840:
  9167   002584  5034               	movf	___fldiv@aexp^0,w,c
  9168   002586  B4D8               	btfsc	status,2,c
  9169   002588  EFC8  F012         	goto	u4201
  9170   00258C  EFCA  F012         	goto	u4200
  9171   002590                     u4201:
  9172   002590  EFE1  F012         	goto	l3848
  9173   002594                     u4200:
  9174   002594  90D8               	bcf	status,0,c
  9175   002596  3628               	rlcf	___fldiv@rem^0,f,c
  9176   002598  3629               	rlcf	(___fldiv@rem+1)^0,f,c
  9177   00259A  362A               	rlcf	(___fldiv@rem+2)^0,f,c
  9178   00259C  362B               	rlcf	(___fldiv@rem+3)^0,f,c
  9179   00259E  90D8               	bcf	status,0,c
  9180   0025A0  361C               	rlcf	___fldiv@b^0,f,c
  9181   0025A2  361D               	rlcf	(___fldiv@b+1)^0,f,c
  9182   0025A4  361E               	rlcf	(___fldiv@b+2)^0,f,c
  9183   0025A6  361F               	rlcf	(___fldiv@b+3)^0,f,c
  9184   0025A8  AE32               	btfss	(___fldiv@grs+3)^0,7,c
  9185   0025AA  EFD9  F012         	goto	u4211
  9186   0025AE  EFDB  F012         	goto	u4210
  9187   0025B2                     u4211:
  9188   0025B2  EFDC  F012         	goto	l934
  9189   0025B6                     u4210:
  9190   0025B6  801C               	bsf	___fldiv@b^0,0,c
  9191   0025B8                     l934:
  9192   0025B8  90D8               	bcf	status,0,c
  9193   0025BA  362F               	rlcf	___fldiv@grs^0,f,c
  9194   0025BC  3630               	rlcf	(___fldiv@grs+1)^0,f,c
  9195   0025BE  3631               	rlcf	(___fldiv@grs+2)^0,f,c
  9196   0025C0  3632               	rlcf	(___fldiv@grs+3)^0,f,c
  9197   0025C2                     l3848:
  9198   0025C2  5020               	movf	___fldiv@a^0,w,c
  9199   0025C4  5C28               	subwf	___fldiv@rem^0,w,c
  9200   0025C6  5021               	movf	(___fldiv@a+1)^0,w,c
  9201   0025C8  5829               	subwfb	(___fldiv@rem+1)^0,w,c
  9202   0025CA  5022               	movf	(___fldiv@a+2)^0,w,c
  9203   0025CC  582A               	subwfb	(___fldiv@rem+2)^0,w,c
  9204   0025CE  5023               	movf	(___fldiv@a+3)^0,w,c
  9205   0025D0  582B               	subwfb	(___fldiv@rem+3)^0,w,c
  9206   0025D2  A0D8               	btfss	status,0,c
  9207   0025D4  EFEE  F012         	goto	u4221
  9208   0025D8  EFF0  F012         	goto	u4220
  9209   0025DC                     u4221:
  9210   0025DC  EFF9  F012         	goto	l3854
  9211   0025E0                     u4220:
  9212   0025E0  8C32               	bsf	(___fldiv@grs+3)^0,6,c
  9213   0025E2  5020               	movf	___fldiv@a^0,w,c
  9214   0025E4  5E28               	subwf	___fldiv@rem^0,f,c
  9215   0025E6  5021               	movf	(___fldiv@a+1)^0,w,c
  9216   0025E8  5A29               	subwfb	(___fldiv@rem+1)^0,f,c
  9217   0025EA  5022               	movf	(___fldiv@a+2)^0,w,c
  9218   0025EC  5A2A               	subwfb	(___fldiv@rem+2)^0,f,c
  9219   0025EE  5023               	movf	(___fldiv@a+3)^0,w,c
  9220   0025F0  5A2B               	subwfb	(___fldiv@rem+3)^0,f,c
  9221   0025F2                     l3854:
  9222   0025F2  2A34               	incf	___fldiv@aexp^0,f,c
  9223   0025F4                     l931:
  9224   0025F4  0E19               	movlw	25
  9225   0025F6  6434               	cpfsgt	___fldiv@aexp^0,c
  9226   0025F8  EF00  F013         	goto	u4231
  9227   0025FC  EF02  F013         	goto	u4230
  9228   002600                     u4231:
  9229   002600  EFC2  F012         	goto	l3840
  9230   002604                     u4230:
  9231   002604  5028               	movf	___fldiv@rem^0,w,c
  9232   002606  1029               	iorwf	(___fldiv@rem+1)^0,w,c
  9233   002608  102A               	iorwf	(___fldiv@rem+2)^0,w,c
  9234   00260A  102B               	iorwf	(___fldiv@rem+3)^0,w,c
  9235   00260C  B4D8               	btfsc	status,2,c
  9236   00260E  EF0B  F013         	goto	u4241
  9237   002612  EF0D  F013         	goto	u4240
  9238   002616                     u4241:
  9239   002616  EF25  F013         	goto	l3866
  9240   00261A                     u4240:
  9241   00261A  802F               	bsf	___fldiv@grs^0,0,c
  9242   00261C  EF25  F013         	goto	l3866
  9243   002620                     l3860:
  9244   002620  90D8               	bcf	status,0,c
  9245   002622  361C               	rlcf	___fldiv@b^0,f,c
  9246   002624  361D               	rlcf	(___fldiv@b+1)^0,f,c
  9247   002626  361E               	rlcf	(___fldiv@b+2)^0,f,c
  9248   002628  361F               	rlcf	(___fldiv@b+3)^0,f,c
  9249   00262A  AE32               	btfss	(___fldiv@grs+3)^0,7,c
  9250   00262C  EF1A  F013         	goto	u4251
  9251   002630  EF1C  F013         	goto	u4250
  9252   002634                     u4251:
  9253   002634  EF1D  F013         	goto	l940
  9254   002638                     u4250:
  9255   002638  801C               	bsf	___fldiv@b^0,0,c
  9256   00263A                     l940:
  9257   00263A  90D8               	bcf	status,0,c
  9258   00263C  362F               	rlcf	___fldiv@grs^0,f,c
  9259   00263E  3630               	rlcf	(___fldiv@grs+1)^0,f,c
  9260   002640  3631               	rlcf	(___fldiv@grs+2)^0,f,c
  9261   002642  3632               	rlcf	(___fldiv@grs+3)^0,f,c
  9262   002644  062D               	decf	___fldiv@new_exp^0,f,c
  9263   002646  A0D8               	btfss	status,0,c
  9264   002648  062E               	decf	(___fldiv@new_exp+1)^0,f,c
  9265   00264A                     l3866:
  9266   00264A  AE1E               	btfss	(___fldiv@b+2)^0,7,c
  9267   00264C  EF2A  F013         	goto	u4261
  9268   002650  EF2C  F013         	goto	u4260
  9269   002654                     u4261:
  9270   002654  EF10  F013         	goto	l3860
  9271   002658                     u4260:
  9272   002658  0E00               	movlw	0
  9273   00265A  6E34               	movwf	___fldiv@aexp^0,c
  9274   00265C  AE32               	btfss	(___fldiv@grs+3)^0,7,c
  9275   00265E  EF33  F013         	goto	u4271
  9276   002662  EF35  F013         	goto	u4270
  9277   002666                     u4271:
  9278   002666  EF59  F013         	goto	l942
  9279   00266A                     u4270:
  9280   00266A  0EFF               	movlw	255
  9281   00266C  142F               	andwf	___fldiv@grs^0,w,c
  9282   00266E  6E24               	movwf	??___fldiv^0,c
  9283   002670  0EFF               	movlw	255
  9284   002672  1430               	andwf	(___fldiv@grs+1)^0,w,c
  9285   002674  6E25               	movwf	(??___fldiv+1)^0,c
  9286   002676  0EFF               	movlw	255
  9287   002678  1431               	andwf	(___fldiv@grs+2)^0,w,c
  9288   00267A  6E26               	movwf	(??___fldiv+2)^0,c
  9289   00267C  0E7F               	movlw	127
  9290   00267E  1432               	andwf	(___fldiv@grs+3)^0,w,c
  9291   002680  6E27               	movwf	(??___fldiv+3)^0,c
  9292   002682  5024               	movf	??___fldiv^0,w,c
  9293   002684  1025               	iorwf	(??___fldiv+1)^0,w,c
  9294   002686  1026               	iorwf	(??___fldiv+2)^0,w,c
  9295   002688  1027               	iorwf	(??___fldiv+3)^0,w,c
  9296   00268A  B4D8               	btfsc	status,2,c
  9297   00268C  EF4A  F013         	goto	u4281
  9298   002690  EF4C  F013         	goto	u4280
  9299   002694                     u4281:
  9300   002694  EF50  F013         	goto	l943
  9301   002698                     u4280:
  9302   002698                     l3874:
  9303   002698  0E01               	movlw	1
  9304   00269A  6E34               	movwf	___fldiv@aexp^0,c
  9305   00269C  EF59  F013         	goto	l942
  9306   0026A0                     l943:
  9307   0026A0  A01C               	btfss	___fldiv@b^0,0,c
  9308   0026A2  EF55  F013         	goto	u4291
  9309   0026A6  EF57  F013         	goto	u4290
  9310   0026AA                     u4291:
  9311   0026AA  EF59  F013         	goto	l942
  9312   0026AE                     u4290:
  9313   0026AE  EF4C  F013         	goto	l3874
  9314   0026B2                     l942:
  9315   0026B2  5034               	movf	___fldiv@aexp^0,w,c
  9316   0026B4  B4D8               	btfsc	status,2,c
  9317   0026B6  EF5F  F013         	goto	u4301
  9318   0026BA  EF61  F013         	goto	u4300
  9319   0026BE                     u4301:
  9320   0026BE  EF85  F013         	goto	l3886
  9321   0026C2                     u4300:
  9322   0026C2  0E01               	movlw	1
  9323   0026C4  261C               	addwf	___fldiv@b^0,f,c
  9324   0026C6  0E00               	movlw	0
  9325   0026C8  221D               	addwfc	(___fldiv@b+1)^0,f,c
  9326   0026CA  221E               	addwfc	(___fldiv@b+2)^0,f,c
  9327   0026CC  221F               	addwfc	(___fldiv@b+3)^0,f,c
  9328   0026CE  A01F               	btfss	(___fldiv@b+3)^0,0,c
  9329   0026D0  EF6C  F013         	goto	u4311
  9330   0026D4  EF6E  F013         	goto	u4310
  9331   0026D8                     u4311:
  9332   0026D8  EF85  F013         	goto	l3886
  9333   0026DC                     u4310:
  9334   0026DC  C01C  F024         	movff	___fldiv@b,??___fldiv
  9335   0026E0  C01D  F025         	movff	___fldiv@b+1,??___fldiv+1
  9336   0026E4  C01E  F026         	movff	___fldiv@b+2,??___fldiv+2
  9337   0026E8  C01F  F027         	movff	___fldiv@b+3,??___fldiv+3
  9338   0026EC  3427               	rlcf	(??___fldiv+3)^0,w,c
  9339   0026EE  3227               	rrcf	(??___fldiv+3)^0,f,c
  9340   0026F0  3226               	rrcf	(??___fldiv+2)^0,f,c
  9341   0026F2  3225               	rrcf	(??___fldiv+1)^0,f,c
  9342   0026F4  3224               	rrcf	??___fldiv^0,f,c
  9343   0026F6  C024  F01C         	movff	??___fldiv,___fldiv@b
  9344   0026FA  C025  F01D         	movff	??___fldiv+1,___fldiv@b+1
  9345   0026FE  C026  F01E         	movff	??___fldiv+2,___fldiv@b+2
  9346   002702  C027  F01F         	movff	??___fldiv+3,___fldiv@b+3
  9347   002706  4A2D               	infsnz	___fldiv@new_exp^0,f,c
  9348   002708  2A2E               	incf	(___fldiv@new_exp+1)^0,f,c
  9349   00270A                     l3886:
  9350   00270A  BE2E               	btfsc	(___fldiv@new_exp+1)^0,7,c
  9351   00270C  EF90  F013         	goto	u4321
  9352   002710  502E               	movf	(___fldiv@new_exp+1)^0,w,c
  9353   002712  E108               	bnz	u4320
  9354   002714  282D               	incf	___fldiv@new_exp^0,w,c
  9355   002716  A0D8               	btfss	status,0,c
  9356   002718  EF90  F013         	goto	u4321
  9357   00271C  EF92  F013         	goto	u4320
  9358   002720                     u4321:
  9359   002720  EF9D  F013         	goto	l3890
  9360   002724                     u4320:
  9361   002724  0E00               	movlw	0
  9362   002726  6E2E               	movwf	(___fldiv@new_exp+1)^0,c
  9363   002728  682D               	setf	___fldiv@new_exp^0,c
  9364   00272A  0E00               	movlw	0
  9365   00272C  6E1C               	movwf	___fldiv@b^0,c
  9366   00272E  0E00               	movlw	0
  9367   002730  6E1D               	movwf	(___fldiv@b+1)^0,c
  9368   002732  0E00               	movlw	0
  9369   002734  6E1E               	movwf	(___fldiv@b+2)^0,c
  9370   002736  0E00               	movlw	0
  9371   002738  6E1F               	movwf	(___fldiv@b+3)^0,c
  9372   00273A                     l3890:
  9373   00273A  BE2E               	btfsc	(___fldiv@new_exp+1)^0,7,c
  9374   00273C  EFAA  F013         	goto	u4330
  9375   002740  502E               	movf	(___fldiv@new_exp+1)^0,w,c
  9376   002742  E106               	bnz	u4331
  9377   002744  042D               	decf	___fldiv@new_exp^0,w,c
  9378   002746  B0D8               	btfsc	status,0,c
  9379   002748  EFA8  F013         	goto	u4331
  9380   00274C  EFAA  F013         	goto	u4330
  9381   002750                     u4331:
  9382   002750  EFB8  F013         	goto	l3894
  9383   002754                     u4330:
  9384   002754  0E00               	movlw	0
  9385   002756  6E2E               	movwf	(___fldiv@new_exp+1)^0,c
  9386   002758  0E00               	movlw	0
  9387   00275A  6E2D               	movwf	___fldiv@new_exp^0,c
  9388   00275C  0E00               	movlw	0
  9389   00275E  6E1C               	movwf	___fldiv@b^0,c
  9390   002760  0E00               	movlw	0
  9391   002762  6E1D               	movwf	(___fldiv@b+1)^0,c
  9392   002764  0E00               	movlw	0
  9393   002766  6E1E               	movwf	(___fldiv@b+2)^0,c
  9394   002768  0E00               	movlw	0
  9395   00276A  6E1F               	movwf	(___fldiv@b+3)^0,c
  9396   00276C  0E00               	movlw	0
  9397   00276E  6E2C               	movwf	___fldiv@sign^0,c
  9398   002770                     l3894:
  9399   002770  C02D  F033         	movff	___fldiv@new_exp,___fldiv@bexp
  9400   002774  A033               	btfss	___fldiv@bexp^0,0,c
  9401   002776  EFBF  F013         	goto	u4341
  9402   00277A  EFC1  F013         	goto	u4340
  9403   00277E                     u4341:
  9404   00277E  EFC4  F013         	goto	l3900
  9405   002782                     u4340:
  9406   002782  8E1E               	bsf	(___fldiv@b+2)^0,7,c
  9407   002784  EFC5  F013         	goto	l3902
  9408   002788                     l3900:
  9409   002788  9E1E               	bcf	(___fldiv@b+2)^0,7,c
  9410   00278A                     l3902:
  9411   00278A  90D8               	bcf	status,0,c
  9412   00278C  3033               	rrcf	___fldiv@bexp^0,w,c
  9413   00278E  6E1F               	movwf	(___fldiv@b+3)^0,c
  9414   002790  EF7B  F012         	goto	l3816
  9415   002794                     l929:
  9416   002794  0012               	return		;funcret
  9417   002796                     __end_of___fldiv:
  9418                           	callstack 0
  9419                           
  9420 ;; *************** function _ADC_init *****************
  9421 ;; Defined at:
  9422 ;;		line 9 in file "ADC.c"
  9423 ;; Parameters:    Size  Location     Type
  9424 ;;		None
  9425 ;; Auto vars:     Size  Location     Type
  9426 ;;		None
  9427 ;; Return value:  Size  Location     Type
  9428 ;;                  1    wreg      void 
  9429 ;; Registers used:
  9430 ;;		wreg, status,2
  9431 ;; Tracked objects:
  9432 ;;		On entry : 0/0
  9433 ;;		On exit  : 0/0
  9434 ;;		Unchanged: 0/0
  9435 ;; Data sizes:     COMRAM   BANK0   BANK1   BANK2   BANK3   BANK4   BANK5   BANK6   BANK7   BANK8   BANK9  BANK10  BANK1
      +1  BANK12  BANK13
  9436 ;;      Params:         0       0       0       0       0       0       0       0       0       0       0       0       
      +0       0       0
  9437 ;;      Locals:         0       0       0       0       0       0       0       0       0       0       0       0       
      +0       0       0
  9438 ;;      Temps:          0       0       0       0       0       0       0       0       0       0       0       0       
      +0       0       0
  9439 ;;      Totals:         0       0       0       0       0       0       0       0       0       0       0       0       
      +0       0       0
  9440 ;;Total ram usage:        0 bytes
  9441 ;; Hardware stack levels used: 1
  9442 ;; Hardware stack levels required when called: 2
  9443 ;; This function calls:
  9444 ;;		Nothing
  9445 ;; This function is called by:
  9446 ;;		_main
  9447 ;; This function uses a non-reentrant model
  9448 ;;
  9449                           
  9450                           	psect	text49
  9451   004126                     __ptext49:
  9452                           	callstack 0
  9453   004126                     _ADC_init:
  9454                           	callstack 28
  9455   004126                     
  9456                           ;ADC.c: 11:     TRISAbits.TRISA3=1;
  9457   004126  8681               	bsf	129,3,c	;volatile
  9458                           
  9459                           ;ADC.c: 12:     ANSELAbits.ANSELA3=1;
  9460   004128  010E               	movlb	14	; () banked
  9461   00412A  8792               	bsf	146,3,b	;volatile
  9462                           
  9463                           ;ADC.c: 15:     ADREFbits.ADNREF = 0;
  9464   00412C  010F               	movlb	15	; () banked
  9465   00412E  9958               	bcf	88,4,b	;volatile
  9466   004130                     
  9467                           ; BSR set to: 15
  9468                           ;ADC.c: 16:     ADREFbits.ADPREF = 0b00;
  9469   004130  0EFC               	movlw	-4
  9470   004132  1758               	andwf	88,f,b	;volatile
  9471                           
  9472                           ;ADC.c: 17:     ADPCH=0b11;
  9473   004134  0E03               	movlw	3
  9474   004136  6F5F               	movwf	95,b	;volatile
  9475   004138                     
  9476                           ; BSR set to: 15
  9477                           ;ADC.c: 18:     ADCON0bits.ADFM = 0;
  9478   004138  9460               	bcf	96,2,c	;volatile
  9479   00413A                     
  9480                           ; BSR set to: 15
  9481                           ;ADC.c: 19:     ADCON0bits.ADCS = 1;
  9482   00413A  8860               	bsf	96,4,c	;volatile
  9483   00413C                     
  9484                           ; BSR set to: 15
  9485                           ;ADC.c: 20:     ADCON0bits.ADON = 1;
  9486   00413C  8E60               	bsf	96,7,c	;volatile
  9487   00413E                     
  9488                           ; BSR set to: 15
  9489   00413E  0012               	return		;funcret
  9490   004140                     __end_of_ADC_init:
  9491                           	callstack 0
  9492                           
  9493 ;; *************** function _LowISR *****************
  9494 ;; Defined at:
  9495 ;;		line 53 in file "interrupts.c"
  9496 ;; Parameters:    Size  Location     Type
  9497 ;;		None
  9498 ;; Auto vars:     Size  Location     Type
  9499 ;;		None
  9500 ;; Return value:  Size  Location     Type
  9501 ;;                  1    wreg      void 
  9502 ;; Registers used:
  9503 ;;		wreg, status,2
  9504 ;; Tracked objects:
  9505 ;;		On entry : 0/0
  9506 ;;		On exit  : 0/0
  9507 ;;		Unchanged: 0/0
  9508 ;; Data sizes:     COMRAM   BANK0   BANK1   BANK2   BANK3   BANK4   BANK5   BANK6   BANK7   BANK8   BANK9  BANK10  BANK1
      +1  BANK12  BANK13
  9509 ;;      Params:         0       0       0       0       0       0       0       0       0       0       0       0       
      +0       0       0
  9510 ;;      Locals:         0       0       0       0       0       0       0       0       0       0       0       0       
      +0       0       0
  9511 ;;      Temps:          3       0       0       0       0       0       0       0       0       0       0       0       
      +0       0       0
  9512 ;;      Totals:         3       0       0       0       0       0       0       0       0       0       0       0       
      +0       0       0
  9513 ;;Total ram usage:        3 bytes
  9514 ;; Hardware stack levels used: 1
  9515 ;; Hardware stack levels required when called: 1
  9516 ;; This function calls:
  9517 ;;		Nothing
  9518 ;; This function is called by:
  9519 ;;		Interrupt level 1
  9520 ;; This function uses a non-reentrant model
  9521 ;;
  9522                           
  9523                           	psect	intcodelo
  9524   000018                     __pintcodelo:
  9525                           	callstack 0
  9526   000018                     _LowISR:
  9527                           	callstack 20
  9528                           
  9529                           ; BSR set to: 15
  9530                           ;incstack = 0
  9531   000018  805C               	bsf	int$flags,0,c	;set compiler interrupt flag (level 1)
  9532   00001A  CFD8 F001          	movff	status,??_LowISR
  9533   00001E  CFE8 F002          	movff	wreg,??_LowISR+1
  9534   000022  CFE0 F003          	movff	bsr,??_LowISR+2
  9535   000026                     
  9536                           ;interrupts.c: 56:     if(PIR0bits.TMR0IF){
  9537   000026  010E               	movlb	14	; () banked
  9538   000028  AB33               	btfss	51,5,b	;volatile
  9539   00002A  EF19  F000         	goto	i1u233_21
  9540   00002E  EF1B  F000         	goto	i1u233_20
  9541   000032                     i1u233_21:
  9542   000032  EF21  F000         	goto	i1l298
  9543   000036                     i1u233_20:
  9544   000036                     
  9545                           ; BSR set to: 14
  9546                           ;interrupts.c: 57:         TMR0H=0b00001011;
  9547   000036  0E0B               	movlw	11
  9548   000038  6ED4               	movwf	212,c	;volatile
  9549                           
  9550                           ;interrupts.c: 58:         TMR0L=0b11011011;
  9551   00003A  0EDB               	movlw	219
  9552   00003C  6ED3               	movwf	211,c	;volatile
  9553   00003E                     
  9554                           ; BSR set to: 14
  9555                           ;interrupts.c: 60:         LATDbits.LATD4 = 1;
  9556   00003E  887C               	bsf	124,4,c	;volatile
  9557   000040                     
  9558                           ; BSR set to: 14
  9559                           ;interrupts.c: 61:         PIR0bits.TMR0IF=0;
  9560   000040  9B33               	bcf	51,5,b	;volatile
  9561   000042                     i1l298:
  9562                           
  9563                           ; BSR set to: 14
  9564   000042  C003  FFE0         	movff	??_LowISR+2,bsr
  9565   000046  C002  FFE8         	movff	??_LowISR+1,wreg
  9566   00004A  C001  FFD8         	movff	??_LowISR,status
  9567   00004E  905C               	bcf	int$flags,0,c	;clear compiler interrupt flag (level 1)
  9568   000050  0010               	retfie	
  9569   000052                     __end_of_LowISR:
  9570                           	callstack 0
  9571                           
  9572 ;; *************** function _HighISR *****************
  9573 ;; Defined at:
  9574 ;;		line 37 in file "interrupts.c"
  9575 ;; Parameters:    Size  Location     Type
  9576 ;;		None
  9577 ;; Auto vars:     Size  Location     Type
  9578 ;;		None
  9579 ;; Return value:  Size  Location     Type
  9580 ;;                  1    wreg      void 
  9581 ;; Registers used:
  9582 ;;		None
  9583 ;; Tracked objects:
  9584 ;;		On entry : 0/0
  9585 ;;		On exit  : 0/0
  9586 ;;		Unchanged: 0/0
  9587 ;; Data sizes:     COMRAM   BANK0   BANK1   BANK2   BANK3   BANK4   BANK5   BANK6   BANK7   BANK8   BANK9  BANK10  BANK1
      +1  BANK12  BANK13
  9588 ;;      Params:         0       0       0       0       0       0       0       0       0       0       0       0       
      +0       0       0
  9589 ;;      Locals:         0       0       0       0       0       0       0       0       0       0       0       0       
      +0       0       0
  9590 ;;      Temps:          0       0       0       0       0       0       0       0       0       0       0       0       
      +0       0       0
  9591 ;;      Totals:         0       0       0       0       0       0       0       0       0       0       0       0       
      +0       0       0
  9592 ;;Total ram usage:        0 bytes
  9593 ;; Hardware stack levels used: 1
  9594 ;; This function calls:
  9595 ;;		Nothing
  9596 ;; This function is called by:
  9597 ;;		Interrupt level 2
  9598 ;; This function uses a non-reentrant model
  9599 ;;
  9600                           
  9601                           	psect	intcode
  9602   000008                     __pintcode:
  9603                           	callstack 0
  9604   000008                     _HighISR:
  9605                           	callstack 20
  9606                           
  9607                           ; BSR set to: 14
  9608                           ;incstack = 0
  9609   000008  825C               	bsf	int$flags,1,c	;set compiler interrupt flag (level 2)
  9610   00000A  EFA0  F020         	goto	int_func
  9611                           
  9612                           	psect	intcode_body
  9613   004140                     __pintcode_body:
  9614                           	callstack 20
  9615   004140                     int_func:
  9616                           	callstack 20
  9617   004140                     
  9618                           ;interrupts.c: 40:     if(PIR2bits.C1IF){
  9619   004140  010E               	movlb	14	; () banked
  9620   004142  A135               	btfss	53,0,b	;volatile
  9621   004144  EFA6  F020         	goto	i2u232_41
  9622   004148  EFA8  F020         	goto	i2u232_40
  9623   00414C                     i2u232_41:
  9624   00414C  EFAA  F020         	goto	i2l292
  9625   004150                     i2u232_40:
  9626   004150                     
  9627                           ; BSR set to: 14
  9628                           ;interrupts.c: 41:         LATDbits.LATD7 = 1;
  9629   004150  8E7C               	bsf	124,7,c	;volatile
  9630                           
  9631                           ;interrupts.c: 42:         PIR2bits.C1IF=0;
  9632   004152  9135               	bcf	53,0,b	;volatile
  9633   004154                     i2l292:
  9634                           
  9635                           ; BSR set to: 14
  9636   004154  925C               	bcf	int$flags,1,c	;clear compiler interrupt flag (level 2)
  9637   004156  0011               	retfie		f
  9638   004158                     __end_of_HighISR:
  9639                           	callstack 0
  9640                           
  9641                           	psect	rparam
  9642   000000                     
  9643                           	psect	temp
  9644   00005C                     btemp:
  9645                           	callstack 0
  9646   00005C                     	ds	1
  9647   000000                     int$flags	set	btemp
  9648   000000                     wtemp8	set	btemp+1
  9649   000000                     ttemp5	set	btemp+1
  9650   000000                     ttemp6	set	btemp+4
  9651   000000                     ttemp7	set	btemp+8
  9652                           
  9653                           	psect	config
  9654                           
  9655                           ;Config register CONFIG1L @ 0x300000
  9656                           ;	External Oscillator mode Selection bits
  9657                           ;	FEXTOSC = HS, HS (crystal oscillator) above 8 MHz; PFM set to high power
  9658                           ;	Power-up default value for COSC bits
  9659                           ;	RSTOSC = EXTOSC_4PLL, EXTOSC with 4x PLL, with EXTOSC operating per FEXTOSC bits
  9660   300000                     	org	3145728
  9661   300000  AA                 	db	170
  9662                           
  9663                           ;Config register CONFIG1H @ 0x300001
  9664                           ;	unspecified, using default values
  9665                           ;	Clock Out Enable bit
  9666                           ;	CLKOUTEN = 0x1, unprogrammed default
  9667                           ;	Clock Switch Enable bit
  9668                           ;	CSWEN = 0x1, unprogrammed default
  9669                           ;	Fail-Safe Clock Monitor Enable bit
  9670                           ;	FCMEN = 0x1, unprogrammed default
  9671   300001                     	org	3145729
  9672   300001  FF                 	db	255
  9673                           
  9674                           ;Config register CONFIG3L @ 0x300004
  9675                           ;	WDT Period Select bits
  9676                           ;	WDTCPS = 0x1F, unprogrammed default
  9677                           ;	WDT operating mode
  9678                           ;	WDTE = OFF, WDT Disabled
  9679   300004                     	org	3145732
  9680   300004  9F                 	db	159
  9681                           
  9682                           ;Config register CONFIG3H @ 0x300005
  9683                           ;	unspecified, using default values
  9684                           ;	WDT Window Select bits
  9685                           ;	WDTCWS = 0x7, unprogrammed default
  9686                           ;	WDT input clock selector
  9687                           ;	WDTCCS = 0x7, unprogrammed default
  9688   300005                     	org	3145733
  9689   300005  FF                 	db	255
  9690                           tosu	equ	0xFFF
  9691                           tosh	equ	0xFFE
  9692                           tosl	equ	0xFFD
  9693                           stkptr	equ	0xFFC
  9694                           pclatu	equ	0xFFB
  9695                           pclath	equ	0xFFA
  9696                           pcl	equ	0xFF9
  9697                           tblptru	equ	0xFF8
  9698                           tblptrh	equ	0xFF7
  9699                           tblptrl	equ	0xFF6
  9700                           tablat	equ	0xFF5
  9701                           prodh	equ	0xFF4
  9702                           prodl	equ	0xFF3
  9703                           indf0	equ	0xFEF
  9704                           postinc0	equ	0xFEE
  9705                           postdec0	equ	0xFED
  9706                           preinc0	equ	0xFEC
  9707                           plusw0	equ	0xFEB
  9708                           fsr0h	equ	0xFEA
  9709                           fsr0l	equ	0xFE9
  9710                           wreg	equ	0xFE8
  9711                           indf1	equ	0xFE7
  9712                           postinc1	equ	0xFE6
  9713                           postdec1	equ	0xFE5
  9714                           preinc1	equ	0xFE4
  9715                           plusw1	equ	0xFE3
  9716                           fsr1h	equ	0xFE2
  9717                           fsr1l	equ	0xFE1
  9718                           bsr	equ	0xFE0
  9719                           indf2	equ	0xFDF
  9720                           postinc2	equ	0xFDE
  9721                           postdec2	equ	0xFDD
  9722                           preinc2	equ	0xFDC
  9723                           plusw2	equ	0xFDB
  9724                           fsr2h	equ	0xFDA
  9725                           fsr2l	equ	0xFD9
  9726                           status	equ	0xFD8

Data Sizes:
    Strings     25
    Constant    64
    Data        16
    BSS         77
    Persistent  0
    Stack       0

Auto Spaces:
    Space          Size  Autos    Used
    COMRAM           94     88      91
    BANK0           160    124     158
    BANK1           256      0      56
    BANK2           256      0       0
    BANK3           256      0       0
    BANK4           256      0       0
    BANK5           256      0       0
    BANK6           256      0       0
    BANK7           256      0       0
    BANK8           256      0       0
    BANK9           256      0       0
    BANK10          256      0       0
    BANK11          256      0       0
    BANK12          256      0       0
    BANK13          234      0       0

Pointer List with Targets:

    dtoa@fp	PTR struct _IO_FILE size(1) Largest target is 12
		 -> sprintf@f(COMRAM[12]), 

    f$.$buffer	PTR unsigned char  size(2) Largest target is 0

    f$.$source	PTR const unsigned char  size(2) Largest target is 0

    fputc@fp	PTR struct _IO_FILE size(1) Largest target is 12
		 -> sprintf@f(COMRAM[12]), 

    fputc@fp$.$buffer	PTR unsigned char  size(2) Largest target is 0

    fputc@fp$.$source	PTR const unsigned char  size(2) Largest target is 0

    fputs@fp	PTR struct _IO_FILE size(1) Largest target is 12
		 -> sprintf@f(COMRAM[12]), 

    fputs@s	PTR const unsigned char  size(2) Largest target is 32
		 -> dbuf(BANK1[32]), 

    LCD_sendstring@string	PTR unsigned char  size(2) Largest target is 10
		 -> timeString(BANK1[10]), 

    pad@buf	PTR unsigned char  size(2) Largest target is 32
		 -> dbuf(BANK1[32]), 

    pad@fp	PTR struct _IO_FILE size(1) Largest target is 12
		 -> sprintf@f(COMRAM[12]), 

    read_prec_or_width@ap	PTR PTR void [1] size(1) Largest target is 1
		 -> sprintf@ap(COMRAM[1]), 

    read_prec_or_width@fmt	PTR PTR const unsigned char  size(1) Largest target is 1
		 -> vfprintf@cfmt(COMRAM[1]), 

    __rem_pio2f@y	PTR  size(1) Largest target is 4
		 -> sinf@y(BANK0[4]), 

    S1989$buffer	PTR unsigned char  size(2) Largest target is 0

    S1989$source	PTR const unsigned char  size(2) Largest target is 0

    sprintf@ap	PTR void [1] size(1) Largest target is 2
		 -> ?_sprintf(COMRAM[2]), 

    sprintf@fmt	PTR const unsigned char  size(1) Largest target is 25
		 -> STR_1(CODE[25]), 

    sprintf@s	PTR unsigned char  size(2) Largest target is 10
		 -> timeString(BANK1[10]), 

    vfpfcnvrt@ap	PTR PTR void  size(1) Largest target is 1
		 -> sprintf@ap(COMRAM[1]), 

    vfpfcnvrt@cp	PTR unsigned char  size(1) Largest target is 25
		 -> STR_1(CODE[25]), 

    vfpfcnvrt@fmt	PTR PTR unsigned char  size(1) Largest target is 1
		 -> vfprintf@cfmt(COMRAM[1]), 

    vfpfcnvrt@fp	PTR struct _IO_FILE size(1) Largest target is 12
		 -> sprintf@f(COMRAM[12]), 

    vfprintf@ap	PTR PTR void  size(1) Largest target is 1
		 -> sprintf@ap(COMRAM[1]), 

    vfprintf@cfmt	PTR unsigned char  size(1) Largest target is 25
		 -> STR_1(CODE[25]), 

    vfprintf@fmt	PTR const unsigned char  size(1) Largest target is 25
		 -> STR_1(CODE[25]), 

    vfprintf@fp	PTR struct _IO_FILE size(1) Largest target is 12
		 -> sprintf@f(COMRAM[12]), 


Critical Paths under _main in COMRAM

    _disp_time->_sprintf
    _sprintf->_vfprintf
    _vfprintf->_vfpfcnvrt
    _vfpfcnvrt->_dtoa
    _read_prec_or_width->___wmul
    _dtoa->_pad
    _pad->_fputs
    _fputs->_fputc
    _abs->___awmod
    _LCD_setline->_LCD_sendbyte
    _LCD_sendstring->_LCD_sendbyte
    _calc_time->___lwdiv
    _month_days->___lwmod
    _LED_activation->_LEDarray_control
    _LEDarray_control->___lwmod
    _LCD_Init->_LCD_sendbyte
    _LCD_sendbyte->_LCD_sendnibble
    _Callibrate->___flsub
    _sinf->___flneg
    ___sindf->___flmul
    ___rem_pio2f->___flneg
    ___rem_pio2f->___flsub
    ___xxtofl->___wmul
    ___fltol->___flsub
    ___flsub->___flmul
    ___flneg->___cosdf
    ___cosdf->___flmul
    ___flmul->___fladd
    ___fladd->___fldiv
    ___wmul->_get16bitTMR0val
    ___lwdiv->___wmul
    ___fldiv->___xxtofl

Critical Paths under _LowISR in COMRAM

    None.

Critical Paths under _HighISR in COMRAM

    None.

Critical Paths under _main in BANK0

    _main->_Callibrate
    _Callibrate->_sinf
    _sinf->___rem_pio2f
    ___sindf->___flmul
    ___fltol->___flmul
    ___flsub->___flmul
    ___flneg->___cosdf
    ___cosdf->___flmul

Critical Paths under _LowISR in BANK0

    None.

Critical Paths under _HighISR in BANK0

    None.

Critical Paths under _main in BANK1

    None.

Critical Paths under _LowISR in BANK1

    None.

Critical Paths under _HighISR in BANK1

    None.

Critical Paths under _main in BANK2

    None.

Critical Paths under _LowISR in BANK2

    None.

Critical Paths under _HighISR in BANK2

    None.

Critical Paths under _main in BANK3

    None.

Critical Paths under _LowISR in BANK3

    None.

Critical Paths under _HighISR in BANK3

    None.

Critical Paths under _main in BANK4

    None.

Critical Paths under _LowISR in BANK4

    None.

Critical Paths under _HighISR in BANK4

    None.

Critical Paths under _main in BANK5

    None.

Critical Paths under _LowISR in BANK5

    None.

Critical Paths under _HighISR in BANK5

    None.

Critical Paths under _main in BANK6

    None.

Critical Paths under _LowISR in BANK6

    None.

Critical Paths under _HighISR in BANK6

    None.

Critical Paths under _main in BANK7

    None.

Critical Paths under _LowISR in BANK7

    None.

Critical Paths under _HighISR in BANK7

    None.

Critical Paths under _main in BANK8

    None.

Critical Paths under _LowISR in BANK8

    None.

Critical Paths under _HighISR in BANK8

    None.

Critical Paths under _main in BANK9

    None.

Critical Paths under _LowISR in BANK9

    None.

Critical Paths under _HighISR in BANK9

    None.

Critical Paths under _main in BANK10

    None.

Critical Paths under _LowISR in BANK10

    None.

Critical Paths under _HighISR in BANK10

    None.

Critical Paths under _main in BANK11

    None.

Critical Paths under _LowISR in BANK11

    None.

Critical Paths under _HighISR in BANK11

    None.

Critical Paths under _main in BANK12

    None.

Critical Paths under _LowISR in BANK12

    None.

Critical Paths under _HighISR in BANK12

    None.

Critical Paths under _main in BANK13

    None.

Critical Paths under _LowISR in BANK13

    None.

Critical Paths under _HighISR in BANK13

    None.

Call Graph Tables:

 ---------------------------------------------------------------------------------
 (Depth) Function   	        Calls       Base Space   Used Autos Params    Refs
 ---------------------------------------------------------------------------------
 (0) _main                                                 5     5      0   91103
                                            123 BANK0      1     1      0
                           _ADC_init
                         _Callibrate
                         _Comp1_init
                    _Interrupts_init
                           _LCD_Init
                     _LED_activation
                      _LEDarray_init
                        _Timer0_init
                          _calc_time
                      _datetime_init
                          _disp_time
 ---------------------------------------------------------------------------------
 (1) _disp_time                                            0     0      0   10173
                     _LCD_sendstring
                        _LCD_setline
                            _sprintf
 ---------------------------------------------------------------------------------
 (2) _sprintf                                             28    15     13    8298
                                             51 COMRAM    26    13     13
                           _vfprintf
 ---------------------------------------------------------------------------------
 (3) _vfprintf                                             4     1      3    7806
                                             47 COMRAM     4     1      3
                          _vfpfcnvrt
 ---------------------------------------------------------------------------------
 (4) _vfpfcnvrt                                           12     9      3    7318
                                             36 COMRAM    11     8      3
                               _dtoa
                              _fputc
                 _read_prec_or_width
 ---------------------------------------------------------------------------------
 (5) _read_prec_or_width                                   5     3      2    1555
                                             13 COMRAM     5     3      2
                             ___wmul
 ---------------------------------------------------------------------------------
 (5) _dtoa                                                11     8      3    4210
                                             25 COMRAM    11     8      3
                            ___awdiv
                            ___awmod
                                _abs
                                _pad
 ---------------------------------------------------------------------------------
 (6) _pad                                                  8     3      5    2391
                                             17 COMRAM     8     3      5
                              _fputc
                              _fputs
 ---------------------------------------------------------------------------------
 (7) _fputs                                                6     3      3    1182
                                             11 COMRAM     6     3      3
                              _fputc
 ---------------------------------------------------------------------------------
 (5) _fputc                                                8     5      3     682
                                              3 COMRAM     8     5      3
                              _putch
 ---------------------------------------------------------------------------------
 (6) _putch                                                1     1      0       0
 ---------------------------------------------------------------------------------
 (6) _abs                                                  4     2      2     142
                                              9 COMRAM     4     2      2
                            ___awmod (ARG)
 ---------------------------------------------------------------------------------
 (6) ___awmod                                              6     2      4     448
                                              3 COMRAM     6     2      4
 ---------------------------------------------------------------------------------
 (6) ___awdiv                                              8     4      4     452
                                              3 COMRAM     8     4      4
 ---------------------------------------------------------------------------------
 (2) _LCD_setline                                          1     1      0     882
                                              6 COMRAM     1     1      0
                       _LCD_sendbyte
 ---------------------------------------------------------------------------------
 (2) _LCD_sendstring                                       2     0      2     993
                                              6 COMRAM     2     0      2
                       _LCD_sendbyte
 ---------------------------------------------------------------------------------
 (1) _datetime_init                                        0     0      0       0
 ---------------------------------------------------------------------------------
 (1) _calc_time                                            0     0      0    4012
                         _DST_adjust
                            ___lwdiv
                             ___wmul
                    _get16bitTMR0val
                         _month_days
 ---------------------------------------------------------------------------------
 (2) _month_days                                           8     4      4    1883
                                              8 COMRAM     8     4      4
                            ___lwmod
 ---------------------------------------------------------------------------------
 (2) _get16bitTMR0val                                      6     4      2      24
                                              3 COMRAM     4     2      2
 ---------------------------------------------------------------------------------
 (2) _DST_adjust                                           4     0      4     264
                                              3 COMRAM     4     0      4
 ---------------------------------------------------------------------------------
 (1) _Timer0_init                                          0     0      0       0
 ---------------------------------------------------------------------------------
 (1) _LEDarray_init                                        0     0      0       0
 ---------------------------------------------------------------------------------
 (1) _LED_activation                                       0     0      0    2699
                   _LEDarray_control
                  _LEDarray_disp_bin
 ---------------------------------------------------------------------------------
 (2) _LEDarray_control                                     4     2      2    2121
                                              8 COMRAM     4     2      2
                  _LEDarray_disp_bin
                            ___lwmod
 ---------------------------------------------------------------------------------
 (2) _LEDarray_disp_bin                                    2     0      2     578
                                              3 COMRAM     2     0      2
 ---------------------------------------------------------------------------------
 (1) _LCD_Init                                             2     2      0     926
                                              6 COMRAM     2     2      0
                       _LCD_sendbyte
                     _LCD_sendnibble
 ---------------------------------------------------------------------------------
 (3) _LCD_sendbyte                                         2     1      1     838
                                              4 COMRAM     2     1      1
                     _LCD_sendnibble
 ---------------------------------------------------------------------------------
 (4) _LCD_sendnibble                                       1     1      0      88
                                              3 COMRAM     1     1      0
                          _LCD_E_TOG
 ---------------------------------------------------------------------------------
 (5) _LCD_E_TOG                                            0     0      0       0
 ---------------------------------------------------------------------------------
 (1) _Interrupts_init                                      0     0      0       0
 ---------------------------------------------------------------------------------
 (1) _Comp1_init                                           0     0      0       0
                           _DAC_init
 ---------------------------------------------------------------------------------
 (2) _DAC_init                                             0     0      0       0
 ---------------------------------------------------------------------------------
 (1) _Callibrate                                          26    26      0   73293
                                             97 BANK0     26    26      0
                            ___fladd
                            ___fldiv
                            ___flmul
                            ___flsub
                            ___fltol
                            ___lwdiv
                            ___lwmod
                             ___wmul
                           ___xxtofl
                               _sinf
 ---------------------------------------------------------------------------------
 (2) _sinf                                                28    24      4   50010
                                             69 BANK0     28    24      4
                            ___cosdf
                            ___fladd
                            ___fldiv (ARG)
                            ___flneg
                        ___rem_pio2f
                            ___sindf
                             ___wmul (ARG)
 ---------------------------------------------------------------------------------
 (3) ___sindf                                             32    28      4   11357
                                             80 COMRAM     4     0      4
                                             13 BANK0     28    28      0
                            ___fladd
                            ___flmul
 ---------------------------------------------------------------------------------
 (3) ___rem_pio2f                                         32    27      5   20009
                                             37 BANK0     32    27      5
                            ___fladd
                            ___flmul
                            ___flneg
                            ___flsub
                            ___fltol
                           ___xxtofl
                              _fabsf
 ---------------------------------------------------------------------------------
 (4) _fabsf                                                8     4      4     199
                                              3 COMRAM     8     4      4
 ---------------------------------------------------------------------------------
 (4) ___xxtofl                                            14    10      4     626
                                             13 COMRAM    14    10      4
                             ___wmul (ARG)
 ---------------------------------------------------------------------------------
 (4) ___fltol                                             10     6      4     607
                                             13 BANK0     10     6      4
                            ___fladd (ARG)
                            ___fldiv (ARG)
                            ___flmul (ARG)
                            ___flsub (ARG)
                             ___wmul (ARG)
                           ___xxtofl (ARG)
 ---------------------------------------------------------------------------------
 (4) ___flsub                                              8     0      8    6081
                                             80 COMRAM     8     0      8
                            ___fladd
                            ___fldiv (ARG)
                            ___flmul (ARG)
                             ___wmul (ARG)
                           ___xxtofl (ARG)
 ---------------------------------------------------------------------------------
 (4) ___flneg                                              4     0      4     653
                                             84 COMRAM     4     0      4
                            ___cosdf (ARG)
                            ___fladd (ARG)
 ---------------------------------------------------------------------------------
 (3) ___cosdf                                             28    24      4   11442
                                             80 COMRAM     4     0      4
                                             13 BANK0     24    24      0
                            ___fladd
                            ___flmul
 ---------------------------------------------------------------------------------
 (4) ___flmul                                             25    17      8    5544
                                             68 COMRAM    12     4      8
                                              0 BANK0     13    13      0
                            ___fladd (ARG)
                            ___fldiv (ARG)
                             ___wmul (ARG)
                           ___xxtofl (ARG)
 ---------------------------------------------------------------------------------
 (4) ___fladd                                             16     8      8    5150
                                             52 COMRAM    16     8      8
                            ___fldiv (ARG)
                             ___wmul (ARG)
                           ___xxtofl (ARG)
 ---------------------------------------------------------------------------------
 (6) ___wmul                                               6     2      4    1223
                                              7 COMRAM     6     2      4
                    _get16bitTMR0val (ARG)
 ---------------------------------------------------------------------------------
 (3) ___lwmod                                              5     1      4    1375
                                              3 COMRAM     5     1      4
 ---------------------------------------------------------------------------------
 (2) ___lwdiv                                              7     3      4     618
                                             13 COMRAM     7     3      4
                             ___wmul (ARG)
                    _get16bitTMR0val (ARG)
 ---------------------------------------------------------------------------------
 (2) ___fldiv                                             25    17      8    1855
                                             27 COMRAM    25    17      8
                             ___wmul (ARG)
                           ___xxtofl (ARG)
 ---------------------------------------------------------------------------------
 (1) _ADC_init                                             0     0      0       0
 ---------------------------------------------------------------------------------
 Estimated maximum stack depth 7
 ---------------------------------------------------------------------------------
 (Depth) Function   	        Calls       Base Space   Used Autos Params    Refs
 ---------------------------------------------------------------------------------
 (10) _LowISR                                              3     3      0       0
                                              0 COMRAM     3     3      0
 ---------------------------------------------------------------------------------
 Estimated maximum stack depth 10
 ---------------------------------------------------------------------------------
 (Depth) Function   	        Calls       Base Space   Used Autos Params    Refs
 ---------------------------------------------------------------------------------
 (11) _HighISR                                             0     0      0       0
 ---------------------------------------------------------------------------------
 Estimated maximum stack depth 11
 ---------------------------------------------------------------------------------

 Call Graph Graphs:

 _main (ROOT)
   _ADC_init
   _Callibrate
     ___fladd
       ___fldiv (ARG)
         ___wmul (ARG)
           _get16bitTMR0val (ARG)
         ___xxtofl (ARG)
           ___wmul (ARG)
       ___wmul (ARG)
       ___xxtofl (ARG)
     ___fldiv
     ___flmul
       ___fladd (ARG)
       ___fldiv (ARG)
       ___wmul (ARG)
       ___xxtofl (ARG)
     ___flsub
       ___fladd
       ___fldiv (ARG)
       ___flmul (ARG)
       ___wmul (ARG)
       ___xxtofl (ARG)
     ___fltol
       ___fladd (ARG)
       ___fldiv (ARG)
       ___flmul (ARG)
       ___flsub (ARG)
       ___wmul (ARG)
       ___xxtofl (ARG)
     ___lwdiv
       ___wmul (ARG)
       _get16bitTMR0val (ARG)
     ___lwmod
     ___wmul
     ___xxtofl
     _sinf
       ___cosdf
         ___fladd
         ___flmul
       ___fladd
       ___fldiv (ARG)
       ___flneg (ARG)
         ___cosdf (ARG)
         ___fladd (ARG)
       ___rem_pio2f (ARG)
         ___fladd
         ___flmul
         ___flneg
         ___flsub
         ___fltol
         ___xxtofl
         _fabsf
       ___sindf (ARG)
         ___fladd
         ___flmul
       ___wmul (ARG)
   _Comp1_init
     _DAC_init
   _Interrupts_init
   _LCD_Init
     _LCD_sendbyte
       _LCD_sendnibble
         _LCD_E_TOG
     _LCD_sendnibble
   _LED_activation
     _LEDarray_control
       _LEDarray_disp_bin
       ___lwmod
     _LEDarray_disp_bin
   _LEDarray_init
   _Timer0_init
   _calc_time
     _DST_adjust
     ___lwdiv
     ___wmul
     _get16bitTMR0val
     _month_days
       ___lwmod
   _datetime_init
   _disp_time
     _LCD_sendstring
       _LCD_sendbyte
     _LCD_setline
       _LCD_sendbyte
     _sprintf
       _vfprintf
         _vfpfcnvrt
           _dtoa
             ___awdiv
             ___awmod
             _abs
               ___awmod (ARG)
             _pad
               _fputc
                 _putch
               _fputs
                 _fputc
           _fputc
           _read_prec_or_width
             ___wmul

 _LowISR (ROOT)

 _HighISR (ROOT)

 Address spaces:
Name               Size   Autos  Total    Cost      Usage
BIGRAM             DE9      0       0      52        0.0%
EEDATA             400      0       0       0        0.0%
BITBANK12          100      0       0      28        0.0%
BANK12             100      0       0      29        0.0%
BITBANK11          100      0       0      26        0.0%
BANK11             100      0       0      27        0.0%
BITBANK10          100      0       0      24        0.0%
BANK10             100      0       0      25        0.0%
BITBANK9           100      0       0      22        0.0%
BANK9              100      0       0      23        0.0%
BITBANK8           100      0       0      20        0.0%
BANK8              100      0       0      21        0.0%
BITBANK7           100      0       0      18        0.0%
BANK7              100      0       0      19        0.0%
BITBANK6           100      0       0      16        0.0%
BANK6              100      0       0      17        0.0%
BITBANK5           100      0       0      14        0.0%
BANK5              100      0       0      15        0.0%
BITBANK4           100      0       0      12        0.0%
BANK4              100      0       0      13        0.0%
BITBANK3           100      0       0      10        0.0%
BANK3              100      0       0      11        0.0%
BITBANK2           100      0       0       8        0.0%
BANK2              100      0       0       9        0.0%
BITBANK1           100      0       0       6        0.0%
BANK1              100      0      38       7       21.9%
BITBANK13           EA      0       0      30        0.0%
BANK13              EA      0       0      31        0.0%
BITBANK0            A0      0       0       4        0.0%
BANK0               A0     7C      9E       5       98.8%
BITBIGSFRlhlhhh     84      0       0      38        0.0%
BITCOMRAM           5E      0       0       0        0.0%
COMRAM              5E     58      5B       1       96.8%
BITBIGSFRllhhh      5C      0       0      44        0.0%
BITBIGSFRhhhhll     4A      0       0      34        0.0%
BITBIGSFRlllll      30      0       0      50        0.0%
BITBIGSFRhhhhlh     1B      0       0      33        0.0%
BITBIGSFRlhlllh     19      0       0      42        0.0%
BITBIGSFRlhhhhl     14      0       0      35        0.0%
BITBIGSFRhhhhh       D      0       0      32        0.0%
BITBIGSFRlhlhl       9      0       0      40        0.0%
BITBIGSFRlhlhhl      8      0       0      39        0.0%
BITBIGSFRlllh        7      0       0      48        0.0%
BITBIGSFRllhhll      7      0       0      46        0.0%
BITBIGSFRlhllh       7      0       0      41        0.0%
BITBIGSFRlhllll      7      0       0      43        0.0%
BITBIGSFRlhhl        6      0       0      37        0.0%
BITBIGSFRlhhhl       3      0       0      36        0.0%
BITBIGSFRllhhlh      1      0       0      45        0.0%
BITBIGSFRllllh       1      0       0      49        0.0%
BITBIGSFRllhl        1      0       0      47        0.0%
BIGSFR               0      0       0     200        0.0%
BITSFR_3             0      0       0     200        0.0%
SFR_3                0      0       0     200        0.0%
BITSFR_2             0      0       0     200        0.0%
SFR_2                0      0       0     200        0.0%
BITSFR_1             0      0       0     200        0.0%
SFR_1                0      0       0     200        0.0%
BITSFR               0      0       0     200        0.0%
SFR                  0      0       0     200        0.0%
STACK                0      0       0       2        0.0%
NULL                 0      0       0       0        0.0%
ABS                  0      0     131      51        0.0%
DATA                 0      0     131       3        0.0%
CODE                 0      0       0       0        0.0%


Microchip Technology PIC18 Macro Assembler V2.45 build 20230818022343 
Symbol Table                                                                                   Tue Nov 07 01:39:01 2023

              ___fldiv@aexp 0034                ___fldiv@bexp 0033                ___fldiv@sign 002C  
                        _C0 0E2D                          _C1 0E29                          _C2 0E25  
                        _C3 0E21                          l15 413E                          l50 3CD4  
                        l42 3C84                          l44 3C9A                          l53 409E  
                        l61 3F64                          l46 3CB0                          l39 4198  
                        l48 3CC6                          l56 35D8                          l67 403E  
                        _S1 0E0D                          _S2 0E09                          _S3 0E05  
                        _S4 0E01                          l97 3F9E                ___awdiv@sign 0009  
                        bsr 0FE0         ___wmul@multiplicand 000A           ??_Interrupts_init 0004  
                       l100 35EE                         l101 35F0                         l110 365C  
                       l102 3604                         l111 365E                         l103 3606  
                       l112 3672                         l104 361A                         l113 3674  
                       l105 361C                         l201 41A2                         l114 3688  
                       l106 3630                         l115 368A                         l107 3632  
                       l116 369E                         l108 3646                         l124 3ADE  
                       l141 416A                         l109 3648                         l118 36A0  
                       l208 1F9C                         l144 40C4                         l209 2038  
                       l227 30D2                         l243 2D90                         l341 410A  
                       l261 3BF8                         l246 3DE0                         l256 3824  
                       l344 417C                         l347 40EA                         l621 3FD6  
                       l286 4124                         l644 34D6                         l901 1752  
                       l902 1740                         l591 398E                         l578 3764  
                       l931 25F4                         l940 263A                         l845 3C6C  
                       l917 3E6C                         l942 26B2                         l934 25B8  
                       l838 3C64                         l943 26A0                         l855 3D38  
                       l848 3D30                         l929 2794                         l961 1900  
                       l970 1B6E                         l875 1568                         l971 1B5C  
                       l892 1682                         l884 1838                         l876 1556  
                       l877 151C                         l965 1C64                         l968 1AF6  
                       l978 1C26                         _EoT 00E4                         _abs 3FD8  
                       _day 00F6                         _pad 3AE0                ___awmod@sign 0009  
                       wreg 0FE8                ___flmul@aexp 0065                ___flmul@bexp 0066  
              ___flmul@sign 0060                ___flmul@temp 006B                ___flmul@prod 0067  
                _Callibrate 1C66                ___fltol@exp1 0076                        l1002 2DE8  
                      l1005 2F44                        l1102 400A                        l1016 2EDC  
                      l1009 2E80                        l1025 3F2A                        l1114 38DE  
                      l1122 3EEE                        l1050 3B70                        ?_abs 000A  
                      l1212 4072                        l1125 41A6                        l1045 3B14  
                      l1053 32B8                        l1070 3A34                        l1207 29C6  
                      l3000 16BC                        l1144 1378                        l1048 3B52  
                      l3010 16EC                        l3002 16C6                        l1066 33CE  
                      l1074 3A3C                        l3020 1714                        l3012 16F0  
                      l3004 16D4                        l3030 176E                        l3022 1722  
                      l3014 1700                        l3006 16D6                        l3110 3990  
                      l1095 3EAE                        l3040 17D8                        l3032 177C  
                      l3024 1738                        l3008 16E4                        l3016 1702  
                      l3200 19AA                        l3120 3A02                        l3112 3998  
                      l1089 3258                        l3050 1812                        l3042 17F8  
                      l3034 17B6                        l3018 1710                        l3210 19FC  
                      l3202 19B6                        l1178 2BC4                        l1194 225C  
                      l2074 4158                        l3130 3C94                        l4010 2BF6  
                      l4002 2BC6                        l3114 39BE                        l3122 3A0A  
                      l1195 23FA                        l1099 3FF2                        l3052 1818  
                      l3044 17FC                        l3028 1762                        l3036 17B8  
                      l3220 1A7A                        l3212 1A0C                        l3204 19C6  
                      l2076 415E                        l3140 3CC8                        l3132 3C9C  
                      l3124 3C70                        l4020 2C34                        l4012 2BFC  
                      l4004 2BD4                        l3116 39C6                        l2430 4130  
                      l3054 1826                        l3046 180A                        l3038 17C8  
                      l3230 1AF4                        l3222 1AB0                        l3214 1A28  
                      l3206 19D2                        l3150 1858                        l2078 4168  
                      l3142 3CCC                        l3134 3CAA                        l3126 3C7E  
                      l4030 2C82                        l4022 2C3C                        l4014 2C12  
                      l4006 2BE2                        l3118 39E2                        l2432 4138  
                      l3056 1828                        l3048 1810                        l3240 1B54  
                      l3232 1B06                        l3224 1ABE                        l3216 1A34  
                      l3208 19E2                        l3160 189E                        l3152 1868  
                      l3144 183A                        l3136 3CB2                        l3128 3C86  
                      l4040 2CC0                        l4032 2C9A                        l4016 2C1A  
                      l4024 2C40                        l4008 2BE8                        l4200 325A  
                      l2434 413A                        l3250 1BC2                        l3234 1B14  
                      l3226 1ADC                        l3218 1A50                        l3170 18CA  
                      l3162 18A4                        l3154 1878                        l3146 1848  
                      l3138 3CC0                        l4050 2D16                        l4042 2CC8  
                      l4034 2CA2                        l4018 2C1E                        l4026 2C42  
                      l4210 3290                        l4202 325E                        l2436 413C  
                      l2428 4126                        l3260 1C2A                        l3244 1B7E  
                      l3252 1BC6                        l3236 1B18                        l3228 1AE6  
                      l3180 1920                        l3172 18DA                        l3164 18AA  
                      l3156 1888                        l3148 1856                        l3340 2E0E  
                      l3332 2D94                        l4060 2D5E                        l4052 2D1E  
                      l4044 2CF4                        l4036 2CA6                        l4028 2C50  
                      l4220 32CA                        l4212 32A0                        l4204 3272  
                      l4300 3110                        l3270 1C54                        l3262 1C3A  
                      l3254 1BE0                        l3246 1B8A                        l3238 1B26  
                      l3190 1960                        l3174 18EA                        l3166 18B8  
                      l3158 188E                        l3502 29C8                        l3350 2E68  
                      l3334 2DA4                        l2622 410C                        l4070 3766  
                      l2630 4108                        l4062 2D74                        l4054 2D22  
                      l4046 2CFC                        l4038 2CAA                        l4222 32D0  
                      l4230 3328                        l4214 32AC                        l4206 327A  
                      l4302 3114                        l3264 1C48                        l3256 1BF4  
                      l3248 1B98                        l3192 196C                        l3184 1934  
                      l3176 18F0                        l3168 18BA                        l3280 3FA0  
                      l3360 2ECC                        l3352 2E6A                        l3344 2E22  
                      l3336 2DB2                        l2480 40B4                        l4080 37B4  
                      l4072 377A                        l2624 40EC                        l4056 2D36  
                      l4048 2D00                        l2800 38F2                        l4232 3342  
                      l4240 338C                        l4224 3302                        l4216 32B4  
                      l4208 328A                        l4320 319C                        l4312 3132  
                      l4304 311C                        l3266 1C4A                        l3258 1C0E  
                      l3194 1984                        l3186 1940                        l3178 1910  
                      l3282 3FB6                        l3274 3E28                        l4250 33D0  
                      l3370 2F24                        l3362 2EEA                        l3354 2E76  
                      l3346 2E2A                        l3338 2DF8                        l3434 4040  
                      l2490 40C0                        l2482 40B6                        l3450 4096  
                      l3442 4076                        l4090 3800                        l4082 37CC  
                      l4074 3786                        l2474 3F66                        l2626 40F4  
                      l4058 2D4A                        l4410 4022                        l2810 3926  
                      l2802 38FA                        l2730 3850                        l4242 339C  
                      l4234 3354                        l4226 3306                        l4218 32C0  
                      l4330 3208                        l4322 31A6                        l4306 311E  
                      l4314 3168                        l2900 145A                        l3268 1C50  
                      l3196 1990                        l3188 194A                        l3284 3FC6  
                      l3276 3E38                        l4260 3428                        l4252 33E8  
                      l3372 2F32                        l3364 2EEC                        l3356 2EB2  
                      l3348 2E36                        l3436 4060                        l4500 1296  
                      l4420 0E84                        l2484 40B8                        l2476 40A0  
                      l3444 4080                        l3460 362A                        l3452 35DA  
                      l4092 3818                        l4084 37DC                        l4076 379C  
                      l2628 40FE                        l3700 2F94                        l2492 419A  
                      l4412 4026                        l2820 3962                        l2812 392E  
                      l2804 38FE                        l2732 386C                        l2724 3826  
                      l4180 3ECA                        l4244 33A2                        l4236 3364  
                      l4228 330C                        l4332 3212                        l4324 31B0  
                      l4316 3178                        l4308 312A                        l4340 3232  
                      l2910 1486                        l2902 146C                        l3198 199C  
                      l4262 3438                        l3374 2F34                        l3366 2EF0  
                      l3358 2EBE                        l3438 4062                        l4510 130A  
                      l4502 12BA                        l4422 0EA2                        l4430 0EF4  
                      l4414 0E5C                        l2486 40BA                        l2478 40A2  
                      l3446 4088                        l3470 3698                        l3462 3640  
                      l3454 35E8                        l4094 3822                        l4086 37F2  
                      l4078 37A6                        l3710 2FF0                        l3702 2FA8  
                      l4406 400C                        l2822 3968                        l2814 3936  
                      l2806 390C                        l2734 389E                        l2726 3836  
                      l4182 3ECE                        l4190 3B0C                        l4246 33B2  
                      l4238 337E                        l4326 31D0                        l4318 318C  
                      l4350 3E6E                        l3800 248E                        l3480 3D06  
                      l3472 3CD6                        l2920 149A                        l2912 148A  
                      l2904 147A                        l4272 3462                        l4264 343C  
                      l4256 33FC                        l3368 2F14                        l4360 203A  
                      l4432 0F12                        l4424 0EB8                        l4416 0E6C  
                      l2488 40BC                        l3448 4090                        l3464 3656  
                      l3456 35FE                        l4088 37FE                        l3720 304C  
                      l3712 3004                        l3704 2FBC                        l4408 4010  
                      l3552 3F2E                        l2760 36C0                        l2752 36A2  
                      l2816 3944                        l2824 396E                        l2808 3914  
                      l2728 3846                        l4176 3EB0                        l4192 3B20  
                      l4184 3AE0                        l4336 3226                        l4328 31F0  
                      l4352 3E76                        l3810 24C8                        l3802 249E  
                      l3482 3D1C                        l3474 3CE8                        l2746 40C6  
                      l2930 14AE                        l2922 149E                        l2914 148E  
                      l2906 147E                        l4290 34C6                        l4282 348A  
                      l4274 346C                        l4266 344A                        l4258 3426  
                      l4370 20B4                        l4362 205A                        l4506 12E2  
                      l4434 0F30                        l4450 100C                        l4426 0ECC  
                      l4418 0E82                        l3466 366C                        l3458 3614  
                      l3570 3A46                        l3722 306A                        l3714 3018  
                      l3730 30CA                        l3706 2FD0                        l3554 3F3E  
                      l2770 36F4                        l2762 36CE                        l2754 36A6  
                      l2826 397E                        l2818 395A                        l2850 3FE6  
                      l4178 3EBC                        l4194 3B30                        l4186 3AEE  
                      l4354 3E86                        l4530 3F1C                        l4522 3EF0  
                      l3900 2788                        l3812 24DE                        l3804 24AE  
                      l3484 3D24                        l3476 3CF0                        l2748 40E2  
                      l2940 14E8                        l2932 14B2                        l2924 14A2  
                      l2916 1492                        l2908 1482                        l2860 1386  
                      l4284 3496                        l4276 3476                        l4380 220E  
                      l4372 2120                        l4364 2070                        l4516 1346  
                      l4452 101C                        l4436 0F40                        l4444 0FB0  
                      l4460 10D8                        l4540 1CAE                        l2852 418C  
                      l3468 3682                        l3580 3ACA                        l3572 3A6C  
                      l3740 3B98                        l3724 3090                        l3716 302C  
                      l3708 2FDC                        l3556 3F48                        l2780 372E  
                      l2772 36FC                        l2764 36D6                        l2756 36B4  
                      l2828 3986                        l4196 3B34                        l4188 3AFE  
                      l4356 3EA6                        l4524 3EFC                        l3902 278A  
                      l3830 2532                        l3814 24EE                        l3822 250E  
                      l3806 24B0                        l3910 3BFA                        l3486 3D2A  
                      l3478 3CF8                        l2950 153A                        l2942 1504  
                      l2934 14B6                        l2926 14A6                        l2918 1496  
                      l2870 13C6                        l2862 1394                        l4286 34A6  
                      l4390 22F8                        l4382 2240                        l4374 2146  
                      l4366 2072                        l4462 10F6                        l4454 1068  
                      l4446 0FE4                        l4438 0F74                        l4550 1EB0  
                      l4542 1CC4                        l4534 1C66                        l2854 418E  
                      l3582 3AD2                        l3574 3A74                        l3750 3BD8  
                      l3742 3BA6                        l3734 416C                        l3726 30B6  
                      l3718 3038                        l3558 3F5A                        l2790 3754  
                      l2782 3736                        l2774 3704                        l2766 36DA  
                      l2758 36BC                        l4198 3B60                        l4294 30D4  
                      l4526 3F04                        ?_pad 0012                        l3840 2584  
                      l3832 254C                        l3824 251E                        l3816 24F6  
                      l3808 24B8                        l3920 3C32                        l3912 3C02  
                      l2960 1586                        l2952 1548                        l2944 1514  
                      l2928 14AA                        l2936 14BA                        l2880 13F8  
                      l2872 13C8                        l2864 1396                        l4288 34B6  
                      l4392 231E                        l4376 219E                        l4368 2090  
                      l4640 135A                        l4464 1114                        l4480 1194  
                      l4456 10B0                        l4560 1FB8                        l4552 1F5C  
                      l4544 1D8C                        l4536 1C74                        l2856 4196  
                      l3576 3A9A                        l3568 3A3E                        l3752 3BE6  
                      l3744 3BAE                        l3736 3B72                        l3728 30C2  
                      l2792 375C                        l2784 3738                        l2776 3712  
                      l2768 36E2                        l2848 3FD8                        l4296 30FA  
                      l4528 3F0C                        l3850 25E0                        l3842 2594  
                      l3834 255C                        l3826 251E                        l3818 24FA  
                      l3930 3C5E                        l3922 3C38                        l3914 3C14  
                      l2970 15C6                        l2954 154A                        l2946 152A  
                      l2938 14BE                        l2890 1420                        l2882 13FA  
                      l2866 13A6                        l2874 13D0                        l2858 137A  
                      l4394 2376                        l4378 21FE                        l4386 2268  
                      l3498 2796                        l4482 11A4                        l4466 1124  
                      l4474 115C                        l4490 1238                        l4562 1FD8  
                      l4554 1F6A                        l4546 1DD4                        l4538 1C8C  
                      l3578 3AA2                        l3754 3BEE                        l3738 3B86  
                      l3746 3BB0                        l2786 373E                        l2778 3718  
                      l4298 3102                        l4570 3D9C                        l3860 2620  
                      l3852 25E2                        l3844 25A8                        l3836 256C  
                      l3780 2428                        l3772 23FC                        l3924 3C4E  
                      l3916 3C1C                        l2980 15F0                        l2972 15D2  
                      l2964 159A                        l2956 1554                        l2948 1536  
                      l2892 1430                        l2884 1400                        l2876 13E0  
                      l2868 13B6                        l4396 23CE                        l4388 228C  
                      l4492 124E                        l4484 11DC                        l4564 1FFA  
                      l4556 1F7C                        l4548 1E58                        l3940 3522  
                      l3932 34D8                        l3748 3BC4                        l3756 3BF0  
                      l3692 2F46                        l2788 3744                        l2796 38E0  
                      l4572 3DD4                        l4580 3DEE                        l3870 265C  
                      l3862 262A                        l3854 25F2                        l3846 25B6  
                      l3838 257C                        l3790 2462                        l3782 2438  
                      l3774 2408                        l3926 3C56                        l3918 3C24  
                      l2990 1662                        l2974 15D6                        l2966 15AA  
                      l2958 1576                        l2982 15F6                        l2894 1440  
                      l2886 140E                        l2878 13E6                        l4398 23E6  
                      l4494 125E                        l4486 1210                        l4566 201C  
                      l4558 1F8A                        l3950 3568                        l3942 3532  
                      l3934 34F0                        l3694 2F58                        l2798 38E4  
                      l4638 315A                        l4590 3E02                        l4582 3DF2  
                      l4574 3DE2                        l3880 26CE                        l3872 266A  
                      l3864 2638                        l3856 2604                        l3848 25C2  
                      l3792 2468                        l3784 2448                        l3776 2416  
                      l3928 3C58                        l2984 161C                        l2992 1672  
                      l2976 15E4                        l2968 15B8                        l2896 1442  
                      l2888 1410                        l3960 35A8                        l3952 3576  
                      l3944 3548                        l3936 3506                        l3696 2F6C  
                      l4568 3D96                        l4592 3E06                        l4584 3DF6  
                      l4576 3DE6                        l3890 273A                        l3882 26DC  
                      l3874 2698                        l3858 261A                        l3866 264A  
                      l3794 246E                        l3786 244A                        l3778 2418  
                      l2994 1698                        l2986 1650                        l2978 15E6  
                      l2898 144A                        l4498 1272                        l3962 35B2  
                      l3954 3580                        l3946 354E                        l3938 350C  
                      l3698 2F80                        l4594 3E0A                        l4586 3DFA  
                      l4578 3DEA                        l3892 2754                        l3884 2706  
                      l3868 2658                        l3796 247C                        l3788 2452  
                      l2996 16A8                        l2988 1652                        l3964 35C0  
                      l3956 358E                        l3948 355E                        l4596 3E0E  
                      l4588 3DFE                        l3894 2770                        l3878 26C2  
                      l3886 270A                        l3798 247E                        l3966 35CA  
                      l3958 3598                        l3896 2774                        l3888 2724  
                      l3898 2782                        STR_1 0E41                        u3100 3CC0  
                      u3101 3CBC                        u3110 1856                        u3111 1852  
                      u3200 1AF4                        u3120 1868                        u4000 3018  
                      u2400 36CE                        u3201 1AF0                        u3121 1864  
                      u4001 3014                        u2401 36CA                        u3210 1B14  
                      u3130 1878                        u4010 302C                        u2410 36F4  
                      u3050 39BE                        u3211 1B10                        u3131 1874  
                      u4011 3028                        u2411 36F0                        u3051 39BA  
                      u3220 1B26                        u3140 18B8                        u3300 3FB6  
                      u4100 3BD8                        u4020 304C                        u2420 3712  
                      u2500 397E                        u2340 3836                        u3060 3A34  
                      u3221 1B22                        u3141 18B4                        u3301 3FB2  
                      u4101 3BD4                        u4021 3048                        u2421 370E  
                      u2501 397A                        u2341 3832                        u3061 3A30  
                      u3230 1B54                        u3150 18CA                        u3070 3C7E  
                      u4110 3BE6                        u4030 306A                        u2430 372E  
                      u2350 3846                        u3231 1B50                        u3151 18C6  
                      u3071 3C7A                        u4111 3BE2                        u4031 3066  
                      u2431 372A                        u2351 3842                        u4200 2594  
                      u4120 2416                        u2600 140E                        u3240 1B6A  
                      u3160 18DA                        u3400 2E0E                        u5000 0E80  
                      u3080 3C94                        u4040 3090                        u2440 3754  
                      u2360 386C                        u4201 2590                        u4121 2412  
                      u2601 140A                        u3241 1B66                        u3161 18D6  
                      u3401 2E0A                        u3081 3C90                        u4041 308C  
                      u2441 3750                        u2361 3868                        u4210 25B6  
                      u4130 2428                        u2610 1420                        u3250 1B7E  
                      u3170 1910                        u3410 2E64                        u5010 0EA2  
                      u3090 3CAA                        u4050 30B6                        u2450 38F2  
                      u2370 389E                        u4211 25B2                        u4131 2424  
                      u2611 141C                        u3251 1B7A                        u3171 190C  
                      u3411 2E60                        u5011 0E9E                        u3091 3CA6  
                      u4051 30B2                        u2451 38EE                        u2371 389A  
                      u4300 26C2                        u4220 25E0                        u4140 2438  
                      u2700 1568                        u2620 1430                        u3260 1B98  
                      u3180 1920                        u3420 2EAE                        u5100 11A4  
                      u5020 0EB8                        u4060 3B86                        u2460 390C  
                      u4301 26BE                        u4221 25DC                        u4141 2434  
                      u2701 1564                        u2621 142C                        u3261 1B94  
                      u3181 191C                        u3421 2EAA                        u5101 11A0  
                      u5021 0EB4                        u4061 3B82                        u2461 3908  
                      u4310 26DC                        u4230 2604                        u4150 247C  
                      u2710 1576                        u2630 146C                        u3270 1BE0  
                      u3190 1A9A                        u3430 2ECC                        u5110 124E  
                      u5030 0F12                        u4070 3B98                        u2390 36B4  
                      u2470 3926                        u2550 3FE6                        u4311 26D8  
                      u4231 2600                        u4151 2478                        u2711 1572  
                      u2631 1468                        u3271 1BDC                        u3431 2EC8  
                      u5111 124A                        u5031 0F0E                        u4071 3B94  
                      u2391 36B0                        u2471 3922                        u2551 3FE2  
                      u4320 2724                        u4240 261A                        u4160 248E  
                      u2800 16D4                        u2720 1586                        u2640 147A  
                      u2560 1394                        u3280 1C0E                        u3440 2EDC  
                      u5040 0F30                        u5120 1C74                        u3600 366C  
                      u4080 3BA6                        u2480 3944                        u4321 2720  
                      u4241 2616                        u4161 248A                        u2801 16D0  
                      u2721 1582                        u2641 1476                        u2561 1390  
                      u3281 1C0A                        u3441 2ED8                        u5041 0F2C  
                      u5121 1C70                        u3601 3668                        u4081 3BA2  
                      u2481 3940                        u4330 2754                        u4250 2638  
                      u4170 249E                        u2810 16E4                        u2730 15B8  
                      u2650 14E8                        u2570 13A6                        u3290 1C48  
                      u3450 2EEA                        u5050 0F40                        u5130 1C8C  
                      u3610 3682                        u4090 3BC4                        u2490 395A  
                      u4331 2750                        u4251 2634                        u4171 249A  
                      u2811 16E0                        u2731 15B4                        u2651 14E4  
                      u2571 13A2                        u3291 1C44                        u3195 1A90  
                      u3451 2EE6                        u5051 0F3C                        u5131 1C88  
                      u3611 367E                        u4091 3BC0                        u2491 3956  
                      u4340 2782                        u4260 2658                        u4180 24DE  
                      u2900 17C8                        u2820 1700                        u2740 15C6  
                      u2660 1500                        u2580 13B6                        u3460 2F24  
                      u3380 2DA4                        u5060 101C                        u5140 1CC4  
                      u3620 3698                        u3540 35E8                        u4500 2CC0  
                      u4341 277E                        u4261 2654                        u4181 24DA  
                      u2901 17C4                        u2821 16FC                        u2741 15C2  
                      u2661 14FA                        u2581 13B2                        u3461 2F20  
                      u3381 2DA0                        u5061 1018                        u5141 1CC0  
                      u3621 3694                        u3541 35E4                        u4501 2CBC  
                      u4270 266A                        u4190 251E                        u4350 3C14  
                      u3630 3CE8                        u2910 17D8                        u2830 1710  
                      u2750 15E4                        u2670 1502                        u2590 13F8  
                      u3470 2F32                        u3390 2DB2                        u5070 10F6  
                      u5150 1F6A                        u3550 35FE                        u4510 2CF4  
                      u4430 2BD4                        u4271 2666                        u4191 251A  
                      u4351 3C10                        u3631 3CE4                        u2911 17D4  
                      u2831 170C                        u2751 15E0                        u2591 13F4  
                      u3471 2F2E                        u3391 2DAE                        u5071 10F2  
                      u5151 1F66                        u3535 407E                        u5207 3528  
                      u3551 35FA                        u4511 2CF0                        u4431 2BD0  
                      u4280 2698                        u4360 3C32                        u3640 3D06  
                      u2920 17F8                        u2840 1722                        u2760 161C  
                      u2680 152A                        u5080 1114                        u5160 1F8A  
                      u3536 4080                        u3560 3614                        u4600 37CC  
                      u4520 2D16                        u4440 2BE2                        u3720 3F3E  
                      u4281 2694                        u4361 3C2E                        u3641 3D02  
                      u2921 17F4                        u2841 171E                        u2761 1618  
                      u2681 1526                        u5081 1110                        u5161 1F86  
                      u5217 353E                        u3561 3610                        u4601 37C8  
                      u4521 2D12                        u4441 2BDE                        u3721 3F3A  
                      u4290 26AE                        u4370 3C4E                        u3650 3D1C  
                      u2930 180A                        u2850 1738                        u2770 1662  
                      u2690 1548                        u5090 1124                        u3570 362A  
                      u4610 37F2                        u4530 2D36                        u4450 2BF6  
                      u3730 3F5A                        u4291 26AA                        u4371 3C4A  
                      u3651 3D18                        u2931 1806                        u2851 1734  
                      u2771 165E                        u2691 1544                        u5091 1120  
                      u5307 3CCE                        u5227 3554                        u3571 3626  
                      u4611 37EE                        u4531 2D32                        u4451 2BF2  
                      u3731 3F56                        u2940 1826                        u2860 174E  
                      u2780 1698                        u3580 3640                        u4620 3818  
                      u4540 2D4A                        u4460 2C12                        u4700 326E  
                      u2941 1822                        u2861 174A                        u2781 1694  
                      u5317 4190                        u5237 356A                        u3581 363C  
                      u4621 3814                        u4541 2D46                        u4461 2C0E  
                      u4701 3268                        u2870 1762                        u2790 16A8  
                      u3590 3656                        u3750 3A6C                        u3910 2F58  
                      u4550 2D5E                        u4470 2C34                        u4710 3270  
                      u2871 175E                        u2791 16A4                        u5247 3582  
                      u3591 3652                        u3751 3A68                        u3911 2F54  
                      u4551 2D5A                        u4471 2C30                        u2880 177C  
                      u4800 33E8                        u3760 3A9A                        u3920 2F6C  
                      u4560 2D74                        u4480 2C50                        u4720 328A  
                      u2881 1778                        u4801 33E4                        u5257 359E  
                      u3761 3A96                        u3921 2F68                        u4561 2D70  
                      u4481 2C4C                        u4721 3286                        u5177 3E16  
                      u2890 17B6                        u4810 341C                        u3770 3ACA  
                      u4570 377A                        u3930 2F80                        u4490 2C9A  
                      u4650 3EEE                        u4730 32A0                        u2891 17B2  
                      u5267 35B4                        u5187 34FA                        u3771 3AC6  
                      u4571 3776                        u3931 2F7C                        u4491 2C96  
                      u4651 3EEA                        u4731 329C                        u4820 344A  
                      u4580 379C                        u3940 2F94                        u4660 3AEE  
                      u4740 3342                        u4900 31D0                        u4821 3446  
                      u5277 35CC                        u5197 3512                        u4581 3798  
                      u3941 2F90                        u4661 3AEA                        u4741 333E  
                      u4901 31CC                        u4830 345E                        u4590 37B4  
                      u3950 2FA8                        u4670 3B0C                        u4750 3354  
                      u4910 31F0                        u4831 345A                        u4815 3412  
                      u5287 408A                        u4591 37B0                        u3951 2FA4  
                      u4671 3B08                        u4751 3350                        u4911 31EC  
                      u4840 3486                        u3960 2FBC                        u4680 3B52  
                      u4760 3364                        u4920 3EA6                        u4841 3482  
                      u5297 4098                        u3961 2FB8                        u4681 3B4E  
                      u4761 3360                        u4921 3EA2                        u4850 34A6  
                      u4930 206C                        u3970 2FD0                        u4690 3B60  
                      u4770 337E                        u4851 34A2                        u4931 2066  
                      u3971 2FCC                        u4691 3B5C                        u4771 337A  
                      u4860 34B6                        u4940 206E                        u3980 2FF0  
                      u4780 338C                        u4861 34B2                        u3981 2FEC  
                      u4781 3388                        u4950 2090                        u3990 3004  
                      u4790 339C                        u4870 30FA                        u4951 208C  
                      u3991 3000                        u4791 3398                        u4871 30F6  
                      u4960 220E                        u4880 3178                        u4961 220A  
                      u4881 3174                        u4970 23F6                        u4890 319C  
                      u4971 23F2                        u4891 3198                        u4980 403E  
                      u4981 403A                        u4990 0E7E                        u4991 0E78  
                      abs@a 000A                        _dbuf 010E                        _half 0E1D  
                      _main 3DE2                 ?_DST_adjust 0004                        _dtoa 325A  
                      _hour 00F8                        _prec 00E2                        _sinf 0E5C  
                      _year 00F2                        pad@i 0018                        pad@p 0015  
                      fsr1h 0FE2                        fsr2h 0FDA                        indf2 0FDF  
                      fsr1l 0FE1                        fsr2l 0FD9                        btemp 005C  
              ?_LCD_setline 0001                        prodh 0FF4                        prodl 0FF3  
                      start 0052            __end_of_ADC_init 4140             ___fldiv@new_exp 002D  
          _solarnoonminutes 00E6            __end_of_DAC_init 416C             __end_of_HighISR 4158  
              ___param_bank 0000                  _Comp1_init 40A0                       ??_abs 000C  
                     ??_pad 0017            __end_of_LCD_Init 35DA               ___fltol@sign1 0075  
           __end_of___fladd 183A                       ?_main 0001                       ?_dtoa 001A  
                     _ADPCH 0F5F             __end_of___fldiv 2796             __end_of___awdiv 3766  
           __end_of___cosdf 2BC6             __end_of___flneg 3FD8             __end_of___awmod 3990  
                     ?_sinf 00A5             __end_of___flmul 1C66                 _sunrisetime 00F0  
           __end_of___flsub 3E6E             __end_of___fltol 34D8             ___awdiv@divisor 0006  
           __end_of___lwdiv 3C6E             __end_of___sindf 29C8             __end_of___lwmod 3D3A  
                     i1l298 0042                       i2l292 4154                ___sindf$2467 0075  
              ___sindf$2468 0079                ___sindf$2469 007D             ___awdiv@counter 0008  
              vfpfcnvrt@fmt 0026                       _TMR0H 0FD4                       _TMR0L 0FD3  
          _LEDarray_control 3A3E             __end_of_pio2_1t 0E15                       _fabsf 4040  
                     _flags 005B         read_prec_or_width@c 0010         read_prec_or_width@n 0011  
                     _fputc 3826                       _fputs 3EB0                       _month 0059  
                     pad@fp 0012                       _width 00E0             __end_of_invpio2 0E1D  
                     _putch 41A6                       dtoa@d 001B                       dtoa@i 0023  
                     dtoa@p 001F                       dtoa@s 0022                       dtoa@w 0020  
             ?_LCD_sendbyte 0005                       tablat 0FF5                       sinf@n 00B3  
                     sinf@x 00A5                       sinf@y 00B9                       ttemp5 005D  
                     ttemp6 0060                       ttemp7 0064                       status 0FD8  
                     wtemp8 005D             __end_of_sprintf 3F2C             __initialization 3D3A  
              __end_of_half 0E21                __end_of_main 3E28                __end_of_dtoa 33D0  
              __end_of_sinf 137A           __end_of_LCD_E_TOG 419A             _get16bitTMR0val 416C  
                    ??_main 00DB                      ??_dtoa 001D                      ??_sinf 00A9  
             __activetblptr 0003  __end_of_read_prec_or_width 3A3E         get16bitTMR0val@time 0006  
                    ?_fabsf 0004                 ?_Callibrate 0001                      ?_fputc 0004  
                    ?_fputs 000C                      _ADRESH 0F64              ??_LCD_sendbyte 0006  
          ___awdiv@dividend 0004                      ?_putch 0001                      i1l2652 0026  
                    i1l2654 0036                      i1l2656 003E                      i1l2658 0040  
                    i2l2650 4150                      i2l2648 4140               ___rem_pio2f@n 00A1  
             ___rem_pio2f@t 009D               ___rem_pio2f@x 0085               ___rem_pio2f@y 0089  
             vfpfcnvrt@done 002E                   ??_HighISR 0001            __end_of___xxtofl 2F46  
         _LEDarray_disp_bin 35DA                      _LowISR 0018          ?_LEDarray_disp_bin 0004  
             ??_Timer0_init 0004                vfprintf@cfmt 0033                      _s1pio2 0E3D  
                    _s2pio2 0E39                      _s3pio2 0E35       __end_of_datetime_init 41A4  
                    _s4pio2 0E31             _Callibrate$2460 00D5             _Callibrate$2461 00D9  
           _Callibrate$2456 00C5             _Callibrate$2457 00C9             _Callibrate$2458 00CD  
           _Callibrate$2459 00D1                   ??___fladd 003D                      ___wmul 40C6  
               ?_Comp1_init 0001                   ??___fldiv 0024                   ??___awdiv 0008  
                 ??___cosdf 0055                   ??___flneg 0059                   ??___awmod 0008  
                 ??___flmul 004D                   ??___flsub 0059                   ??___fltol 0071  
                 ??___lwdiv 0012                   ??___sindf 0055                   ??___lwmod 0008  
                    _pio2_1 0E15                      fabsf@u 0008                      fabsf@x 0004  
      read_prec_or_width@ap 000F         ??_LEDarray_disp_bin 0006                      clear_0 3D78  
                    clear_1 3D84            ___awdiv@quotient 000A                      _minute 00FA  
                    _second 00FC             ___awmod@divisor 0006                      isa$std 0001  
           ___awmod@counter 0008                      pad@buf 0013                      dtoa@fp 001A  
                    fputc@c 0004                      fputs@c 000F                      fputs@i 0010  
              __pdataCOMRAM 0059                      fputs@s 000C                __mediumconst 0000  
                    sinf@ux 00BD                      tblptrh 0FF7                      tblptrl 0FF6  
                    tblptru 0FF8                   ?_ADC_init 0001                      putch@c 0001  
                 ?_DAC_init 0001            __end_of_vfprintf 3EB0                   ??_sprintf 0041  
              ___xxtofl@arg 0018                ___xxtofl@exp 0017   __end_of_LEDarray_disp_bin 36A2  
              ___xxtofl@val 000E                  __accesstop 0060     __end_of__initialization 3D8C  
                 ?_LCD_Init 0001                  ___flneg@f1 0055               ___rparam_used 0001  
                ___fltol@f1 006D               _LEDarray_init 3F66             _Interrupts_init 410C  
            __pcstackCOMRAM 0001     __end_of_get16bitTMR0val 417E                __pidataBANK0 417E  
             __end_of_fabsf 4074               __end_of_fputc 38E0               __end_of_fputs 3EF0  
             __end_of_putch 41A8                  __end_of_C0 0E31                  __end_of_C1 0E2D  
                __end_of_C2 0E29                  __end_of_C3 0E25                  __end_of_S1 0E11  
                __end_of_S2 0E0D                  __end_of_S3 0E09                  __end_of_S4 0E05  
       __end_of_Timer0_init 410C                  ??_ADC_init 0004                  ??_DAC_init 0004  
                   ??_fabsf 0008                     ??_fputc 0007                     ??_fputs 000F  
                   ??_putch 0004                  __pbssBANK0 00DC                  __pbssBANK1 0100  
            _LED_activation 3766                  ??_LCD_Init 0007                ??_DST_adjust 0008  
            _LCD_sendnibble 3C6E              ?_LEDarray_init 0001              _LCD_sendstring 400C  
                   ?_LowISR 0001    __end_of_LEDarray_control 3AE0                  _difference 00E8  
                   ?___wmul 0008               ??___rem_pio2f 008A        __end_of_LCD_sendbyte 40A0  
            month_days@year 000B          __end_of_DST_adjust 3BFA                   ?___xxtofl 000E  
            ___rem_pio2f@fn 0099              ___rem_pio2f@ty 008C              ___rem_pio2f@ux 0095  
         __end_of_calc_time 2D92      __end_of_LED_activation 3826      __end_of_LCD_sendnibble 3CD6  
   __end_of_Interrupts_init 4126                     _HighISR 0008      __end_of_LCD_sendstring 4040  
                 _ADREFbits 0F58                     __Hparam 0000                     __Lparam 0000  
               _Timer0_init 40EC         month_days@monthDays 000F            ?_get16bitTMR0val 0004  
         __end_of_disp_time 3DE2                     ___fladd 137A                     ___fldiv 23FC  
                   ___awdiv 36A2                     ___cosdf 29C8                     ___flneg 3FA0  
                   ___awmod 38E0                     ___flmul 183A                     ___flsub 3E28  
                   ___fltol 33D0                     ___lwdiv 3BFA                     ___sindf 2796  
                   ___lwmod 3CD6                   ?_vfprintf 0030                __psmallconst 0E00  
                   __pcinit 3D3A                     __ramtop 0E00                     __ptext0 3DE2  
                   __ptext1 3D96                     __ptext2 3EF0                     __ptext3 3E6E  
                   __ptext4 30D4                     __ptext5 3990                     __ptext6 325A  
                   __ptext7 3AE0                     __ptext8 3EB0                     __ptext9 3826  
                   _pio2_1t 0E11       read_prec_or_width@fmt 000E                  ??___xxtofl 0012  
       __end_of___rem_pio2f 23FC            ___awmod@dividend 0004                     _invpio2 0E19  
                 _LCD_E_TOG 418C             LCD_setline@line 0007                     _weekday 00F4  
              ??_Callibrate 00C1                     _sprintf 3EF0            ___rem_pio2f$2466 0090  
            __pintcode_body 4140        end_of_initialization 3D8C             ?_LED_activation 0001  
           ?_LCD_sendnibble 0001                     fputc@fp 0006             ??_LEDarray_init 0004  
          ___rem_pio2f@F526 00DC                     int_func 4140                     fputs@fp 000E  
           ?_LCD_sendstring 0007          _read_prec_or_width 3990                  _month_days 2F46  
          ___rem_pio2f@sign 0094           __end_of_vfpfcnvrt 325A                     postdec1 0FE5  
                   postdec2 0FDD         ?_read_prec_or_width 000E                ??_Comp1_init 0004  
                   postinc0 0FEE                     postinc1 0FE6                     postinc2 0FDE  
          vfpfcnvrt@convarg 002A                  _timeString 012E                  ??_vfprintf 0033  
        __end_of_Callibrate 203A                 ___fladd@grs 0044               ___xxtofl@sign 0016  
                ?_LCD_E_TOG 0001                   _TRISAbits 0F81                   _TRISBbits 0F82  
                 _TRISCbits 0F83                   _TRISDbits 0F84                   _TRISEbits 0F85  
                 _TRISFbits 0F86                   _TRISGbits 0F87                   _TRISHbits 0F88  
      ??_read_prec_or_width 0010                 ___fldiv@grs 002F                 ___fldiv@rem 0028  
        __end_of_Comp1_init 40C6                 _CM1CON0bits 0ED0                 _CM1CON1bits 0ED1  
          ?_Interrupts_init 0001                 ___flmul@grs 0061                  _syncString 0100  
            __end_of_LowISR 0052              __end_of_s1pio2 0E41              __end_of_s2pio2 0E3D  
            __end_of_s3pio2 0E39              __end_of_s4pio2 0E35                  _sunsettime 00EA  
               vfpfcnvrt@ap 0027                 vfpfcnvrt@cp 002F                 ___rem_pio2f 203A  
               vfpfcnvrt@fp 0025              __end_of___wmul 40EC        LCD_sendnibble@number 0004  
             __pidataCOMRAM 41A4              __end_of_pio2_1 0E19         start_initialization 3D3A  
               __end_of_abs 400C                 __end_of_pad 3B72                _LCD_sendbyte 4074  
             ??_LCD_setline 0007                 ?_month_days 0009                    ??_LowISR 0001  
               vfprintf@fmt 0031           ?_LEDarray_control 0009        LCD_sendstring@string 0007  
                  ??___wmul 000C          ??_LEDarray_control 000B                 __pdataBANK0 00F0  
                 ___fladd@a 0039                   ___fladd@b 0035                   ___fldiv@a 0020  
                 ___fldiv@b 001C                   ___cosdf@r 006D                   ___cosdf@w 007D  
                 ___cosdf@x 0051                   ___cosdf@z 0081                   ___flmul@a 0049  
                 ___flmul@b 0045                 __pbssCOMRAM 005B                   ___flsub@a 0055  
                 ___flsub@b 0051                 ??_LCD_E_TOG 0004               __pcstackBANK0 0060  
                 ___sindf@r 006D                   ___sindf@s 0081                   ___sindf@w 0071  
                 ___sindf@x 0051                   ___sindf@z 0085                   _calc_time 2BC6  
                  ?_HighISR 0001            ___lwdiv@dividend 000E                   _dtoa$2068 001D  
              ?_Timer0_init 0001                   __pintcode 0008                    ?___fladd 0035  
                  ?___fldiv 001C                    ?___awdiv 0004                    ?___cosdf 0051  
             _datetime_init 419A                    ?___flneg 0055                    ?___awmod 0004  
                  ?___flmul 0045                    ?___flsub 0051                    ?___fltol 006D  
       __end_of_LCD_setline 3F66                    ?___lwdiv 000E                    ?___sindf 0051  
                  ?___lwmod 0004                 __pintcodelo 0018                   _disp_time 3D96  
                 fabsf@F465 010A                 __smallconst 0E00            ??_LED_activation 000D  
      LEDarray_control@temp 000B            ??_LCD_sendnibble 0004                    _ADC_init 4126  
                  _DAC_init 4158            ___lwdiv@quotient 0012            ??_LCD_sendstring 0009  
                 _sinf$2171 00AB                   _sinf$2172 00AF                    ?_sprintf 0034  
                 _sinf$2462 00B5            LCD_sendbyte@Byte 0006             month_days@month 0009  
                ?_calc_time 0001                    _LCD_Init 34D8            LCD_sendbyte@type 0005  
            ___wmul@product 000C                    _LATAbits 0F79                    _LATBbits 0F7A  
                  _LATCbits 0F7B                    _LATDbits 0F7C                    _LATEbits 0F7D  
                  _LATFbits 0F7E                    _LATGbits 0F7F                    _LATHbits 0F80  
                 _longitude 00EE                    _IPR0bits 0E1F                    _PIE0bits 0E29  
                  _IPR2bits 0E21                    _PIE2bits 0E2B                    i1u233_20 0036  
                  i1u233_21 0032                    i2u232_40 4150                    i2u232_41 414C  
                  _PIR0bits 0E33                    _PIR2bits 0E35              ?_datetime_init 0001  
                 _vfpfcnvrt 30D4                  ?_disp_time 0001                  _ADCON0bits 0F60  
         ___wmul@multiplier 0008                  _CM1NCHbits 0ED2                  _CM1PCHbits 0ED3  
                 copy_data0 3D4E       __end_of_LEDarray_init 3FA0                 _LCD_setline 3F2C  
                  __Hrparam 0000                _longitudestz 00EC                  vfprintf@ap 0032  
                  __Lrparam 0000                  vfprintf@fp 0030                ?___rem_pio2f 0085  
                ?_vfpfcnvrt 0025                  _ANSELAbits 0E92                  _ANSELBbits 0E9A  
                _ANSELFbits 0EB4                  _ANSELGbits 0EBC                  sprintf@fmt 0036  
                  ___xxtofl 2D92                  _T0CON0bits 0FD5                  _T0CON1bits 0FD6  
           ___lwdiv@divisor 0010             ___lwdiv@counter 0014                    __ptext10 41A6  
                  __ptext11 3FD8                    __ptext20 3B72                    __ptext12 38E0  
                  __ptext21 40EC                    __ptext13 36A2                    __ptext30 410C  
                  __ptext22 3F66                    __ptext14 3F2C                    __ptext31 40A0  
                  __ptext23 3766                    __ptext15 400C                    __ptext40 3E28  
                  __ptext32 4158                    __ptext24 3A3E                    __ptext16 419A  
                  __ptext41 3FA0                    __ptext33 1C66                    __ptext25 35DA  
                  __ptext17 2BC6                    __ptext42 29C8                    __ptext34 0E5C  
                  __ptext26 34D8                    __ptext18 2F46                    __ptext43 183A  
                  __ptext35 2796                    __ptext27 4074                    __ptext19 416C  
                  __ptext44 137A                    __ptext36 203A                    __ptext28 3C6E  
                  __ptext45 40C6                    __ptext37 4040                    __ptext29 418C  
                  __ptext46 3CD6                    __ptext38 2D92                    __ptext47 3BFA  
                  __ptext39 33D0                    __ptext48 23FC                    __ptext49 4126  
   LEDarray_disp_bin@number 0004         LEDarray_control@day 0009                 ??_calc_time 0015  
              ??_month_days 000D             ??_datetime_init 0004                    isa$xinst 0000  
                  int$flags 005C                    _vfprintf 3E6E                 ??_disp_time 004E  
                _INTCONbits 0FF2          __end_of_month_days 30D4           ??_get16bitTMR0val 0006  
                  intlevel1 0000                    intlevel2 0000                   sprintf@ap 0041  
              _DAC1CON0bits 0EC6                _DAC1CON1bits 0EC7            ___lwmod@dividend 0004  
                _DST_adjust 3B72                    sinf@sign 00B4                 ??_vfpfcnvrt 0028  
           DST_adjust@month 0004                    sprintf@f 0042                    sprintf@s 0034  
           ___lwmod@divisor 0006             ___lwmod@counter 0008              DST_adjust@hour 0006  
             ___fladd@signs 0041                ___fladd@aexp 0042                ___fladd@bexp 0043  
              ___cosdf$2463 0071                ___cosdf$2464 0075                ___cosdf$2465 0079  
