

Microchip MPLAB XC8 Assembler V2.45 build 20230818022343 
                                                                                               Sat Nov 04 16:22:03 2023

Microchip MPLAB XC8 C Compiler v2.45 (Free license) build 20230818022343 Og1 
     1                           	processor	18F67K40
     2                           	fnconf	rparam,??,?,0
     3                           	pagewidth 120
     4                           	opt	flic
     5                           	psect	idataCOMRAM,global,class=CODE,delta=1,noexec
     6                           	psect	smallconst,global,reloc=2,class=SMALLCONST,delta=1,noexec
     7                           	psect	cinit,global,reloc=2,class=CODE,delta=1
     8                           	psect	bssCOMRAM,global,class=COMRAM,space=1,delta=1,lowdata,noexec
     9                           	psect	dataCOMRAM,global,class=COMRAM,space=1,delta=1,lowdata,noexec
    10                           	psect	bssBANK0,global,class=BANK0,space=1,delta=1,lowdata,noexec
    11                           	psect	cstackBANK0,global,class=BANK0,space=1,delta=1,lowdata,noexec
    12                           	psect	cstackCOMRAM,global,class=COMRAM,space=1,delta=1,lowdata,noexec
    13                           	psect	text0,global,reloc=2,class=CODE,delta=1
    14                           	psect	text1,global,reloc=2,class=CODE,delta=1
    15                           	psect	text2,global,reloc=2,class=CODE,delta=1,group=3
    16                           	psect	text3,global,reloc=2,class=CODE,delta=1,group=1
    17                           	psect	text4,global,reloc=2,class=CODE,delta=1,group=1
    18                           	psect	text5,global,reloc=2,class=CODE,delta=1,group=1
    19                           	psect	text6,global,reloc=2,class=CODE,delta=1,group=1
    20                           	psect	text7,global,reloc=2,class=CODE,delta=1,group=1
    21                           	psect	text8,global,reloc=2,class=CODE,delta=1,group=3
    22                           	psect	text9,global,reloc=2,class=CODE,delta=1,group=3
    23                           	psect	text10,global,reloc=2,class=CODE,delta=1,group=3
    24                           	psect	text11,global,reloc=2,class=CODE,delta=1,group=3
    25                           	psect	text12,global,reloc=2,class=CODE,delta=1,group=2
    26                           	psect	text13,global,reloc=2,class=CODE,delta=1,group=2
    27                           	psect	text14,global,reloc=2,class=CODE,delta=1
    28                           	psect	text15,global,reloc=2,class=CODE,delta=1
    29                           	psect	text16,global,reloc=2,class=CODE,delta=1
    30                           	psect	text17,global,reloc=2,class=CODE,delta=1,group=2
    31                           	psect	text18,global,reloc=2,class=CODE,delta=1
    32                           	psect	text19,global,reloc=2,class=CODE,delta=1
    33                           	psect	text20,global,reloc=2,class=CODE,delta=1
    34                           	psect	text21,global,reloc=2,class=CODE,delta=1
    35                           	psect	text22,global,reloc=2,class=CODE,delta=1
    36                           	psect	text23,global,reloc=2,class=CODE,delta=1
    37                           	psect	text24,global,reloc=2,class=CODE,delta=1
    38                           	psect	text25,global,reloc=2,class=CODE,delta=1
    39                           	psect	text26,global,reloc=2,class=CODE,delta=1
    40                           	psect	text27,global,reloc=2,class=CODE,delta=1
    41                           	psect	text28,global,reloc=2,class=CODE,delta=1
    42                           	psect	text29,global,reloc=2,class=CODE,delta=1
    43                           	psect	text30,global,reloc=2,class=CODE,delta=1
    44                           	psect	text31,global,reloc=2,class=CODE,delta=1
    45                           	psect	text32,global,reloc=2,class=CODE,delta=1
    46                           	psect	text33,global,reloc=2,class=CODE,delta=1,group=2
    47                           	psect	text34,global,reloc=2,class=CODE,delta=1,group=2
    48                           	psect	intcodelo,global,reloc=2,class=CODE,delta=1
    49                           	psect	intcode,global,reloc=2,class=CODE,delta=1
    50                           	psect	intcode_body,global,reloc=2,class=CODE,delta=1
    51                           	psect	intsave_regs,global,class=BIGRAM,space=1,delta=1,noexec
    52                           	psect	rparam,global,class=COMRAM,space=1,delta=1,noexec
    53                           	psect	temp,global,ovrld,common,class=COMRAM,space=1,delta=1
    54                           	psect	config,global,abs,ovrld,class=CONFIG,space=4,delta=1,noexec
    55   000000                     
    56                           ; Generated 21/07/2023 GMT
    57                           ; 
    58                           ; Copyright © 2023, Microchip Technology Inc. and its subsidiaries ("Microchip")
    59                           ; All rights reserved.
    60                           ; 
    61                           ; This software is developed by Microchip Technology Inc. and its subsidiaries ("Microch
      +                          ip").
    62                           ; 
    63                           ; Redistribution and use in source and binary forms, with or without modification, are
    64                           ; permitted provided that the following conditions are met:
    65                           ; 
    66                           ;     1. Redistributions of source code must retain the above copyright notice, this lis
      +                          t of
    67                           ;        conditions and the following disclaimer.
    68                           ; 
    69                           ;     2. Redistributions in binary form must reproduce the above copyright notice, this 
      +                          list
    70                           ;        of conditions and the following disclaimer in the documentation and/or other
    71                           ;        materials provided with the distribution. Publication is not required when
    72                           ;        this file is used in an embedded application.
    73                           ; 
    74                           ;     3. Microchip's name may not be used to endorse or promote products derived from th
      +                          is
    75                           ;        software without specific prior written permission.
    76                           ; 
    77                           ; THIS SOFTWARE IS PROVIDED BY MICROCHIP "AS IS" AND ANY EXPRESS OR IMPLIED WARRANTIES,
    78                           ; INCLUDING, BUT NOT LIMITED TO, THE IMPLIED WARRANTIES OF MERCHANTABILITY AND FITNESS F
      +                          OR
    79                           ; PURPOSE ARE DISCLAIMED.  IN NO EVENT SHALL MICROCHIP BE LIABLE FOR ANY DIRECT, INDIREC
      +                          T,
    80                           ; INCIDENTAL, SPECIAL, EXEMPLARY, OR CONSEQUENTIAL DAMAGES (INCLUDING BUT NOT LIMITED TO
    81                           ; PROCUREMENT OF SUBSTITUTE GOODS OR SERVICES; LOSS OF USE, DATA OR PROFITS; OR BUSINESS
    82                           ; INTERRUPTION) HOWSOEVER CAUSED AND ON ANY THEORY OF LIABILITY, WHETHER IN CONTRACT, ST
      +                          RICT
    83                           ; LIABILITY, OR TORT (INCLUDING NEGLIGENCE OR OTHERWISE) ARISING IN ANY WAY OUT OF THE U
      +                          SE OF
    84                           ; THIS SOFTWARE, EVEN IF ADVISED OF THE POSSIBILITY OF SUCH DAMAGE.
    85                           ; 
    86                           ; 
    87                           ; Code-generator required, PIC18F67K40 Definitions
    88                           ; 
    89                           ; SFR Addresses
    90   000000                     
    91                           	psect	idataCOMRAM
    92   001FEE                     __pidataCOMRAM:
    93                           	callstack 0
    94                           
    95                           ;initializer for _year
    96   001FEE  07E8               	dw	2024
    97                           
    98                           ;initializer for _month
    99   001FF0  0003               	dw	3
   100                           
   101                           ;initializer for _weekday
   102   001FF2  0006               	dw	6
   103                           
   104                           ;initializer for _day
   105   001FF4  001E               	dw	30
   106                           
   107                           ;initializer for _hour
   108   001FF6  0010               	dw	16
   109   000000                     _T0CON0bits	set	4053
   110   000000                     _T0CON1bits	set	4054
   111   000000                     _TRISDbits	set	3972
   112   000000                     _LATHbits	set	3968
   113   000000                     _LATDbits	set	3964
   114   000000                     _CM1CON1bits	set	3793
   115   000000                     _LATFbits	set	3966
   116   000000                     _LATGbits	set	3967
   117   000000                     _TRISFbits	set	3974
   118   000000                     _TRISGbits	set	3975
   119   000000                     _TRISEbits	set	3973
   120   000000                     _TRISBbits	set	3970
   121   000000                     _TRISCbits	set	3971
   122   000000                     _LATEbits	set	3965
   123   000000                     _IPR0bits	set	3615
   124   000000                     _IPR2bits	set	3617
   125   000000                     _PIE0bits	set	3625
   126   000000                     _ANSELAbits	set	3730
   127   000000                     _TRISAbits	set	3969
   128   000000                     _ANSELBbits	set	3738
   129   000000                     _ANSELFbits	set	3764
   130   000000                     _ANSELGbits	set	3772
   131   000000                     _ADREFbits	set	3928
   132   000000                     _ADPCH	set	3935
   133   000000                     _ADRESH	set	3940
   134   000000                     _ADCON0bits	set	3936
   135   000000                     _LATAbits	set	3961
   136   000000                     _LATBbits	set	3962
   137   000000                     _LATCbits	set	3963
   138   000000                     _TRISHbits	set	3976
   139   000000                     _TMR0L	set	4051
   140   000000                     _TMR0H	set	4052
   141   000000                     _INTCONbits	set	4082
   142   000000                     _DAC1CON0bits	set	3782
   143   000000                     _CM1CON0bits	set	3792
   144   000000                     _CM1NCHbits	set	3794
   145   000000                     _DAC1CON1bits	set	3783
   146   000000                     _CM1PCHbits	set	3795
   147   000000                     _PIE2bits	set	3627
   148   000000                     _PIR0bits	set	3635
   149   000000                     _PIR2bits	set	3637
   150                           
   151                           	psect	smallconst
   152   000E00                     __psmallconst:
   153                           	callstack 0
   154   000E00  00                 	db	0
   155   000E01                     STR_2:
   156                           
   157                           ; BSR set to: 14
   158   000E01  25                 	db	37
   159   000E02  30                 	db	48	;'0'
   160   000E03  32                 	db	50	;'2'
   161   000E04  64                 	db	100	;'d'
   162   000E05  20                 	db	32
   163   000E06  25                 	db	37
   164   000E07  30                 	db	48	;'0'
   165   000E08  32                 	db	50	;'2'
   166   000E09  64                 	db	100	;'d'
   167   000E0A  20                 	db	32
   168   000E0B  25                 	db	37
   169   000E0C  30                 	db	48	;'0'
   170   000E0D  32                 	db	50	;'2'
   171   000E0E  64                 	db	100	;'d'
   172   000E0F  20                 	db	32
   173   000E10  25                 	db	37
   174   000E11  30                 	db	48	;'0'
   175   000E12  32                 	db	50	;'2'
   176   000E13  64                 	db	100	;'d'
   177   000E14  20                 	db	32
   178   000E15  25                 	db	37
   179   000E16  30                 	db	48	;'0'
   180   000E17  34                 	db	52	;'4'
   181   000E18  64                 	db	100	;'d'
   182   000E19  00                 	db	0
   183   000E1A                     
   184                           ; BSR set to: 14
   185   000E1A  25                 	db	37
   186   000E1B  64                 	db	100	;'d'
   187   000E1C  2E                 	db	46
   188   000E1D  25                 	db	37
   189   000E1E  30                 	db	48	;'0'
   190   000E1F  32                 	db	50	;'2'
   191   000E20  64                 	db	100	;'d'
   192   000E21  00                 	db	0
   193   000E22                     STR_3:
   194                           
   195                           ; BSR set to: 14
   196   000E22  25                 	db	37
   197   000E23  30                 	db	48	;'0'
   198   000E24  33                 	db	51	;'3'
   199   000E25  64                 	db	100	;'d'
   200   000E26  00                 	db	0
   201   000E27  00                 	db	0	; dummy byte at the end
   202   000000                     
   203                           ; #config settings
   204                           
   205                           	psect	cinit
   206   001D58                     __pcinit:
   207                           	callstack 0
   208   001D58                     start_initialization:
   209                           	callstack 0
   210   001D58                     __initialization:
   211                           	callstack 0
   212                           
   213                           ; Initialize objects allocated to COMRAM (10 bytes)
   214                           ; load TBLPTR registers with __pidataCOMRAM
   215   001D58  0EEE               	movlw	low __pidataCOMRAM
   216   001D5A  6EF6               	movwf	tblptrl,c
   217   001D5C  0E1F               	movlw	high __pidataCOMRAM
   218   001D5E  6EF7               	movwf	tblptrh,c
   219   001D60  0E00               	movlw	low (__pidataCOMRAM shr (0+16))
   220   001D62  6EF8               	movwf	tblptru,c
   221   001D64  EE00  F04C         	lfsr	0,__pdataCOMRAM
   222   001D68  EE10 F00A          	lfsr	1,10
   223   001D6C                     copy_data0:
   224   001D6C  0009               	tblrd		*+
   225   001D6E  CFF5 FFEE          	movff	tablat,postinc0
   226   001D72  50E5               	movf	postdec1,w,c
   227   001D74  50E1               	movf	fsr1l,w,c
   228   001D76  E1FA               	bnz	copy_data0
   229                           
   230                           ; Clear objects allocated to BANK0 (44 bytes)
   231   001D78  EE00  F060         	lfsr	0,__pbssBANK0
   232   001D7C  0E2C               	movlw	44
   233   001D7E                     clear_0:
   234   001D7E  6AEE               	clrf	postinc0,c
   235   001D80  06E8               	decf	wreg,f,c
   236   001D82  E1FD               	bnz	clear_0
   237                           
   238                           ; Clear objects allocated to COMRAM (5 bytes)
   239   001D84  6A5A               	clrf	(__pbssCOMRAM+4)& (0+255),c
   240   001D86  6A59               	clrf	(__pbssCOMRAM+3)& (0+255),c
   241   001D88  6A58               	clrf	(__pbssCOMRAM+2)& (0+255),c
   242   001D8A  6A57               	clrf	(__pbssCOMRAM+1)& (0+255),c
   243   001D8C  6A56               	clrf	__pbssCOMRAM& (0+255),c
   244   001D8E                     end_of_initialization:
   245                           	callstack 0
   246   001D8E                     __end_of__initialization:
   247                           	callstack 0
   248   001D8E  905B               	bcf	int$flags,0,c	;clear compiler interrupt flag (level 1)
   249   001D90  925B               	bcf	int$flags,1,c	;clear compiler interrupt flag (level 2)
   250   001D92  0100               	movlb	0
   251   001D94  EF27  F00E         	goto	_main	;jump to C main() function
   252                           
   253                           	psect	bssCOMRAM
   254   000056                     __pbssCOMRAM:
   255                           	callstack 0
   256   000056                     _width:
   257                           	callstack 0
   258   000056                     	ds	2
   259   000058                     _minute:
   260                           	callstack 0
   261   000058                     	ds	2
   262   00005A                     _flags:
   263                           	callstack 0
   264   00005A                     	ds	1
   265                           
   266                           	psect	dataCOMRAM
   267   00004C                     __pdataCOMRAM:
   268                           	callstack 0
   269   00004C                     _year:
   270                           	callstack 0
   271   00004C                     	ds	2
   272   00004E                     _month:
   273                           	callstack 0
   274   00004E                     	ds	2
   275   000050                     _weekday:
   276                           	callstack 0
   277   000050                     	ds	2
   278   000052                     _day:
   279                           	callstack 0
   280   000052                     	ds	2
   281   000054                     _hour:
   282                           	callstack 0
   283   000054                     	ds	2
   284                           
   285                           	psect	bssBANK0
   286   000060                     __pbssBANK0:
   287                           	callstack 0
   288   000060                     _prec:
   289                           	callstack 0
   290   000060                     	ds	2
   291   000062                     _dbuf:
   292                           	callstack 0
   293   000062                     	ds	32
   294   000082                     _timeString:
   295                           	callstack 0
   296   000082                     	ds	10
   297                           
   298                           	psect	cstackBANK0
   299   00008C                     __pcstackBANK0:
   300                           	callstack 0
   301   00008C                     main@lightString:
   302                           	callstack 0
   303                           
   304                           ; 4 bytes @ 0x0
   305   00008C                     	ds	4
   306                           
   307                           	psect	cstackCOMRAM
   308   000001                     __pcstackCOMRAM:
   309                           	callstack 0
   310   000001                     ??_LowISR:
   311   000001                     
   312                           ; 1 bytes @ 0x0
   313   000001                     	ds	3
   314   000004                     ?_DST_adjust:
   315                           	callstack 0
   316   000004                     ?_get16bitTMR0val:
   317                           	callstack 0
   318   000004                     ?___awdiv:
   319                           	callstack 0
   320   000004                     ?___awmod:
   321                           	callstack 0
   322   000004                     ?___lwmod:
   323                           	callstack 0
   324   000004                     LCD_sendnibble@number:
   325                           	callstack 0
   326   000004                     LEDarray_disp_bin@number:
   327                           	callstack 0
   328   000004                     DST_adjust@month:
   329                           	callstack 0
   330   000004                     ___awdiv@dividend:
   331                           	callstack 0
   332   000004                     ___awmod@dividend:
   333                           	callstack 0
   334   000004                     ___lwmod@dividend:
   335                           	callstack 0
   336   000004                     fputc@c:
   337                           	callstack 0
   338                           
   339                           ; 2 bytes @ 0x3
   340   000004                     	ds	1
   341   000005                     LCD_sendbyte@type:
   342                           	callstack 0
   343                           
   344                           ; 1 bytes @ 0x4
   345   000005                     	ds	1
   346   000006                     LCD_sendbyte@Byte:
   347                           	callstack 0
   348   000006                     fputc@fp:
   349                           	callstack 0
   350   000006                     DST_adjust@hour:
   351                           	callstack 0
   352   000006                     get16bitTMR0val@time:
   353                           	callstack 0
   354   000006                     ___awdiv@divisor:
   355                           	callstack 0
   356   000006                     ___awmod@divisor:
   357                           	callstack 0
   358   000006                     ___lwmod@divisor:
   359                           	callstack 0
   360                           
   361                           ; 2 bytes @ 0x5
   362   000006                     	ds	1
   363   000007                     ??_fputc:
   364   000007                     ??_LCD_Init:
   365   000007                     LCD_setline@line:
   366                           	callstack 0
   367   000007                     LCD_sendstring@string:
   368                           	callstack 0
   369                           
   370                           ; 1 bytes @ 0x6
   371   000007                     	ds	1
   372   000008                     ?___wmul:
   373                           	callstack 0
   374   000008                     ___awdiv@counter:
   375                           	callstack 0
   376   000008                     ___awmod@counter:
   377                           	callstack 0
   378   000008                     ___lwmod@counter:
   379                           	callstack 0
   380   000008                     ___wmul@multiplier:
   381                           	callstack 0
   382                           
   383                           ; 2 bytes @ 0x7
   384   000008                     	ds	1
   385   000009                     ?_month_days:
   386                           	callstack 0
   387   000009                     ___awdiv@sign:
   388                           	callstack 0
   389   000009                     ___awmod@sign:
   390                           	callstack 0
   391   000009                     month_days@month:
   392                           	callstack 0
   393   000009                     LEDarray_control@temp:
   394                           	callstack 0
   395                           
   396                           ; 2 bytes @ 0x8
   397   000009                     	ds	1
   398   00000A                     ?_abs:
   399                           	callstack 0
   400   00000A                     ___wmul@multiplicand:
   401                           	callstack 0
   402   00000A                     ___awdiv@quotient:
   403                           	callstack 0
   404   00000A                     abs@a:
   405                           	callstack 0
   406                           
   407                           ; 2 bytes @ 0x9
   408   00000A                     	ds	1
   409   00000B                     month_days@year:
   410                           	callstack 0
   411                           
   412                           ; 2 bytes @ 0xA
   413   00000B                     	ds	1
   414   00000C                     ??_abs:
   415   00000C                     fputs@s:
   416                           	callstack 0
   417   00000C                     ___wmul@product:
   418                           	callstack 0
   419                           
   420                           ; 2 bytes @ 0xB
   421   00000C                     	ds	1
   422   00000D                     ??_month_days:
   423   00000D                     fputs@fp:
   424                           	callstack 0
   425                           
   426                           ; 1 bytes @ 0xC
   427   00000D                     	ds	1
   428   00000E                     ?___lwdiv:
   429                           	callstack 0
   430   00000E                     ?_read_prec_or_width:
   431                           	callstack 0
   432   00000E                     read_prec_or_width@fmt:
   433                           	callstack 0
   434   00000E                     fputs@c:
   435                           	callstack 0
   436   00000E                     ___lwdiv@dividend:
   437                           	callstack 0
   438                           
   439                           ; 2 bytes @ 0xD
   440   00000E                     	ds	1
   441   00000F                     read_prec_or_width@ap:
   442                           	callstack 0
   443   00000F                     month_days@monthDays:
   444                           	callstack 0
   445   00000F                     fputs@i:
   446                           	callstack 0
   447                           
   448                           ; 2 bytes @ 0xE
   449   00000F                     	ds	1
   450   000010                     read_prec_or_width@c:
   451                           	callstack 0
   452   000010                     ___lwdiv@divisor:
   453                           	callstack 0
   454                           
   455                           ; 2 bytes @ 0xF
   456   000010                     	ds	1
   457   000011                     pad@fp:
   458                           	callstack 0
   459   000011                     read_prec_or_width@n:
   460                           	callstack 0
   461                           
   462                           ; 2 bytes @ 0x10
   463   000011                     	ds	1
   464   000012                     ___lwdiv@counter:
   465                           	callstack 0
   466   000012                     pad@buf:
   467                           	callstack 0
   468                           
   469                           ; 1 bytes @ 0x11
   470   000012                     	ds	1
   471   000013                     ___lwdiv@quotient:
   472                           	callstack 0
   473   000013                     pad@p:
   474                           	callstack 0
   475                           
   476                           ; 2 bytes @ 0x12
   477   000013                     	ds	2
   478   000015                     ??_pad:
   479   000015                     ?_ADC_getval:
   480                           	callstack 0
   481                           
   482                           ; 2 bytes @ 0x14
   483   000015                     	ds	1
   484   000016                     pad@i:
   485                           	callstack 0
   486                           
   487                           ; 2 bytes @ 0x15
   488   000016                     	ds	1
   489   000017                     ADC_getval@tmpval:
   490                           	callstack 0
   491                           
   492                           ; 2 bytes @ 0x16
   493   000017                     	ds	1
   494   000018                     dtoa@fp:
   495                           	callstack 0
   496                           
   497                           ; 1 bytes @ 0x17
   498   000018                     	ds	1
   499   000019                     dtoa@d:
   500                           	callstack 0
   501                           
   502                           ; 2 bytes @ 0x18
   503   000019                     	ds	2
   504   00001B                     _dtoa$2117:
   505                           	callstack 0
   506                           
   507                           ; 2 bytes @ 0x1A
   508   00001B                     	ds	2
   509   00001D                     dtoa@p:
   510                           	callstack 0
   511                           
   512                           ; 1 bytes @ 0x1C
   513   00001D                     	ds	1
   514   00001E                     dtoa@w:
   515                           	callstack 0
   516                           
   517                           ; 2 bytes @ 0x1D
   518   00001E                     	ds	2
   519   000020                     dtoa@s:
   520                           	callstack 0
   521                           
   522                           ; 1 bytes @ 0x1F
   523   000020                     	ds	1
   524   000021                     dtoa@i:
   525                           	callstack 0
   526                           
   527                           ; 2 bytes @ 0x20
   528   000021                     	ds	2
   529   000023                     vfpfcnvrt@fp:
   530                           	callstack 0
   531                           
   532                           ; 1 bytes @ 0x22
   533   000023                     	ds	1
   534   000024                     vfpfcnvrt@fmt:
   535                           	callstack 0
   536                           
   537                           ; 1 bytes @ 0x23
   538   000024                     	ds	1
   539   000025                     vfpfcnvrt@ap:
   540                           	callstack 0
   541                           
   542                           ; 1 bytes @ 0x24
   543   000025                     	ds	1
   544   000026                     ??_vfpfcnvrt:
   545                           
   546                           ; 1 bytes @ 0x25
   547   000026                     	ds	2
   548   000028                     vfpfcnvrt@convarg:
   549                           	callstack 0
   550                           
   551                           ; 4 bytes @ 0x27
   552   000028                     	ds	4
   553   00002C                     vfpfcnvrt@done:
   554                           	callstack 0
   555                           
   556                           ; 1 bytes @ 0x2B
   557   00002C                     	ds	1
   558   00002D                     vfpfcnvrt@cp:
   559                           	callstack 0
   560                           
   561                           ; 1 bytes @ 0x2C
   562   00002D                     	ds	1
   563   00002E                     ?_vfprintf:
   564                           	callstack 0
   565   00002E                     vfprintf@fp:
   566                           	callstack 0
   567                           
   568                           ; 1 bytes @ 0x2D
   569   00002E                     	ds	1
   570   00002F                     vfprintf@fmt:
   571                           	callstack 0
   572                           
   573                           ; 1 bytes @ 0x2E
   574   00002F                     	ds	1
   575   000030                     vfprintf@ap:
   576                           	callstack 0
   577                           
   578                           ; 1 bytes @ 0x2F
   579   000030                     	ds	1
   580   000031                     vfprintf@cfmt:
   581                           	callstack 0
   582                           
   583                           ; 1 bytes @ 0x30
   584   000031                     	ds	1
   585   000032                     ?_sprintf:
   586                           	callstack 0
   587   000032                     sprintf@s:
   588                           	callstack 0
   589                           
   590                           ; 1 bytes @ 0x31
   591   000032                     	ds	1
   592   000033                     sprintf@fmt:
   593                           	callstack 0
   594                           
   595                           ; 1 bytes @ 0x32
   596   000033                     	ds	11
   597   00003E                     sprintf@ap:
   598                           	callstack 0
   599                           
   600                           ; 1 bytes @ 0x3D
   601   00003E                     	ds	1
   602   00003F                     sprintf@f:
   603                           	callstack 0
   604                           
   605                           ; 12 bytes @ 0x3E
   606   00003F                     	ds	12
   607   00004B                     ??_main:
   608                           
   609                           ; 1 bytes @ 0x4A
   610   00004B                     	ds	1
   611                           
   612 ;;
   613 ;;Main: autosize = 0, tempsize = 1, incstack = 0, save=0
   614 ;;
   615 ;; *************** function _main *****************
   616 ;; Defined at:
   617 ;;		line 20 in file "main.c"
   618 ;; Parameters:    Size  Location     Type
   619 ;;		None
   620 ;; Auto vars:     Size  Location     Type
   621 ;;  lightString     4    0[BANK0 ] unsigned char [4]
   622 ;; Return value:  Size  Location     Type
   623 ;;                  1    wreg      void 
   624 ;; Registers used:
   625 ;;		wreg, fsr1l, fsr1h, fsr2l, fsr2h, status,2, status,0, tblptrl, tblptrh, tblptru, prodl, prodh, cstack
   626 ;; Tracked objects:
   627 ;;		On entry : 0/0
   628 ;;		On exit  : 0/0
   629 ;;		Unchanged: 0/0
   630 ;; Data sizes:     COMRAM   BANK0   BANK1   BANK2   BANK3   BANK4   BANK5   BANK6   BANK7   BANK8   BANK9  BANK10  BANK1
      +1  BANK12  BANK13
   631 ;;      Params:         0       0       0       0       0       0       0       0       0       0       0       0       
      +0       0       0
   632 ;;      Locals:         0       4       0       0       0       0       0       0       0       0       0       0       
      +0       0       0
   633 ;;      Temps:          1       0       0       0       0       0       0       0       0       0       0       0       
      +0       0       0
   634 ;;      Totals:         1       4       0       0       0       0       0       0       0       0       0       0       
      +0       0       0
   635 ;;Total ram usage:        5 bytes
   636 ;; Hardware stack levels required when called: 11
   637 ;; This function calls:
   638 ;;		_ADC_getval
   639 ;;		_ADC_init
   640 ;;		_Comp1_init
   641 ;;		_Interrupts_init
   642 ;;		_LCD_Init
   643 ;;		_LCD_sendstring
   644 ;;		_LCD_setline
   645 ;;		_LEDarray_init
   646 ;;		_Timer0_init
   647 ;;		_disp_time
   648 ;;		_sprintf
   649 ;; This function is called by:
   650 ;;		Startup code after reset
   651 ;; This function uses a non-reentrant model
   652 ;;
   653                           
   654                           	psect	text0
   655   001C4E                     __ptext0:
   656                           	callstack 0
   657   001C4E                     _main:
   658                           	callstack 20
   659   001C4E                     
   660                           ;main.c: 22:     LCD_Init();
   661   001C4E  EC55  F00A         	call	_LCD_Init	;wreg free
   662   001C52                     
   663                           ;main.c: 23:     Comp1_init();
   664   001C52  EC85  F00F         	call	_Comp1_init	;wreg free
   665   001C56                     
   666                           ;main.c: 24:  ADC_init();
   667   001C56  ECBB  F00F         	call	_ADC_init	;wreg free
   668   001C5A                     
   669                           ;main.c: 25:     Timer0_init();
   670   001C5A  ECAB  F00F         	call	_Timer0_init	;wreg free
   671   001C5E                     
   672                           ;main.c: 26:     LEDarray_init();
   673   001C5E  EC07  F00F         	call	_LEDarray_init	;wreg free
   674   001C62                     
   675                           ;main.c: 27:     Interrupts_init();
   676   001C62  ECE7  F00F         	call	_Interrupts_init	;wreg free
   677   001C66                     
   678                           ;main.c: 30:     char lightString[4];;main.c: 32:     LATHbits.LATH3=0;
   679   001C66  9680               	bcf	128,3,c	;volatile
   680   001C68                     
   681                           ;main.c: 33:     TRISHbits.TRISH3=0;
   682   001C68  9688               	bcf	136,3,c	;volatile
   683   001C6A                     
   684                           ;main.c: 35:     LATDbits.LATD7=0;
   685   001C6A  9E7C               	bcf	124,7,c	;volatile
   686   001C6C                     
   687                           ;main.c: 36:     TRISDbits.TRISD7=0;
   688   001C6C  9E84               	bcf	132,7,c	;volatile
   689   001C6E                     
   690                           ;main.c: 37:     LATDbits.LATD4=0;
   691   001C6E  987C               	bcf	124,4,c	;volatile
   692   001C70                     
   693                           ;main.c: 38:     TRISDbits.TRISD4=0;
   694   001C70  9884               	bcf	132,4,c	;volatile
   695   001C72                     l3167:
   696                           
   697                           ;main.c: 41:     {;main.c: 42:         LCD_setline(1);
   698   001C72  0E01               	movlw	1
   699   001C74  ECEA  F00E         	call	_LCD_setline
   700   001C78                     
   701                           ;main.c: 43:         sprintf(lightString,"%03d",ADC_getval());
   702   001C78  0E8C               	movlw	low main@lightString
   703   001C7A  6E32               	movwf	sprintf@s^0,c
   704   001C7C  0E22               	movlw	low STR_3
   705   001C7E  6E33               	movwf	sprintf@fmt^0,c
   706   001C80  EC7A  F00D         	call	_ADC_getval	;wreg free
   707   001C84  C015  F034         	movff	?_ADC_getval,?_sprintf+2
   708   001C88  C016  F035         	movff	?_ADC_getval+1,?_sprintf+3
   709   001C8C  EC24  F00F         	call	_sprintf	;wreg free
   710   001C90                     
   711                           ;main.c: 44:         LCD_sendstring(lightString);
   712   001C90  0E8C               	movlw	low main@lightString
   713   001C92  6E07               	movwf	LCD_sendstring@string^0,c
   714   001C94  EC58  F00F         	call	_LCD_sendstring	;wreg free
   715   001C98                     
   716                           ;main.c: 46:         disp_time();
   717   001C98  EC14  F007         	call	_disp_time	;wreg free
   718   001C9C                     
   719                           ;main.c: 48:         _delay((unsigned long)((10)*(64000000/4000.0)));
   720   001C9C  0ED0               	movlw	208
   721   001C9E  6E4B               	movwf	??_main^0,c
   722   001CA0  0ECA               	movlw	202
   723   001CA2                     u3217:
   724   001CA2  2EE8               	decfsz	wreg,f,c
   725   001CA4  D7FE               	bra	u3217
   726   001CA6  2E4B               	decfsz	??_main^0,f,c
   727   001CA8  D7FC               	bra	u3217
   728   001CAA  EF39  F00E         	goto	l3167
   729   001CAE  EF29  F000         	goto	start
   730   001CB2                     __end_of_main:
   731                           	callstack 0
   732                           
   733 ;; *************** function _disp_time *****************
   734 ;; Defined at:
   735 ;;		line 39 in file "datetime.c"
   736 ;; Parameters:    Size  Location     Type
   737 ;;		None
   738 ;; Auto vars:     Size  Location     Type
   739 ;;		None
   740 ;; Return value:  Size  Location     Type
   741 ;;                  1    wreg      void 
   742 ;; Registers used:
   743 ;;		wreg, fsr1l, fsr1h, fsr2l, fsr2h, status,2, status,0, tblptrl, tblptrh, tblptru, prodl, prodh, cstack
   744 ;; Tracked objects:
   745 ;;		On entry : 0/0
   746 ;;		On exit  : 0/0
   747 ;;		Unchanged: 0/0
   748 ;; Data sizes:     COMRAM   BANK0   BANK1   BANK2   BANK3   BANK4   BANK5   BANK6   BANK7   BANK8   BANK9  BANK10  BANK1
      +1  BANK12  BANK13
   749 ;;      Params:         0       0       0       0       0       0       0       0       0       0       0       0       
      +0       0       0
   750 ;;      Locals:         0       0       0       0       0       0       0       0       0       0       0       0       
      +0       0       0
   751 ;;      Temps:          0       0       0       0       0       0       0       0       0       0       0       0       
      +0       0       0
   752 ;;      Totals:         0       0       0       0       0       0       0       0       0       0       0       0       
      +0       0       0
   753 ;;Total ram usage:        0 bytes
   754 ;; Hardware stack levels used: 1
   755 ;; Hardware stack levels required when called: 10
   756 ;; This function calls:
   757 ;;		_DST_adjust
   758 ;;		_LCD_sendstring
   759 ;;		_LCD_setline
   760 ;;		_LEDarray_control
   761 ;;		_LEDarray_disp_bin
   762 ;;		___lwdiv
   763 ;;		___wmul
   764 ;;		_get16bitTMR0val
   765 ;;		_month_days
   766 ;;		_sprintf
   767 ;; This function is called by:
   768 ;;		_main
   769 ;; This function uses a non-reentrant model
   770 ;;
   771                           
   772                           	psect	text1
   773   000E28                     __ptext1:
   774                           	callstack 0
   775   000E28                     _disp_time:
   776                           	callstack 20
   777   000E28                     
   778                           ;datetime.c: 40:     if (LATDbits.LATD7)
   779   000E28  AE7C               	btfss	124,7,c	;volatile
   780   000E2A  EF19  F007         	goto	u3041
   781   000E2E  EF1B  F007         	goto	u3040
   782   000E32                     u3041:
   783   000E32  EF34  F007         	goto	l3045
   784   000E36                     u3040:
   785   000E36                     
   786                           ;datetime.c: 41:     {;datetime.c: 42:         if (hour > 12) {LEDarray_disp_bin(0b11111
      +                          1111);}
   787   000E36  5055               	movf	(_hour+1)^0,w,c
   788   000E38  E109               	bnz	u3050
   789   000E3A  0E0D               	movlw	13
   790   000E3C  5C54               	subwf	_hour^0,w,c
   791   000E3E  A0D8               	btfss	status,0,c
   792   000E40  EF24  F007         	goto	u3051
   793   000E44  EF26  F007         	goto	u3050
   794   000E48                     u3051:
   795   000E48  EF2D  F007         	goto	l3041
   796   000E4C                     u3050:
   797   000E4C  0E01               	movlw	1
   798   000E4E  6E05               	movwf	(LEDarray_disp_bin@number+1)^0,c
   799   000E50  6804               	setf	LEDarray_disp_bin@number^0,c
   800   000E52  ECD6  F00A         	call	_LEDarray_disp_bin	;wreg free
   801   000E56  EF33  F007         	goto	l3043
   802   000E5A                     l3041:
   803   000E5A  0E00               	movlw	0
   804   000E5C  6E05               	movwf	(LEDarray_disp_bin@number+1)^0,c
   805   000E5E  0E00               	movlw	0
   806   000E60  6E04               	movwf	LEDarray_disp_bin@number^0,c
   807   000E62  ECD6  F00A         	call	_LEDarray_disp_bin	;wreg free
   808   000E66                     l3043:
   809                           
   810                           ;datetime.c: 44:         LATDbits.LATD7 = 0;
   811   000E66  9E7C               	bcf	124,7,c	;volatile
   812   000E68                     l3045:
   813                           
   814                           ;datetime.c: 47:     if (LATDbits.LATD4) {hour++; LATDbits.LATD4 = 0;}
   815   000E68  A87C               	btfss	124,4,c	;volatile
   816   000E6A  EF39  F007         	goto	u3061
   817   000E6E  EF3B  F007         	goto	u3060
   818   000E72                     u3061:
   819   000E72  EF3E  F007         	goto	l3051
   820   000E76                     u3060:
   821   000E76  4A54               	infsnz	_hour^0,f,c
   822   000E78  2A55               	incf	(_hour+1)^0,f,c
   823   000E7A  987C               	bcf	124,4,c	;volatile
   824   000E7C                     l3051:
   825                           
   826                           ;datetime.c: 48:     if (hour > 23) {hour = 0; day++; weekday++;}
   827   000E7C  5055               	movf	(_hour+1)^0,w,c
   828   000E7E  E109               	bnz	u3070
   829   000E80  0E18               	movlw	24
   830   000E82  5C54               	subwf	_hour^0,w,c
   831   000E84  A0D8               	btfss	status,0,c
   832   000E86  EF47  F007         	goto	u3071
   833   000E8A  EF49  F007         	goto	u3070
   834   000E8E                     u3071:
   835   000E8E  EF51  F007         	goto	l3059
   836   000E92                     u3070:
   837   000E92  0E00               	movlw	0
   838   000E94  6E55               	movwf	(_hour+1)^0,c
   839   000E96  0E00               	movlw	0
   840   000E98  6E54               	movwf	_hour^0,c
   841   000E9A  4A52               	infsnz	_day^0,f,c
   842   000E9C  2A53               	incf	(_day+1)^0,f,c
   843   000E9E  4A50               	infsnz	_weekday^0,f,c
   844   000EA0  2A51               	incf	(_weekday+1)^0,f,c
   845   000EA2                     l3059:
   846                           
   847                           ;datetime.c: 49:     if (weekday > 7) {weekday = 1;}
   848   000EA2  5051               	movf	(_weekday+1)^0,w,c
   849   000EA4  E109               	bnz	u3080
   850   000EA6  0E08               	movlw	8
   851   000EA8  5C50               	subwf	_weekday^0,w,c
   852   000EAA  A0D8               	btfss	status,0,c
   853   000EAC  EF5A  F007         	goto	u3081
   854   000EB0  EF5C  F007         	goto	u3080
   855   000EB4                     u3081:
   856   000EB4  EF60  F007         	goto	l3063
   857   000EB8                     u3080:
   858   000EB8  0E00               	movlw	0
   859   000EBA  6E51               	movwf	(_weekday+1)^0,c
   860   000EBC  0E01               	movlw	1
   861   000EBE  6E50               	movwf	_weekday^0,c
   862   000EC0                     l3063:
   863                           
   864                           ;datetime.c: 50:     if (day > month_days(month,year)) {day = 1; month++;}
   865   000EC0  C04E  F009         	movff	_month,month_days@month
   866   000EC4  C04F  F00A         	movff	_month+1,month_days@month+1
   867   000EC8  C04C  F00B         	movff	_year,month_days@year
   868   000ECC  C04D  F00C         	movff	_year+1,month_days@year+1
   869   000ED0  EC18  F008         	call	_month_days	;wreg free
   870   000ED4  5052               	movf	_day^0,w,c
   871   000ED6  5C09               	subwf	?_month_days^0,w,c
   872   000ED8  5053               	movf	(_day+1)^0,w,c
   873   000EDA  580A               	subwfb	(?_month_days+1)^0,w,c
   874   000EDC  B0D8               	btfsc	status,0,c
   875   000EDE  EF73  F007         	goto	u3091
   876   000EE2  EF75  F007         	goto	u3090
   877   000EE6                     u3091:
   878   000EE6  EF7B  F007         	goto	l3069
   879   000EEA                     u3090:
   880   000EEA  0E00               	movlw	0
   881   000EEC  6E53               	movwf	(_day+1)^0,c
   882   000EEE  0E01               	movlw	1
   883   000EF0  6E52               	movwf	_day^0,c
   884   000EF2  4A4E               	infsnz	_month^0,f,c
   885   000EF4  2A4F               	incf	(_month+1)^0,f,c
   886   000EF6                     l3069:
   887                           
   888                           ;datetime.c: 51:     if (month > 12) {month = 1; year++;}
   889   000EF6  504F               	movf	(_month+1)^0,w,c
   890   000EF8  E109               	bnz	u3100
   891   000EFA  0E0D               	movlw	13
   892   000EFC  5C4E               	subwf	_month^0,w,c
   893   000EFE  A0D8               	btfss	status,0,c
   894   000F00  EF84  F007         	goto	u3101
   895   000F04  EF86  F007         	goto	u3100
   896   000F08                     u3101:
   897   000F08  EF8C  F007         	goto	l3075
   898   000F0C                     u3100:
   899   000F0C  0E00               	movlw	0
   900   000F0E  6E4F               	movwf	(_month+1)^0,c
   901   000F10  0E01               	movlw	1
   902   000F12  6E4E               	movwf	_month^0,c
   903   000F14  4A4C               	infsnz	_year^0,f,c
   904   000F16  2A4D               	incf	(_year+1)^0,f,c
   905   000F18                     l3075:
   906                           
   907                           ;datetime.c: 53:     if (hour == 1) {LEDarray_control();}
   908   000F18  0454               	decf	_hour^0,w,c
   909   000F1A  1055               	iorwf	(_hour+1)^0,w,c
   910   000F1C  A4D8               	btfss	status,2,c
   911   000F1E  EF93  F007         	goto	u3111
   912   000F22  EF95  F007         	goto	u3110
   913   000F26                     u3111:
   914   000F26  EF97  F007         	goto	l3079
   915   000F2A                     u3110:
   916   000F2A  ECA0  F00C         	call	_LEDarray_control	;wreg free
   917   000F2E                     l3079:
   918                           
   919                           ;datetime.c: 54:     if (hour == 5) {LEDarray_disp_bin(0b111111111);}
   920   000F2E  0E05               	movlw	5
   921   000F30  1854               	xorwf	_hour^0,w,c
   922   000F32  1055               	iorwf	(_hour+1)^0,w,c
   923   000F34  A4D8               	btfss	status,2,c
   924   000F36  EF9F  F007         	goto	u3121
   925   000F3A  EFA1  F007         	goto	u3120
   926   000F3E                     u3121:
   927   000F3E  EFA6  F007         	goto	l3083
   928   000F42                     u3120:
   929   000F42  0E01               	movlw	1
   930   000F44  6E05               	movwf	(LEDarray_disp_bin@number+1)^0,c
   931   000F46  6804               	setf	LEDarray_disp_bin@number^0,c
   932   000F48  ECD6  F00A         	call	_LEDarray_disp_bin	;wreg free
   933   000F4C                     l3083:
   934                           
   935                           ;datetime.c: 56:     if ((month == 3 || month == 10) && weekday == 7 && day > 24) {hour 
      +                          = DST_adjust(month,hour);}
   936   000F4C  0E03               	movlw	3
   937   000F4E  184E               	xorwf	_month^0,w,c
   938   000F50  104F               	iorwf	(_month+1)^0,w,c
   939   000F52  B4D8               	btfsc	status,2,c
   940   000F54  EFAE  F007         	goto	u3131
   941   000F58  EFB0  F007         	goto	u3130
   942   000F5C                     u3131:
   943   000F5C  EFBA  F007         	goto	l3087
   944   000F60                     u3130:
   945   000F60  0E0A               	movlw	10
   946   000F62  184E               	xorwf	_month^0,w,c
   947   000F64  104F               	iorwf	(_month+1)^0,w,c
   948   000F66  A4D8               	btfss	status,2,c
   949   000F68  EFB8  F007         	goto	u3141
   950   000F6C  EFBA  F007         	goto	u3140
   951   000F70                     u3141:
   952   000F70  EFDD  F007         	goto	l3093
   953   000F74                     u3140:
   954   000F74                     l3087:
   955   000F74  0E07               	movlw	7
   956   000F76  1850               	xorwf	_weekday^0,w,c
   957   000F78  1051               	iorwf	(_weekday+1)^0,w,c
   958   000F7A  A4D8               	btfss	status,2,c
   959   000F7C  EFC2  F007         	goto	u3151
   960   000F80  EFC4  F007         	goto	u3150
   961   000F84                     u3151:
   962   000F84  EFDD  F007         	goto	l3093
   963   000F88                     u3150:
   964   000F88  5053               	movf	(_day+1)^0,w,c
   965   000F8A  E109               	bnz	u3160
   966   000F8C  0E19               	movlw	25
   967   000F8E  5C52               	subwf	_day^0,w,c
   968   000F90  A0D8               	btfss	status,0,c
   969   000F92  EFCD  F007         	goto	u3161
   970   000F96  EFCF  F007         	goto	u3160
   971   000F9A                     u3161:
   972   000F9A  EFDD  F007         	goto	l3093
   973   000F9E                     u3160:
   974   000F9E  C04E  F004         	movff	_month,DST_adjust@month
   975   000FA2  C04F  F005         	movff	_month+1,DST_adjust@month+1
   976   000FA6  C054  F006         	movff	_hour,DST_adjust@hour
   977   000FAA  C055  F007         	movff	_hour+1,DST_adjust@hour+1
   978   000FAE  EC36  F00D         	call	_DST_adjust	;wreg free
   979   000FB2  C004  F054         	movff	?_DST_adjust,_hour
   980   000FB6  C005  F055         	movff	?_DST_adjust+1,_hour+1
   981   000FBA                     l3093:
   982                           
   983                           ;datetime.c: 58:     minute = (get16bitTMR0val()*60)/255;
   984   000FBA  ECDE  F00F         	call	_get16bitTMR0val	;wreg free
   985   000FBE  C004  F008         	movff	?_get16bitTMR0val,___wmul@multiplier
   986   000FC2  C005  F009         	movff	?_get16bitTMR0val+1,___wmul@multiplier+1
   987   000FC6  0E00               	movlw	0
   988   000FC8  6E0B               	movwf	(___wmul@multiplicand+1)^0,c
   989   000FCA  0E3C               	movlw	60
   990   000FCC  6E0A               	movwf	___wmul@multiplicand^0,c
   991   000FCE  EC98  F00F         	call	___wmul	;wreg free
   992   000FD2  C008  F00E         	movff	?___wmul,___lwdiv@dividend
   993   000FD6  C009  F00F         	movff	?___wmul+1,___lwdiv@dividend+1
   994   000FDA  0E00               	movlw	0
   995   000FDC  6E11               	movwf	(___lwdiv@divisor+1)^0,c
   996   000FDE  6810               	setf	___lwdiv@divisor^0,c
   997   000FE0  ECB9  F00D         	call	___lwdiv	;wreg free
   998   000FE4  C00E  F058         	movff	?___lwdiv,_minute
   999   000FE8  C00F  F059         	movff	?___lwdiv+1,_minute+1
  1000   000FEC                     
  1001                           ;datetime.c: 60:     LCD_setline(2);
  1002   000FEC  0E02               	movlw	2
  1003   000FEE  ECEA  F00E         	call	_LCD_setline
  1004   000FF2                     
  1005                           ;datetime.c: 61:     sprintf(timeString,"%02d %02d %02d %02d %04d",minute,hour,day,month
      +                          ,year);
  1006   000FF2  0E82               	movlw	low _timeString
  1007   000FF4  6E32               	movwf	sprintf@s^0,c
  1008   000FF6  0E01               	movlw	low STR_2
  1009   000FF8  6E33               	movwf	sprintf@fmt^0,c
  1010   000FFA  C058  F034         	movff	_minute,?_sprintf+2
  1011   000FFE  C059  F035         	movff	_minute+1,?_sprintf+3
  1012   001002  C054  F036         	movff	_hour,?_sprintf+4
  1013   001006  C055  F037         	movff	_hour+1,?_sprintf+5
  1014   00100A  C052  F038         	movff	_day,?_sprintf+6
  1015   00100E  C053  F039         	movff	_day+1,?_sprintf+7
  1016   001012  C04E  F03A         	movff	_month,?_sprintf+8
  1017   001016  C04F  F03B         	movff	_month+1,?_sprintf+9
  1018   00101A  C04C  F03C         	movff	_year,?_sprintf+10
  1019   00101E  C04D  F03D         	movff	_year+1,?_sprintf+11
  1020   001022  EC24  F00F         	call	_sprintf	;wreg free
  1021   001026                     
  1022                           ;datetime.c: 62:     LCD_sendstring(timeString);
  1023   001026  0E82               	movlw	low _timeString
  1024   001028  6E07               	movwf	LCD_sendstring@string^0,c
  1025   00102A  EC58  F00F         	call	_LCD_sendstring	;wreg free
  1026   00102E  0012               	return		;funcret
  1027   001030                     __end_of_disp_time:
  1028                           	callstack 0
  1029                           
  1030 ;; *************** function _sprintf *****************
  1031 ;; Defined at:
  1032 ;;		line 9 in file "C:\Program Files\Microchip\xc8\v2.45\pic\sources\c99\common\nf_sprintf.c"
  1033 ;; Parameters:    Size  Location     Type
  1034 ;;  s               1   49[COMRAM] PTR unsigned char 
  1035 ;;		 -> main@lightString(4), timeString(10), 
  1036 ;;  fmt             1   50[COMRAM] PTR const unsigned char 
  1037 ;;		 -> STR_3(5), STR_2(25), STR_1(8), 
  1038 ;; Auto vars:     Size  Location     Type
  1039 ;;  f              12   62[COMRAM] struct _IO_FILE
  1040 ;;  ret             2    0        int 
  1041 ;;  ap              1   61[COMRAM] PTR void [1]
  1042 ;;		 -> ?_sprintf(2), 
  1043 ;; Return value:  Size  Location     Type
  1044 ;;                  2   49[COMRAM] int 
  1045 ;; Registers used:
  1046 ;;		wreg, fsr1l, fsr1h, fsr2l, fsr2h, status,2, status,0, tblptrl, tblptrh, tblptru, prodl, prodh, cstack
  1047 ;; Tracked objects:
  1048 ;;		On entry : 0/0
  1049 ;;		On exit  : 0/0
  1050 ;;		Unchanged: 0/0
  1051 ;; Data sizes:     COMRAM   BANK0   BANK1   BANK2   BANK3   BANK4   BANK5   BANK6   BANK7   BANK8   BANK9  BANK10  BANK1
      +1  BANK12  BANK13
  1052 ;;      Params:        12       0       0       0       0       0       0       0       0       0       0       0       
      +0       0       0
  1053 ;;      Locals:        13       0       0       0       0       0       0       0       0       0       0       0       
      +0       0       0
  1054 ;;      Temps:          0       0       0       0       0       0       0       0       0       0       0       0       
      +0       0       0
  1055 ;;      Totals:        25       0       0       0       0       0       0       0       0       0       0       0       
      +0       0       0
  1056 ;;Total ram usage:       25 bytes
  1057 ;; Hardware stack levels used: 1
  1058 ;; Hardware stack levels required when called: 9
  1059 ;; This function calls:
  1060 ;;		_vfprintf
  1061 ;; This function is called by:
  1062 ;;		_disp_time
  1063 ;;		_main
  1064 ;;		_ADC2String
  1065 ;; This function uses a non-reentrant model
  1066 ;;
  1067                           
  1068                           	psect	text2
  1069   001E48                     __ptext2:
  1070                           	callstack 0
  1071   001E48                     _sprintf:
  1072                           	callstack 21
  1073   001E48  0E34               	movlw	low (?_sprintf+2)
  1074   001E4A  6E3E               	movwf	sprintf@ap^0,c
  1075   001E4C  C032  F03F         	movff	sprintf@s,sprintf@f
  1076   001E50  0E00               	movlw	0
  1077   001E52  6E43               	movwf	(sprintf@f+4)^0,c
  1078   001E54  0E00               	movlw	0
  1079   001E56  6E42               	movwf	(sprintf@f+3)^0,c
  1080   001E58  0E00               	movlw	0
  1081   001E5A  6E4A               	movwf	(sprintf@f+11)^0,c
  1082   001E5C  0E00               	movlw	0
  1083   001E5E  6E49               	movwf	(sprintf@f+10)^0,c
  1084   001E60  0E3F               	movlw	low sprintf@f
  1085   001E62  6E2E               	movwf	vfprintf@fp^0,c
  1086   001E64  C033  F02F         	movff	sprintf@fmt,vfprintf@fmt
  1087   001E68  0E3E               	movlw	low sprintf@ap
  1088   001E6A  6E30               	movwf	vfprintf@ap^0,c
  1089   001E6C  EC8B  F00E         	call	_vfprintf	;wreg free
  1090   001E70  5032               	movf	sprintf@s^0,w,c
  1091   001E72  2442               	addwf	(sprintf@f+3)^0,w,c
  1092   001E74  6ED9               	movwf	fsr2l,c
  1093   001E76  6ADA               	clrf	fsr2h,c
  1094   001E78  6ADF               	clrf	indf2,c
  1095   001E7A  0012               	return		;funcret
  1096   001E7C                     __end_of_sprintf:
  1097                           	callstack 0
  1098                           
  1099 ;; *************** function _vfprintf *****************
  1100 ;; Defined at:
  1101 ;;		line 1817 in file "C:\Program Files\Microchip\xc8\v2.45\pic\sources\c99\common\doprnt.c"
  1102 ;; Parameters:    Size  Location     Type
  1103 ;;  fp              1   45[COMRAM] PTR struct _IO_FILE
  1104 ;;		 -> sprintf@f(12), 
  1105 ;;  fmt             1   46[COMRAM] PTR const unsigned char 
  1106 ;;		 -> STR_3(5), STR_2(25), STR_1(8), 
  1107 ;;  ap              1   47[COMRAM] PTR PTR void 
  1108 ;;		 -> sprintf@ap(1), 
  1109 ;; Auto vars:     Size  Location     Type
  1110 ;;  cfmt            1   48[COMRAM] PTR unsigned char 
  1111 ;;		 -> STR_3(5), STR_2(25), STR_1(8), 
  1112 ;; Return value:  Size  Location     Type
  1113 ;;                  2   45[COMRAM] int 
  1114 ;; Registers used:
  1115 ;;		wreg, fsr1l, fsr1h, fsr2l, fsr2h, status,2, status,0, tblptrl, tblptrh, tblptru, prodl, prodh, cstack
  1116 ;; Tracked objects:
  1117 ;;		On entry : 0/0
  1118 ;;		On exit  : 0/0
  1119 ;;		Unchanged: 0/0
  1120 ;; Data sizes:     COMRAM   BANK0   BANK1   BANK2   BANK3   BANK4   BANK5   BANK6   BANK7   BANK8   BANK9  BANK10  BANK1
      +1  BANK12  BANK13
  1121 ;;      Params:         3       0       0       0       0       0       0       0       0       0       0       0       
      +0       0       0
  1122 ;;      Locals:         1       0       0       0       0       0       0       0       0       0       0       0       
      +0       0       0
  1123 ;;      Temps:          0       0       0       0       0       0       0       0       0       0       0       0       
      +0       0       0
  1124 ;;      Totals:         4       0       0       0       0       0       0       0       0       0       0       0       
      +0       0       0
  1125 ;;Total ram usage:        4 bytes
  1126 ;; Hardware stack levels used: 1
  1127 ;; Hardware stack levels required when called: 8
  1128 ;; This function calls:
  1129 ;;		_vfpfcnvrt
  1130 ;; This function is called by:
  1131 ;;		_sprintf
  1132 ;; This function uses a non-reentrant model
  1133 ;;
  1134                           
  1135                           	psect	text3
  1136   001D16                     __ptext3:
  1137                           	callstack 0
  1138   001D16                     _vfprintf:
  1139                           	callstack 21
  1140   001D16                     
  1141                           ;C:\Program Files\Microchip\xc8\v2.45\pic\sources\c99\common\doprnt.c: 1817: int vfprint
      +                          f(FILE *fp, const char *fmt, va_list ap);C:\Program Files\Microchip\xc8\v2.45\pic\source
      +                          s\c99\common\doprnt.c: 1818: {;C:\Program Files\Microchip\xc8\v2.45\pic\sources\c99\comm
      +                          on\doprnt.c: 1820:     char *cfmt;;C:\Program Files\Microchip\xc8\v2.45\pic\sources\c99\
      +                          common\doprnt.c: 1822:     cfmt = (char *)fmt;
  1142   001D16  C02F  F031         	movff	vfprintf@fmt,vfprintf@cfmt
  1143                           
  1144                           ;C:\Program Files\Microchip\xc8\v2.45\pic\sources\c99\common\doprnt.c: 1826:     while (
      +                          *cfmt) {
  1145   001D1A  EF97  F00E         	goto	l2811
  1146   001D1E                     l2809:
  1147                           
  1148                           ;C:\Program Files\Microchip\xc8\v2.45\pic\sources\c99\common\doprnt.c: 1830:    vfpfcnvr
      +                          t(fp, &cfmt, ap);
  1149   001D1E  C02E  F023         	movff	vfprintf@fp,vfpfcnvrt@fp
  1150   001D22  0E31               	movlw	low vfprintf@cfmt
  1151   001D24  6E24               	movwf	vfpfcnvrt@fmt^0,c
  1152   001D26  C030  F025         	movff	vfprintf@ap,vfpfcnvrt@ap
  1153   001D2A  ECDF  F008         	call	_vfpfcnvrt	;wreg free
  1154   001D2E                     l2811:
  1155                           
  1156                           ;C:\Program Files\Microchip\xc8\v2.45\pic\sources\c99\common\doprnt.c: 1826:     while (
      +                          *cfmt) {
  1157   001D2E  C031  FFF6         	movff	vfprintf@cfmt,tblptrl
  1158   001D32                     	if	1	;There is more than 1 active tblptr byte
  1159   001D32  0E0E               	movlw	high __smallconst
  1160   001D34  6EF7               	movwf	tblptrh,c
  1161   001D36                     	endif
  1162   001D36                     	if	0	;tblptru may be non-zero
  1163   001D36                     	endif
  1164   001D36                     	if	1	;Program memory is > 0xFFFF, there are 3 active tblptr bytes
  1165   001D36  0E00               	movlw	low (__smallconst shr (0+16))
  1166   001D38  6EF8               	movwf	tblptru,c
  1167   001D3A                     	endif
  1168   001D3A  0008               	tblrd		*
  1169   001D3C  50F5               	movf	tablat,w,c
  1170   001D3E  0900               	iorlw	0
  1171   001D40  A4D8               	btfss	status,2,c
  1172   001D42  EFA5  F00E         	goto	u2711
  1173   001D46  EFA7  F00E         	goto	u2710
  1174   001D4A                     u2711:
  1175   001D4A  EF8F  F00E         	goto	l2809
  1176   001D4E                     u2710:
  1177   001D4E                     
  1178                           ;C:\Program Files\Microchip\xc8\v2.45\pic\sources\c99\common\doprnt.c: 1835:  return 0;
  1179   001D4E  0E00               	movlw	0
  1180   001D50  6E2F               	movwf	(?_vfprintf+1)^0,c
  1181   001D52  0E00               	movlw	0
  1182   001D54  6E2E               	movwf	?_vfprintf^0,c
  1183   001D56  0012               	return		;funcret
  1184   001D58                     __end_of_vfprintf:
  1185                           	callstack 0
  1186                           
  1187 ;; *************** function _vfpfcnvrt *****************
  1188 ;; Defined at:
  1189 ;;		line 1177 in file "C:\Program Files\Microchip\xc8\v2.45\pic\sources\c99\common\doprnt.c"
  1190 ;; Parameters:    Size  Location     Type
  1191 ;;  fp              1   34[COMRAM] PTR struct _IO_FILE
  1192 ;;		 -> sprintf@f(12), 
  1193 ;;  fmt             1   35[COMRAM] PTR PTR unsigned char 
  1194 ;;		 -> vfprintf@cfmt(1), 
  1195 ;;  ap              1   36[COMRAM] PTR PTR void 
  1196 ;;		 -> sprintf@ap(1), 
  1197 ;; Auto vars:     Size  Location     Type
  1198 ;;  convarg         4   39[COMRAM] struct .
  1199 ;;  cp              1   44[COMRAM] PTR unsigned char 
  1200 ;;		 -> STR_3(5), STR_2(25), STR_1(8), 
  1201 ;;  done            1   43[COMRAM] _Bool 
  1202 ;;  c               1    0        unsigned char 
  1203 ;; Return value:  Size  Location     Type
  1204 ;;                  1    wreg      void 
  1205 ;; Registers used:
  1206 ;;		wreg, fsr1l, fsr1h, fsr2l, fsr2h, status,2, status,0, tblptrl, tblptrh, tblptru, prodl, prodh, cstack
  1207 ;; Tracked objects:
  1208 ;;		On entry : 0/0
  1209 ;;		On exit  : 0/0
  1210 ;;		Unchanged: 0/0
  1211 ;; Data sizes:     COMRAM   BANK0   BANK1   BANK2   BANK3   BANK4   BANK5   BANK6   BANK7   BANK8   BANK9  BANK10  BANK1
      +1  BANK12  BANK13
  1212 ;;      Params:         3       0       0       0       0       0       0       0       0       0       0       0       
      +0       0       0
  1213 ;;      Locals:         6       0       0       0       0       0       0       0       0       0       0       0       
      +0       0       0
  1214 ;;      Temps:          2       0       0       0       0       0       0       0       0       0       0       0       
      +0       0       0
  1215 ;;      Totals:        11       0       0       0       0       0       0       0       0       0       0       0       
      +0       0       0
  1216 ;;Total ram usage:       11 bytes
  1217 ;; Hardware stack levels used: 1
  1218 ;; Hardware stack levels required when called: 7
  1219 ;; This function calls:
  1220 ;;		_dtoa
  1221 ;;		_fputc
  1222 ;;		_read_prec_or_width
  1223 ;; This function is called by:
  1224 ;;		_vfprintf
  1225 ;; This function uses a non-reentrant model
  1226 ;;
  1227                           
  1228                           	psect	text4
  1229   0011BE                     __ptext4:
  1230                           	callstack 0
  1231   0011BE                     _vfpfcnvrt:
  1232                           	callstack 21
  1233   0011BE                     
  1234                           ;C:\Program Files\Microchip\xc8\v2.45\pic\sources\c99\common\doprnt.c: 1177: vfpfcnvrt(F
      +                          ILE *fp, char *fmt[], va_list ap);C:\Program Files\Microchip\xc8\v2.45\pic\sources\c99\c
      +                          ommon\doprnt.c: 1178: {;C:\Program Files\Microchip\xc8\v2.45\pic\sources\c99\common\dopr
      +                          nt.c: 1179:     char c, *cp;;C:\Program Files\Microchip\xc8\v2.45\pic\sources\c99\common
      +                          \doprnt.c: 1180:     _Bool done;;C:\Program Files\Microchip\xc8\v2.45\pic\sources\c99\co
      +                          mmon\doprnt.c: 1188:  } convarg;;C:\Program Files\Microchip\xc8\v2.45\pic\sources\c99\co
      +                          mmon\doprnt.c: 1201:     if ((*fmt)[0] == '%') {
  1235   0011BE  5024               	movf	vfpfcnvrt@fmt^0,w,c
  1236   0011C0  6ED9               	movwf	fsr2l,c
  1237   0011C2  6ADA               	clrf	fsr2h,c
  1238   0011C4  CFDF FFF6          	movff	indf2,tblptrl
  1239   0011C8                     	if	1	;There is more than 1 active tblptr byte
  1240   0011C8  0E0E               	movlw	high __smallconst
  1241   0011CA  6EF7               	movwf	tblptrh,c
  1242   0011CC                     	endif
  1243   0011CC                     	if	0	;tblptru may be non-zero
  1244   0011CC                     	endif
  1245   0011CC                     	if	1	;Program memory is > 0xFFFF, there are 3 active tblptr bytes
  1246   0011CC  0E00               	movlw	low (__smallconst shr (0+16))
  1247   0011CE  6EF8               	movwf	tblptru,c
  1248   0011D0                     	endif
  1249   0011D0  0008               	tblrd		*
  1250   0011D2  50F5               	movf	tablat,w,c
  1251   0011D4  0A25               	xorlw	37
  1252   0011D6  A4D8               	btfss	status,2,c
  1253   0011D8  EFF0  F008         	goto	u2531
  1254   0011DC  EFF2  F008         	goto	u2530
  1255   0011E0                     u2531:
  1256   0011E0  EF8D  F009         	goto	l2751
  1257   0011E4                     u2530:
  1258   0011E4                     
  1259                           ;C:\Program Files\Microchip\xc8\v2.45\pic\sources\c99\common\doprnt.c: 1202:         ++*
      +                          fmt;
  1260   0011E4  5024               	movf	vfpfcnvrt@fmt^0,w,c
  1261   0011E6  6ED9               	movwf	fsr2l,c
  1262   0011E8  6ADA               	clrf	fsr2h,c
  1263   0011EA  2ADF               	incf	indf2,f,c
  1264   0011EC                     
  1265                           ;C:\Program Files\Microchip\xc8\v2.45\pic\sources\c99\common\doprnt.c: 1204:         fla
      +                          gs = width = 0;
  1266   0011EC  0E00               	movlw	0
  1267   0011EE  6E57               	movwf	(_width+1)^0,c
  1268   0011F0  0E00               	movlw	0
  1269   0011F2  6E56               	movwf	_width^0,c
  1270   0011F4  C056  F05A         	movff	_width,_flags
  1271   0011F8                     
  1272                           ;C:\Program Files\Microchip\xc8\v2.45\pic\sources\c99\common\doprnt.c: 1205:         pre
      +                          c = -1;
  1273   0011F8  0100               	movlb	0	; () banked
  1274   0011FA  6960               	setf	_prec& (0+255),b
  1275   0011FC  6961               	setf	(_prec+1)& (0+255),b
  1276   0011FE                     
  1277                           ; BSR set to: 0
  1278                           ;C:\Program Files\Microchip\xc8\v2.45\pic\sources\c99\common\doprnt.c: 1209:         don
      +                          e = 0;
  1279   0011FE  0E00               	movlw	0
  1280   001200  6E2C               	movwf	vfpfcnvrt@done^0,c
  1281                           
  1282                           ;C:\Program Files\Microchip\xc8\v2.45\pic\sources\c99\common\doprnt.c: 1210:         whi
      +                          le (!done) {
  1283   001202  EF29  F009         	goto	l2725
  1284   001206                     l2715:
  1285                           
  1286                           ;C:\Program Files\Microchip\xc8\v2.45\pic\sources\c99\common\doprnt.c: 1220:            
      +                                   flags |= (1 << 1);
  1287   001206  825A               	bsf	_flags^0,1,c
  1288   001208                     
  1289                           ;C:\Program Files\Microchip\xc8\v2.45\pic\sources\c99\common\doprnt.c: 1221:            
      +                                   ++*fmt;
  1290   001208  5024               	movf	vfpfcnvrt@fmt^0,w,c
  1291   00120A  6ED9               	movwf	fsr2l,c
  1292   00120C  6ADA               	clrf	fsr2h,c
  1293   00120E  2ADF               	incf	indf2,f,c
  1294                           
  1295                           ;C:\Program Files\Microchip\xc8\v2.45\pic\sources\c99\common\doprnt.c: 1222:            
      +                                   break;
  1296   001210  EF29  F009         	goto	l2725
  1297   001214                     l2719:
  1298                           
  1299                           ;C:\Program Files\Microchip\xc8\v2.45\pic\sources\c99\common\doprnt.c: 1243:            
      +                                   done = 1;
  1300   001214  0E01               	movlw	1
  1301   001216  6E2C               	movwf	vfpfcnvrt@done^0,c
  1302                           
  1303                           ;C:\Program Files\Microchip\xc8\v2.45\pic\sources\c99\common\doprnt.c: 1244:            
      +                                   break;
  1304   001218  EF29  F009         	goto	l2725
  1305   00121C                     l2723:
  1306   00121C  5024               	movf	vfpfcnvrt@fmt^0,w,c
  1307   00121E  6ED9               	movwf	fsr2l,c
  1308   001220  6ADA               	clrf	fsr2h,c
  1309   001222  CFDF FFF6          	movff	indf2,tblptrl
  1310   001226                     	if	1	;There is more than 1 active tblptr byte
  1311   001226  0E0E               	movlw	high __smallconst
  1312   001228  6EF7               	movwf	tblptrh,c
  1313   00122A                     	endif
  1314   00122A                     	if	0	;tblptru may be non-zero
  1315   00122A                     	endif
  1316   00122A                     	if	1	;Program memory is > 0xFFFF, there are 3 active tblptr bytes
  1317   00122A  0E00               	movlw	low (__smallconst shr (0+16))
  1318   00122C  6EF8               	movwf	tblptru,c
  1319   00122E                     	endif
  1320   00122E  0008               	tblrd		*
  1321   001230  50F5               	movf	tablat,w,c
  1322   001232  6E26               	movwf	??_vfpfcnvrt^0,c
  1323   001234  6A27               	clrf	(??_vfpfcnvrt+1)^0,c
  1324                           
  1325                           ; Switch on 2 bytes has been partitioned into a top level switch of size 1, and 1 sub-sw
      +                          itches
  1326                           ; Switch size 1, requested type "simple"
  1327                           ; Number of cases is 1, Range of values is 0 to 0
  1328                           ; switch strategies available:
  1329                           ; Name         Instructions Cycles
  1330                           ; simple_byte            4     3 (average)
  1331                           ;	Chosen strategy is simple_byte
  1332   001236  5027               	movf	(??_vfpfcnvrt+1)^0,w,c
  1333   001238  0A00               	xorlw	0	; case 0
  1334   00123A  B4D8               	btfsc	status,2,c
  1335   00123C  EF22  F009         	goto	l3197
  1336   001240  EF0A  F009         	goto	l2719
  1337   001244                     l3197:
  1338                           
  1339                           ; Switch size 1, requested type "simple"
  1340                           ; Number of cases is 1, Range of values is 48 to 48
  1341                           ; switch strategies available:
  1342                           ; Name         Instructions Cycles
  1343                           ; simple_byte            4     3 (average)
  1344                           ;	Chosen strategy is simple_byte
  1345   001244  5026               	movf	??_vfpfcnvrt^0,w,c
  1346   001246  0A30               	xorlw	48	; case 48
  1347   001248  B4D8               	btfsc	status,2,c
  1348   00124A  EF03  F009         	goto	l2715
  1349   00124E  EF0A  F009         	goto	l2719
  1350   001252                     l2725:
  1351                           
  1352                           ;C:\Program Files\Microchip\xc8\v2.45\pic\sources\c99\common\doprnt.c: 1210:         whi
      +                          le (!done) {
  1353   001252  502C               	movf	vfpfcnvrt@done^0,w,c
  1354   001254  B4D8               	btfsc	status,2,c
  1355   001256  EF2F  F009         	goto	u2541
  1356   00125A  EF31  F009         	goto	u2540
  1357   00125E                     u2541:
  1358   00125E  EF0E  F009         	goto	l2723
  1359   001262                     u2540:
  1360   001262                     
  1361                           ;C:\Program Files\Microchip\xc8\v2.45\pic\sources\c99\common\doprnt.c: 1256:   width = r
      +                          ead_prec_or_width(fmt, ap);
  1362   001262  C024  F00E         	movff	vfpfcnvrt@fmt,read_prec_or_width@fmt
  1363   001266  C025  F00F         	movff	vfpfcnvrt@ap,read_prec_or_width@ap
  1364   00126A  ECF4  F00B         	call	_read_prec_or_width	;wreg free
  1365   00126E  C00E  F056         	movff	?_read_prec_or_width,_width
  1366   001272  C00F  F057         	movff	?_read_prec_or_width+1,_width+1
  1367   001276                     
  1368                           ;C:\Program Files\Microchip\xc8\v2.45\pic\sources\c99\common\doprnt.c: 1257:   if (width
      +                           < 0) {
  1369   001276  BE57               	btfsc	(_width+1)^0,7,c
  1370   001278  EF42  F009         	goto	u2550
  1371   00127C  EF40  F009         	goto	u2551
  1372   001280                     u2551:
  1373   001280  EF47  F009         	goto	l2733
  1374   001284                     u2550:
  1375   001284                     
  1376                           ;C:\Program Files\Microchip\xc8\v2.45\pic\sources\c99\common\doprnt.c: 1258:    flags |=
      +                           (1 << 0);
  1377   001284  805A               	bsf	_flags^0,0,c
  1378                           
  1379                           ;C:\Program Files\Microchip\xc8\v2.45\pic\sources\c99\common\doprnt.c: 1259:    width = 
      +                          -width;
  1380   001286  6C56               	negf	_width^0,c
  1381   001288  1E57               	comf	(_width+1)^0,f,c
  1382   00128A  B0D8               	btfsc	status,0,c
  1383   00128C  2A57               	incf	(_width+1)^0,f,c
  1384   00128E                     l2733:
  1385                           
  1386                           ;C:\Program Files\Microchip\xc8\v2.45\pic\sources\c99\common\doprnt.c: 1291:   cp = *fmt
      +                          ;
  1387   00128E  5024               	movf	vfpfcnvrt@fmt^0,w,c
  1388   001290  6ED9               	movwf	fsr2l,c
  1389   001292  6ADA               	clrf	fsr2h,c
  1390   001294  50DF               	movf	indf2,w,c
  1391   001296  6E2D               	movwf	vfpfcnvrt@cp^0,c
  1392   001298                     
  1393                           ;C:\Program Files\Microchip\xc8\v2.45\pic\sources\c99\common\doprnt.c: 1361:   if (*cp =
      +                          = 'd' || *cp == 'i') {
  1394   001298  C02D  FFF6         	movff	vfpfcnvrt@cp,tblptrl
  1395   00129C                     	if	1	;There is more than 1 active tblptr byte
  1396   00129C  0E0E               	movlw	high __smallconst
  1397   00129E  6EF7               	movwf	tblptrh,c
  1398   0012A0                     	endif
  1399   0012A0                     	if	0	;tblptru may be non-zero
  1400   0012A0                     	endif
  1401   0012A0                     	if	1	;Program memory is > 0xFFFF, there are 3 active tblptr bytes
  1402   0012A0  0E00               	movlw	low (__smallconst shr (0+16))
  1403   0012A2  6EF8               	movwf	tblptru,c
  1404   0012A4                     	endif
  1405   0012A4  0008               	tblrd		*
  1406   0012A6  50F5               	movf	tablat,w,c
  1407   0012A8  0A64               	xorlw	100
  1408   0012AA  B4D8               	btfsc	status,2,c
  1409   0012AC  EF5A  F009         	goto	u2561
  1410   0012B0  EF5C  F009         	goto	u2560
  1411   0012B4                     u2561:
  1412   0012B4  EF6C  F009         	goto	l2739
  1413   0012B8                     u2560:
  1414   0012B8  C02D  FFF6         	movff	vfpfcnvrt@cp,tblptrl
  1415   0012BC                     	if	1	;There is more than 1 active tblptr byte
  1416   0012BC  0E0E               	movlw	high __smallconst
  1417   0012BE  6EF7               	movwf	tblptrh,c
  1418   0012C0                     	endif
  1419   0012C0                     	if	0	;tblptru may be non-zero
  1420   0012C0                     	endif
  1421   0012C0                     	if	1	;Program memory is > 0xFFFF, there are 3 active tblptr bytes
  1422   0012C0  0E00               	movlw	low (__smallconst shr (0+16))
  1423   0012C2  6EF8               	movwf	tblptru,c
  1424   0012C4                     	endif
  1425   0012C4  0008               	tblrd		*
  1426   0012C6  50F5               	movf	tablat,w,c
  1427   0012C8  0A69               	xorlw	105
  1428   0012CA  A4D8               	btfss	status,2,c
  1429   0012CC  EF6A  F009         	goto	u2571
  1430   0012D0  EF6C  F009         	goto	u2570
  1431   0012D4                     u2571:
  1432   0012D4  EF87  F009         	goto	l2747
  1433   0012D8                     u2570:
  1434   0012D8                     l2739:
  1435                           
  1436                           ;C:\Program Files\Microchip\xc8\v2.45\pic\sources\c99\common\doprnt.c: 1404:    convarg.
      +                          sint = (vfpf_sint_t)(int)(*(int *)__va_arg(*(int **)ap, (int)0));
  1437   0012D8  5025               	movf	vfpfcnvrt@ap^0,w,c
  1438   0012DA  6ED9               	movwf	fsr2l,c
  1439   0012DC  6ADA               	clrf	fsr2h,c
  1440   0012DE  0E02               	movlw	2
  1441   0012E0  26DF               	addwf	indf2,f,c
  1442   0012E2  5CDF               	subwf	indf2,w,c
  1443   0012E4  6ED9               	movwf	fsr2l,c
  1444   0012E6  6ADA               	clrf	fsr2h,c
  1445   0012E8  CFDE F028          	movff	postinc2,vfpfcnvrt@convarg
  1446   0012EC  CFDE F029          	movff	postinc2,vfpfcnvrt@convarg+1
  1447   0012F0                     
  1448                           ;C:\Program Files\Microchip\xc8\v2.45\pic\sources\c99\common\doprnt.c: 1406:    *fmt = c
      +                          p+1;
  1449   0012F0  5024               	movf	vfpfcnvrt@fmt^0,w,c
  1450   0012F2  6ED9               	movwf	fsr2l,c
  1451   0012F4  6ADA               	clrf	fsr2h,c
  1452   0012F6  282D               	incf	vfpfcnvrt@cp^0,w,c
  1453   0012F8  6EDF               	movwf	indf2,c
  1454   0012FA                     
  1455                           ;C:\Program Files\Microchip\xc8\v2.45\pic\sources\c99\common\doprnt.c: 1432:    return (
      +                          void) dtoa(fp, convarg.sint);;	Return value of _vfpfcnvrt is never used
  1456   0012FA  C023  F018         	movff	vfpfcnvrt@fp,dtoa@fp
  1457   0012FE  C028  F019         	movff	vfpfcnvrt@convarg,dtoa@d
  1458   001302  C029  F01A         	movff	vfpfcnvrt@convarg+1,dtoa@d+1
  1459   001306  ECA1  F009         	call	_dtoa	;wreg free
  1460   00130A  EFA0  F009         	goto	l1061
  1461   00130E                     l2747:
  1462                           
  1463                           ;C:\Program Files\Microchip\xc8\v2.45\pic\sources\c99\common\doprnt.c: 1806:         ++*
      +                          fmt;
  1464   00130E  5024               	movf	vfpfcnvrt@fmt^0,w,c
  1465   001310  6ED9               	movwf	fsr2l,c
  1466   001312  6ADA               	clrf	fsr2h,c
  1467   001314  2ADF               	incf	indf2,f,c
  1468   001316  EFA0  F009         	goto	l1061
  1469   00131A                     l2751:
  1470                           
  1471                           ;C:\Program Files\Microchip\xc8\v2.45\pic\sources\c99\common\doprnt.c: 1811:     fputc((
      +                          int)(*fmt)[0], fp);
  1472   00131A  5024               	movf	vfpfcnvrt@fmt^0,w,c
  1473   00131C  6ED9               	movwf	fsr2l,c
  1474   00131E  6ADA               	clrf	fsr2h,c
  1475   001320  CFDF FFF6          	movff	indf2,tblptrl
  1476   001324                     	if	1	;There is more than 1 active tblptr byte
  1477   001324  0E0E               	movlw	high __smallconst
  1478   001326  6EF7               	movwf	tblptrh,c
  1479   001328                     	endif
  1480   001328                     	if	0	;tblptru may be non-zero
  1481   001328                     	endif
  1482   001328                     	if	1	;Program memory is > 0xFFFF, there are 3 active tblptr bytes
  1483   001328  0E00               	movlw	low (__smallconst shr (0+16))
  1484   00132A  6EF8               	movwf	tblptru,c
  1485   00132C                     	endif
  1486   00132C  0008               	tblrd		*
  1487   00132E  50F5               	movf	tablat,w,c
  1488   001330  6E04               	movwf	fputc@c^0,c
  1489   001332  6A05               	clrf	(fputc@c+1)^0,c
  1490   001334  C023  F006         	movff	vfpfcnvrt@fp,fputc@fp
  1491   001338  EC4B  F00C         	call	_fputc	;wreg free
  1492   00133C  EF87  F009         	goto	l2747
  1493   001340                     l1061:
  1494   001340  0012               	return		;funcret
  1495   001342                     __end_of_vfpfcnvrt:
  1496                           	callstack 0
  1497                           
  1498 ;; *************** function _read_prec_or_width *****************
  1499 ;; Defined at:
  1500 ;;		line 1158 in file "C:\Program Files\Microchip\xc8\v2.45\pic\sources\c99\common\doprnt.c"
  1501 ;; Parameters:    Size  Location     Type
  1502 ;;  fmt             1   13[COMRAM] PTR PTR const unsigned c
  1503 ;;		 -> vfprintf@cfmt(1), 
  1504 ;;  ap              1   14[COMRAM] PTR PTR void [1]
  1505 ;;		 -> sprintf@ap(1), 
  1506 ;; Auto vars:     Size  Location     Type
  1507 ;;  c               1   15[COMRAM] unsigned char 
  1508 ;;  n               2   16[COMRAM] int 
  1509 ;; Return value:  Size  Location     Type
  1510 ;;                  2   13[COMRAM] int 
  1511 ;; Registers used:
  1512 ;;		wreg, fsr2l, fsr2h, status,2, status,0, tblptrl, tblptrh, tblptru, prodl, prodh, cstack
  1513 ;; Tracked objects:
  1514 ;;		On entry : 0/0
  1515 ;;		On exit  : 0/0
  1516 ;;		Unchanged: 0/0
  1517 ;; Data sizes:     COMRAM   BANK0   BANK1   BANK2   BANK3   BANK4   BANK5   BANK6   BANK7   BANK8   BANK9  BANK10  BANK1
      +1  BANK12  BANK13
  1518 ;;      Params:         2       0       0       0       0       0       0       0       0       0       0       0       
      +0       0       0
  1519 ;;      Locals:         3       0       0       0       0       0       0       0       0       0       0       0       
      +0       0       0
  1520 ;;      Temps:          0       0       0       0       0       0       0       0       0       0       0       0       
      +0       0       0
  1521 ;;      Totals:         5       0       0       0       0       0       0       0       0       0       0       0       
      +0       0       0
  1522 ;;Total ram usage:        5 bytes
  1523 ;; Hardware stack levels used: 1
  1524 ;; Hardware stack levels required when called: 3
  1525 ;; This function calls:
  1526 ;;		___wmul
  1527 ;; This function is called by:
  1528 ;;		_vfpfcnvrt
  1529 ;; This function uses a non-reentrant model
  1530 ;;
  1531                           
  1532                           	psect	text5
  1533   0017E8                     __ptext5:
  1534                           	callstack 0
  1535   0017E8                     _read_prec_or_width:
  1536                           	callstack 24
  1537   0017E8                     
  1538                           ;C:\Program Files\Microchip\xc8\v2.45\pic\sources\c99\common\doprnt.c: 1159:     int n =
      +                           0;
  1539   0017E8  0E00               	movlw	0
  1540   0017EA  6E12               	movwf	(read_prec_or_width@n+1)^0,c
  1541   0017EC  0E00               	movlw	0
  1542   0017EE  6E11               	movwf	read_prec_or_width@n^0,c
  1543   0017F0                     
  1544                           ;C:\Program Files\Microchip\xc8\v2.45\pic\sources\c99\common\doprnt.c: 1160:     if ((*f
      +                          mt)[0] == '*') {
  1545   0017F0  500E               	movf	read_prec_or_width@fmt^0,w,c
  1546   0017F2  6ED9               	movwf	fsr2l,c
  1547   0017F4  6ADA               	clrf	fsr2h,c
  1548   0017F6  CFDF FFF6          	movff	indf2,tblptrl
  1549   0017FA                     	if	1	;There is more than 1 active tblptr byte
  1550   0017FA  0E0E               	movlw	high __smallconst
  1551   0017FC  6EF7               	movwf	tblptrh,c
  1552   0017FE                     	endif
  1553   0017FE                     	if	0	;tblptru may be non-zero
  1554   0017FE                     	endif
  1555   0017FE                     	if	1	;Program memory is > 0xFFFF, there are 3 active tblptr bytes
  1556   0017FE  0E00               	movlw	low (__smallconst shr (0+16))
  1557   001800  6EF8               	movwf	tblptru,c
  1558   001802                     	endif
  1559   001802  0008               	tblrd		*
  1560   001804  50F5               	movf	tablat,w,c
  1561   001806  0A2A               	xorlw	42
  1562   001808  A4D8               	btfss	status,2,c
  1563   00180A  EF09  F00C         	goto	u2471
  1564   00180E  EF0B  F00C         	goto	u2470
  1565   001812                     u2471:
  1566   001812  EF31  F00C         	goto	l2683
  1567   001816                     u2470:
  1568   001816                     
  1569                           ;C:\Program Files\Microchip\xc8\v2.45\pic\sources\c99\common\doprnt.c: 1161:         ++*
      +                          fmt;
  1570   001816  500E               	movf	read_prec_or_width@fmt^0,w,c
  1571   001818  6ED9               	movwf	fsr2l,c
  1572   00181A  6ADA               	clrf	fsr2h,c
  1573   00181C  2ADF               	incf	indf2,f,c
  1574   00181E                     
  1575                           ;C:\Program Files\Microchip\xc8\v2.45\pic\sources\c99\common\doprnt.c: 1162:         n =
      +                           (*(int *)__va_arg(*(int **)*ap, (int)0));
  1576   00181E  500F               	movf	read_prec_or_width@ap^0,w,c
  1577   001820  6ED9               	movwf	fsr2l,c
  1578   001822  6ADA               	clrf	fsr2h,c
  1579   001824  0E02               	movlw	2
  1580   001826  26DF               	addwf	indf2,f,c
  1581   001828  5CDF               	subwf	indf2,w,c
  1582   00182A  6ED9               	movwf	fsr2l,c
  1583   00182C  6ADA               	clrf	fsr2h,c
  1584   00182E  CFDE F011          	movff	postinc2,read_prec_or_width@n
  1585   001832  CFDE F012          	movff	postinc2,read_prec_or_width@n+1
  1586                           
  1587                           ;C:\Program Files\Microchip\xc8\v2.45\pic\sources\c99\common\doprnt.c: 1163:     } else 
      +                          {
  1588   001836  EF46  F00C         	goto	l1042
  1589   00183A                     l2679:
  1590                           
  1591                           ;C:\Program Files\Microchip\xc8\v2.45\pic\sources\c99\common\doprnt.c: 1166:            
      +                           n = n * 10 + c;
  1592   00183A  C011  F008         	movff	read_prec_or_width@n,___wmul@multiplier
  1593   00183E  C012  F009         	movff	read_prec_or_width@n+1,___wmul@multiplier+1
  1594   001842  0E00               	movlw	0
  1595   001844  6E0B               	movwf	(___wmul@multiplicand+1)^0,c
  1596   001846  0E0A               	movlw	10
  1597   001848  6E0A               	movwf	___wmul@multiplicand^0,c
  1598   00184A  EC98  F00F         	call	___wmul	;wreg free
  1599   00184E  5010               	movf	read_prec_or_width@c^0,w,c
  1600   001850  2408               	addwf	?___wmul^0,w,c
  1601   001852  6E11               	movwf	read_prec_or_width@n^0,c
  1602   001854  0E00               	movlw	0
  1603   001856  2009               	addwfc	(?___wmul+1)^0,w,c
  1604   001858  6E12               	movwf	(read_prec_or_width@n+1)^0,c
  1605   00185A                     
  1606                           ;C:\Program Files\Microchip\xc8\v2.45\pic\sources\c99\common\doprnt.c: 1167:            
      +                           ++*fmt;
  1607   00185A  500E               	movf	read_prec_or_width@fmt^0,w,c
  1608   00185C  6ED9               	movwf	fsr2l,c
  1609   00185E  6ADA               	clrf	fsr2h,c
  1610   001860  2ADF               	incf	indf2,f,c
  1611   001862                     l2683:
  1612                           
  1613                           ;C:\Program Files\Microchip\xc8\v2.45\pic\sources\c99\common\doprnt.c: 1165:         whi
      +                          le ((c = ((unsigned)(*fmt)[0]) - '0') < 10) {
  1614   001862  500E               	movf	read_prec_or_width@fmt^0,w,c
  1615   001864  6ED9               	movwf	fsr2l,c
  1616   001866  6ADA               	clrf	fsr2h,c
  1617   001868  CFDF FFF6          	movff	indf2,tblptrl
  1618   00186C                     	if	1	;There is more than 1 active tblptr byte
  1619   00186C  0E0E               	movlw	high __smallconst
  1620   00186E  6EF7               	movwf	tblptrh,c
  1621   001870                     	endif
  1622   001870                     	if	0	;tblptru may be non-zero
  1623   001870                     	endif
  1624   001870                     	if	1	;Program memory is > 0xFFFF, there are 3 active tblptr bytes
  1625   001870  0E00               	movlw	low (__smallconst shr (0+16))
  1626   001872  6EF8               	movwf	tblptru,c
  1627   001874                     	endif
  1628   001874  0008               	tblrd		*
  1629   001876  50F5               	movf	tablat,w,c
  1630   001878  0FD0               	addlw	208
  1631   00187A  6E10               	movwf	read_prec_or_width@c^0,c
  1632   00187C  0E09               	movlw	9
  1633   00187E  6410               	cpfsgt	read_prec_or_width@c^0,c
  1634   001880  EF44  F00C         	goto	u2481
  1635   001884  EF46  F00C         	goto	u2480
  1636   001888                     u2481:
  1637   001888  EF1D  F00C         	goto	l2679
  1638   00188C                     u2480:
  1639   00188C                     l1042:
  1640                           
  1641                           ;C:\Program Files\Microchip\xc8\v2.45\pic\sources\c99\common\doprnt.c: 1170:     return 
      +                          n;
  1642   00188C  C011  F00E         	movff	read_prec_or_width@n,?_read_prec_or_width
  1643   001890  C012  F00F         	movff	read_prec_or_width@n+1,?_read_prec_or_width+1
  1644   001894  0012               	return		;funcret
  1645   001896                     __end_of_read_prec_or_width:
  1646                           	callstack 0
  1647                           
  1648 ;; *************** function _dtoa *****************
  1649 ;; Defined at:
  1650 ;;		line 513 in file "C:\Program Files\Microchip\xc8\v2.45\pic\sources\c99\common\doprnt.c"
  1651 ;; Parameters:    Size  Location     Type
  1652 ;;  fp              1   23[COMRAM] PTR struct _IO_FILE
  1653 ;;		 -> sprintf@f(12), 
  1654 ;;  d               2   24[COMRAM] int 
  1655 ;; Auto vars:     Size  Location     Type
  1656 ;;  i               2   32[COMRAM] int 
  1657 ;;  w               2   29[COMRAM] int 
  1658 ;;  s               1   31[COMRAM] unsigned char 
  1659 ;;  p               1   28[COMRAM] _Bool 
  1660 ;; Return value:  Size  Location     Type
  1661 ;;                  1    wreg      void 
  1662 ;; Registers used:
  1663 ;;		wreg, fsr1l, fsr1h, fsr2l, fsr2h, status,2, status,0, cstack
  1664 ;; Tracked objects:
  1665 ;;		On entry : 0/0
  1666 ;;		On exit  : 0/0
  1667 ;;		Unchanged: 0/0
  1668 ;; Data sizes:     COMRAM   BANK0   BANK1   BANK2   BANK3   BANK4   BANK5   BANK6   BANK7   BANK8   BANK9  BANK10  BANK1
      +1  BANK12  BANK13
  1669 ;;      Params:         3       0       0       0       0       0       0       0       0       0       0       0       
      +0       0       0
  1670 ;;      Locals:         8       0       0       0       0       0       0       0       0       0       0       0       
      +0       0       0
  1671 ;;      Temps:          0       0       0       0       0       0       0       0       0       0       0       0       
      +0       0       0
  1672 ;;      Totals:        11       0       0       0       0       0       0       0       0       0       0       0       
      +0       0       0
  1673 ;;Total ram usage:       11 bytes
  1674 ;; Hardware stack levels used: 1
  1675 ;; Hardware stack levels required when called: 6
  1676 ;; This function calls:
  1677 ;;		___awdiv
  1678 ;;		___awmod
  1679 ;;		_abs
  1680 ;;		_pad
  1681 ;; This function is called by:
  1682 ;;		_vfpfcnvrt
  1683 ;; This function uses a non-reentrant model
  1684 ;;
  1685                           
  1686                           	psect	text6
  1687   001342                     __ptext6:
  1688                           	callstack 0
  1689   001342                     _dtoa:
  1690                           	callstack 21
  1691   001342                     
  1692                           ;C:\Program Files\Microchip\xc8\v2.45\pic\sources\c99\common\doprnt.c: 513: static void 
      +                          dtoa(FILE *fp, vfpf_sint_t d);C:\Program Files\Microchip\xc8\v2.45\pic\sources\c99\commo
      +                          n\doprnt.c: 514: {;C:\Program Files\Microchip\xc8\v2.45\pic\sources\c99\common\doprnt.c:
      +                           515:  char s;;C:\Program Files\Microchip\xc8\v2.45\pic\sources\c99\common\doprnt.c: 516
      +                          :     int i, w;;C:\Program Files\Microchip\xc8\v2.45\pic\sources\c99\common\doprnt.c: 52
      +                          0:  _Bool p = 1;
  1693   001342  0E01               	movlw	1
  1694   001344  6E1D               	movwf	dtoa@p^0,c
  1695   001346                     
  1696                           ;C:\Program Files\Microchip\xc8\v2.45\pic\sources\c99\common\doprnt.c: 524:     s = d < 
      +                          0 ? 1 : 0;
  1697   001346  BE1A               	btfsc	(dtoa@d+1)^0,7,c
  1698   001348  EFA8  F009         	goto	u2371
  1699   00134C  EFAB  F009         	goto	u2370
  1700   001350                     u2371:
  1701   001350  0E01               	movlw	1
  1702   001352  EFAC  F009         	goto	u2380
  1703   001356                     u2370:
  1704   001356  0E00               	movlw	0
  1705   001358                     u2380:
  1706   001358  6E20               	movwf	dtoa@s^0,c
  1707   00135A                     
  1708                           ;C:\Program Files\Microchip\xc8\v2.45\pic\sources\c99\common\doprnt.c: 535:     w = widt
      +                          h;
  1709   00135A  C056  F01E         	movff	_width,dtoa@w
  1710   00135E  C057  F01F         	movff	_width+1,dtoa@w+1
  1711   001362                     
  1712                           ;C:\Program Files\Microchip\xc8\v2.45\pic\sources\c99\common\doprnt.c: 536:     if (s
  1713   001362  5020               	movf	dtoa@s^0,w,c
  1714   001364  B4D8               	btfsc	status,2,c
  1715   001366  EFB7  F009         	goto	u2391
  1716   00136A  EFB9  F009         	goto	u2390
  1717   00136E                     u2391:
  1718   00136E  EFD0  F009         	goto	l1025
  1719   001372                     u2390:
  1720   001372                     
  1721                           ;C:\Program Files\Microchip\xc8\v2.45\pic\sources\c99\common\doprnt.c: 540:     ) {;C:\P
      +                          rogram Files\Microchip\xc8\v2.45\pic\sources\c99\common\doprnt.c: 541:         --w;
  1722   001372  061E               	decf	dtoa@w^0,f,c
  1723   001374  A0D8               	btfss	status,0,c
  1724   001376  061F               	decf	(dtoa@w+1)^0,f,c
  1725   001378                     
  1726                           ;C:\Program Files\Microchip\xc8\v2.45\pic\sources\c99\common\doprnt.c: 542:   s = s ? '-
      +                          ' : '+';
  1727   001378  5020               	movf	dtoa@s^0,w,c
  1728   00137A  A4D8               	btfss	status,2,c
  1729   00137C  EFC2  F009         	goto	u2401
  1730   001380  EFC4  F009         	goto	u2400
  1731   001384                     u2401:
  1732   001384  EFCA  F009         	goto	l2635
  1733   001388                     u2400:
  1734   001388  0E00               	movlw	0
  1735   00138A  6E1C               	movwf	(_dtoa$2117+1)^0,c
  1736   00138C  0E2B               	movlw	43
  1737   00138E  6E1B               	movwf	_dtoa$2117^0,c
  1738   001390  EFCE  F009         	goto	l2637
  1739   001394                     l2635:
  1740   001394  0E00               	movlw	0
  1741   001396  6E1C               	movwf	(_dtoa$2117+1)^0,c
  1742   001398  0E2D               	movlw	45
  1743   00139A  6E1B               	movwf	_dtoa$2117^0,c
  1744   00139C                     l2637:
  1745   00139C  C01B  F020         	movff	_dtoa$2117,dtoa@s
  1746   0013A0                     l1025:
  1747                           
  1748                           ;C:\Program Files\Microchip\xc8\v2.45\pic\sources\c99\common\doprnt.c: 552:     i = size
      +                          of(dbuf) - 1;
  1749   0013A0  0E00               	movlw	0
  1750   0013A2  6E22               	movwf	(dtoa@i+1)^0,c
  1751   0013A4  0E1F               	movlw	31
  1752   0013A6  6E21               	movwf	dtoa@i^0,c
  1753   0013A8                     
  1754                           ;C:\Program Files\Microchip\xc8\v2.45\pic\sources\c99\common\doprnt.c: 553:     dbuf[i] 
      +                          = '\0';
  1755   0013A8  0E00               	movlw	0
  1756   0013AA  0100               	movlb	0	; () banked
  1757   0013AC  6F81               	movwf	(_dbuf+31)& (0+255),b
  1758                           
  1759                           ;C:\Program Files\Microchip\xc8\v2.45\pic\sources\c99\common\doprnt.c: 554:     while (!
      +                          (i < 1) && (d != 0
  1760   0013AE  EF06  F00A         	goto	l2651
  1761   0013B2                     l2641:
  1762                           
  1763                           ;C:\Program Files\Microchip\xc8\v2.45\pic\sources\c99\common\doprnt.c: 563:     )) {;C:\
      +                          Program Files\Microchip\xc8\v2.45\pic\sources\c99\common\doprnt.c: 564:         --i;
  1764   0013B2  0621               	decf	dtoa@i^0,f,c
  1765   0013B4  A0D8               	btfss	status,0,c
  1766   0013B6  0622               	decf	(dtoa@i+1)^0,f,c
  1767   0013B8                     
  1768                           ;C:\Program Files\Microchip\xc8\v2.45\pic\sources\c99\common\doprnt.c: 565:         dbuf
      +                          [i] = (char)((int)'0' + abs(d % 10));
  1769   0013B8  5021               	movf	dtoa@i^0,w,c
  1770   0013BA  0F62               	addlw	low _dbuf
  1771   0013BC  6ED9               	movwf	fsr2l,c
  1772   0013BE  6ADA               	clrf	fsr2h,c
  1773   0013C0  C019  F004         	movff	dtoa@d,___awmod@dividend
  1774   0013C4  C01A  F005         	movff	dtoa@d+1,___awmod@dividend+1
  1775   0013C8  0E00               	movlw	0
  1776   0013CA  6E07               	movwf	(___awmod@divisor+1)^0,c
  1777   0013CC  0E0A               	movlw	10
  1778   0013CE  6E06               	movwf	___awmod@divisor^0,c
  1779   0013D0  EC9C  F00B         	call	___awmod	;wreg free
  1780   0013D4  C004  F00A         	movff	?___awmod,abs@a
  1781   0013D8  C005  F00B         	movff	?___awmod+1,abs@a+1
  1782   0013DC  EC3E  F00F         	call	_abs	;wreg free
  1783   0013E0  500A               	movf	?_abs^0,w,c
  1784   0013E2  0F30               	addlw	48
  1785   0013E4  6EDF               	movwf	indf2,c
  1786   0013E6                     
  1787                           ;C:\Program Files\Microchip\xc8\v2.45\pic\sources\c99\common\doprnt.c: 569:   p = 0;
  1788   0013E6  0E00               	movlw	0
  1789   0013E8  6E1D               	movwf	dtoa@p^0,c
  1790   0013EA                     
  1791                           ;C:\Program Files\Microchip\xc8\v2.45\pic\sources\c99\common\doprnt.c: 571:         --w;
  1792   0013EA  061E               	decf	dtoa@w^0,f,c
  1793   0013EC  A0D8               	btfss	status,0,c
  1794   0013EE  061F               	decf	(dtoa@w+1)^0,f,c
  1795   0013F0                     
  1796                           ;C:\Program Files\Microchip\xc8\v2.45\pic\sources\c99\common\doprnt.c: 572:         d = 
      +                          d / 10;
  1797   0013F0  C019  F004         	movff	dtoa@d,___awdiv@dividend
  1798   0013F4  C01A  F005         	movff	dtoa@d+1,___awdiv@dividend+1
  1799   0013F8  0E00               	movlw	0
  1800   0013FA  6E07               	movwf	(___awdiv@divisor+1)^0,c
  1801   0013FC  0E0A               	movlw	10
  1802   0013FE  6E06               	movwf	___awdiv@divisor^0,c
  1803   001400  EC3A  F00B         	call	___awdiv	;wreg free
  1804   001404  C004  F019         	movff	?___awdiv,dtoa@d
  1805   001408  C005  F01A         	movff	?___awdiv+1,dtoa@d+1
  1806   00140C                     l2651:
  1807                           
  1808                           ;C:\Program Files\Microchip\xc8\v2.45\pic\sources\c99\common\doprnt.c: 554:     while (!
      +                          (i < 1) && (d != 0
  1809   00140C  BE22               	btfsc	(dtoa@i+1)^0,7,c
  1810   00140E  EF11  F00A         	goto	u2411
  1811   001412  5022               	movf	(dtoa@i+1)^0,w,c
  1812   001414  E108               	bnz	u2410
  1813   001416  0421               	decf	dtoa@i^0,w,c
  1814   001418  A0D8               	btfss	status,0,c
  1815   00141A  EF11  F00A         	goto	u2411
  1816   00141E  EF13  F00A         	goto	u2410
  1817   001422                     u2411:
  1818   001422  EF38  F00A         	goto	l2661
  1819   001426                     u2410:
  1820   001426  5019               	movf	dtoa@d^0,w,c
  1821   001428  101A               	iorwf	(dtoa@d+1)^0,w,c
  1822   00142A  A4D8               	btfss	status,2,c
  1823   00142C  EF1A  F00A         	goto	u2421
  1824   001430  EF1C  F00A         	goto	u2420
  1825   001434                     u2421:
  1826   001434  EFD9  F009         	goto	l2641
  1827   001438                     u2420:
  1828   001438  501D               	movf	dtoa@p^0,w,c
  1829   00143A  A4D8               	btfss	status,2,c
  1830   00143C  EF22  F00A         	goto	u2431
  1831   001440  EF24  F00A         	goto	u2430
  1832   001444                     u2431:
  1833   001444  EFD9  F009         	goto	l2641
  1834   001448                     u2430:
  1835   001448  BE1F               	btfsc	(dtoa@w+1)^0,7,c
  1836   00144A  EF2F  F00A         	goto	u2441
  1837   00144E  501F               	movf	(dtoa@w+1)^0,w,c
  1838   001450  E108               	bnz	u2440
  1839   001452  041E               	decf	dtoa@w^0,w,c
  1840   001454  A0D8               	btfss	status,0,c
  1841   001456  EF2F  F00A         	goto	u2441
  1842   00145A  EF31  F00A         	goto	u2440
  1843   00145E                     u2441:
  1844   00145E  EF38  F00A         	goto	l2661
  1845   001462                     u2440:
  1846   001462  B25A               	btfsc	_flags^0,1,c
  1847   001464  EF36  F00A         	goto	u2451
  1848   001468  EF38  F00A         	goto	u2450
  1849   00146C                     u2451:
  1850   00146C  EFD9  F009         	goto	l2641
  1851   001470                     u2450:
  1852   001470                     l2661:
  1853                           
  1854                           ;C:\Program Files\Microchip\xc8\v2.45\pic\sources\c99\common\doprnt.c: 576:     if (s !=
      +                           0) {
  1855   001470  5020               	movf	dtoa@s^0,w,c
  1856   001472  B4D8               	btfsc	status,2,c
  1857   001474  EF3E  F00A         	goto	u2461
  1858   001478  EF40  F00A         	goto	u2460
  1859   00147C                     u2461:
  1860   00147C  EF49  F00A         	goto	l2667
  1861   001480                     u2460:
  1862   001480                     
  1863                           ;C:\Program Files\Microchip\xc8\v2.45\pic\sources\c99\common\doprnt.c: 577:         --i;
  1864   001480  0621               	decf	dtoa@i^0,f,c
  1865   001482  A0D8               	btfss	status,0,c
  1866   001484  0622               	decf	(dtoa@i+1)^0,f,c
  1867   001486                     
  1868                           ;C:\Program Files\Microchip\xc8\v2.45\pic\sources\c99\common\doprnt.c: 578:         dbuf
      +                          [i] = s;
  1869   001486  5021               	movf	dtoa@i^0,w,c
  1870   001488  0F62               	addlw	low _dbuf
  1871   00148A  6ED9               	movwf	fsr2l,c
  1872   00148C  6ADA               	clrf	fsr2h,c
  1873   00148E  C020  FFDF         	movff	dtoa@s,indf2
  1874   001492                     l2667:
  1875                           
  1876                           ;C:\Program Files\Microchip\xc8\v2.45\pic\sources\c99\common\doprnt.c: 582:     return (
      +                          void) pad(fp, &dbuf[i], w);
  1877   001492  C018  F011         	movff	dtoa@fp,pad@fp
  1878   001496  5021               	movf	dtoa@i^0,w,c
  1879   001498  0F62               	addlw	low _dbuf
  1880   00149A  6E12               	movwf	pad@buf^0,c
  1881   00149C  C01E  F013         	movff	dtoa@w,pad@p
  1882   0014A0  C01F  F014         	movff	dtoa@w+1,pad@p+1
  1883   0014A4  ECF1  F00C         	call	_pad	;wreg free
  1884   0014A8  0012               	return		;funcret
  1885   0014AA                     __end_of_dtoa:
  1886                           	callstack 0
  1887                           
  1888 ;; *************** function _pad *****************
  1889 ;; Defined at:
  1890 ;;		line 193 in file "C:\Program Files\Microchip\xc8\v2.45\pic\sources\c99\common\doprnt.c"
  1891 ;; Parameters:    Size  Location     Type
  1892 ;;  fp              1   16[COMRAM] PTR struct _IO_FILE
  1893 ;;		 -> sprintf@f(12), 
  1894 ;;  buf             1   17[COMRAM] PTR unsigned char 
  1895 ;;		 -> dbuf(32), 
  1896 ;;  p               2   18[COMRAM] int 
  1897 ;; Auto vars:     Size  Location     Type
  1898 ;;  i               2   21[COMRAM] int 
  1899 ;; Return value:  Size  Location     Type
  1900 ;;                  1    wreg      void 
  1901 ;; Registers used:
  1902 ;;		wreg, fsr1l, fsr1h, fsr2l, fsr2h, status,2, status,0, cstack
  1903 ;; Tracked objects:
  1904 ;;		On entry : 0/0
  1905 ;;		On exit  : 0/0
  1906 ;;		Unchanged: 0/0
  1907 ;; Data sizes:     COMRAM   BANK0   BANK1   BANK2   BANK3   BANK4   BANK5   BANK6   BANK7   BANK8   BANK9  BANK10  BANK1
      +1  BANK12  BANK13
  1908 ;;      Params:         4       0       0       0       0       0       0       0       0       0       0       0       
      +0       0       0
  1909 ;;      Locals:         2       0       0       0       0       0       0       0       0       0       0       0       
      +0       0       0
  1910 ;;      Temps:          1       0       0       0       0       0       0       0       0       0       0       0       
      +0       0       0
  1911 ;;      Totals:         7       0       0       0       0       0       0       0       0       0       0       0       
      +0       0       0
  1912 ;;Total ram usage:        7 bytes
  1913 ;; Hardware stack levels used: 1
  1914 ;; Hardware stack levels required when called: 5
  1915 ;; This function calls:
  1916 ;;		_fputc
  1917 ;;		_fputs
  1918 ;; This function is called by:
  1919 ;;		_dtoa
  1920 ;; This function uses a non-reentrant model
  1921 ;;
  1922                           
  1923                           	psect	text7
  1924   0019E2                     __ptext7:
  1925                           	callstack 0
  1926   0019E2                     _pad:
  1927                           	callstack 21
  1928   0019E2                     
  1929                           ;C:\Program Files\Microchip\xc8\v2.45\pic\sources\c99\common\doprnt.c: 193: static void 
      +                          pad(FILE *fp, char *buf, int p);C:\Program Files\Microchip\xc8\v2.45\pic\sources\c99\com
      +                          mon\doprnt.c: 194: {;C:\Program Files\Microchip\xc8\v2.45\pic\sources\c99\common\doprnt.
      +                          c: 195:     int i;;C:\Program Files\Microchip\xc8\v2.45\pic\sources\c99\common\doprnt.c:
      +                           199:     if (flags & (1 << 0)) {
  1930   0019E2  A05A               	btfss	_flags^0,0,c
  1931   0019E4  EFF6  F00C         	goto	u2321
  1932   0019E8  EFF8  F00C         	goto	u2320
  1933   0019EC                     u2321:
  1934   0019EC  EFFE  F00C         	goto	l2599
  1935   0019F0                     u2320:
  1936   0019F0                     
  1937                           ;C:\Program Files\Microchip\xc8\v2.45\pic\sources\c99\common\doprnt.c: 200:         fput
      +                          s((const char *)buf, fp);
  1938   0019F0  C012  F00C         	movff	pad@buf,fputs@s
  1939   0019F4  C011  F00D         	movff	pad@fp,fputs@fp
  1940   0019F8  ECCC  F00E         	call	_fputs	;wreg free
  1941   0019FC                     l2599:
  1942                           
  1943                           ;C:\Program Files\Microchip\xc8\v2.45\pic\sources\c99\common\doprnt.c: 205:  if (p < 0) 
      +                          {
  1944   0019FC  BE14               	btfsc	(pad@p+1)^0,7,c
  1945   0019FE  EF05  F00D         	goto	u2330
  1946   001A02  EF03  F00D         	goto	u2331
  1947   001A06                     u2331:
  1948   001A06  EF09  F00D         	goto	l1017
  1949   001A0A                     u2330:
  1950   001A0A                     
  1951                           ;C:\Program Files\Microchip\xc8\v2.45\pic\sources\c99\common\doprnt.c: 206:   p = 0;
  1952   001A0A  0E00               	movlw	0
  1953   001A0C  6E14               	movwf	(pad@p+1)^0,c
  1954   001A0E  0E00               	movlw	0
  1955   001A10  6E13               	movwf	pad@p^0,c
  1956   001A12                     l1017:
  1957                           
  1958                           ;C:\Program Files\Microchip\xc8\v2.45\pic\sources\c99\common\doprnt.c: 208:     i = 0;
  1959   001A12  0E00               	movlw	0
  1960   001A14  6E17               	movwf	(pad@i+1)^0,c
  1961   001A16  0E00               	movlw	0
  1962   001A18  6E16               	movwf	pad@i^0,c
  1963                           
  1964                           ;C:\Program Files\Microchip\xc8\v2.45\pic\sources\c99\common\doprnt.c: 209:     while (i
      +                           < p) {
  1965   001A1A  EF19  F00D         	goto	l2607
  1966   001A1E                     l2603:
  1967                           
  1968                           ;C:\Program Files\Microchip\xc8\v2.45\pic\sources\c99\common\doprnt.c: 210:         fput
      +                          c(' ', fp);
  1969   001A1E  0E00               	movlw	0
  1970   001A20  6E05               	movwf	(fputc@c+1)^0,c
  1971   001A22  0E20               	movlw	32
  1972   001A24  6E04               	movwf	fputc@c^0,c
  1973   001A26  C011  F006         	movff	pad@fp,fputc@fp
  1974   001A2A  EC4B  F00C         	call	_fputc	;wreg free
  1975   001A2E                     
  1976                           ;C:\Program Files\Microchip\xc8\v2.45\pic\sources\c99\common\doprnt.c: 211:         ++i;
  1977   001A2E  4A16               	infsnz	pad@i^0,f,c
  1978   001A30  2A17               	incf	(pad@i+1)^0,f,c
  1979   001A32                     l2607:
  1980                           
  1981                           ;C:\Program Files\Microchip\xc8\v2.45\pic\sources\c99\common\doprnt.c: 209:     while (i
      +                           < p) {
  1982   001A32  5013               	movf	pad@p^0,w,c
  1983   001A34  5C16               	subwf	pad@i^0,w,c
  1984   001A36  5017               	movf	(pad@i+1)^0,w,c
  1985   001A38  0A80               	xorlw	128
  1986   001A3A  6E15               	movwf	??_pad^0,c
  1987   001A3C  5014               	movf	(pad@p+1)^0,w,c
  1988   001A3E  0A80               	xorlw	128
  1989   001A40  5815               	subwfb	??_pad^0,w,c
  1990   001A42  A0D8               	btfss	status,0,c
  1991   001A44  EF26  F00D         	goto	u2341
  1992   001A48  EF28  F00D         	goto	u2340
  1993   001A4C                     u2341:
  1994   001A4C  EF0F  F00D         	goto	l2603
  1995   001A50                     u2340:
  1996   001A50                     
  1997                           ;C:\Program Files\Microchip\xc8\v2.45\pic\sources\c99\common\doprnt.c: 216:     if (!(fl
      +                          ags & (1 << 0))) {
  1998   001A50  B05A               	btfsc	_flags^0,0,c
  1999   001A52  EF2D  F00D         	goto	u2351
  2000   001A56  EF2F  F00D         	goto	u2350
  2001   001A5A                     u2351:
  2002   001A5A  EF35  F00D         	goto	l1022
  2003   001A5E                     u2350:
  2004   001A5E                     
  2005                           ;C:\Program Files\Microchip\xc8\v2.45\pic\sources\c99\common\doprnt.c: 218:         fput
      +                          s((const char *)buf, fp);
  2006   001A5E  C012  F00C         	movff	pad@buf,fputs@s
  2007   001A62  C011  F00D         	movff	pad@fp,fputs@fp
  2008   001A66  ECCC  F00E         	call	_fputs	;wreg free
  2009   001A6A                     l1022:
  2010   001A6A  0012               	return		;funcret
  2011   001A6C                     __end_of_pad:
  2012                           	callstack 0
  2013                           
  2014 ;; *************** function _fputs *****************
  2015 ;; Defined at:
  2016 ;;		line 8 in file "C:\Program Files\Microchip\xc8\v2.45\pic\sources\c99\common\nf_fputs.c"
  2017 ;; Parameters:    Size  Location     Type
  2018 ;;  s               1   11[COMRAM] PTR const unsigned char 
  2019 ;;		 -> dbuf(32), 
  2020 ;;  fp              1   12[COMRAM] PTR struct _IO_FILE
  2021 ;;		 -> sprintf@f(12), 
  2022 ;; Auto vars:     Size  Location     Type
  2023 ;;  i               2   14[COMRAM] int 
  2024 ;;  c               1   13[COMRAM] unsigned char 
  2025 ;; Return value:  Size  Location     Type
  2026 ;;                  2   11[COMRAM] int 
  2027 ;; Registers used:
  2028 ;;		wreg, fsr1l, fsr1h, fsr2l, fsr2h, status,2, status,0, cstack
  2029 ;; Tracked objects:
  2030 ;;		On entry : 0/0
  2031 ;;		On exit  : 0/0
  2032 ;;		Unchanged: 0/0
  2033 ;; Data sizes:     COMRAM   BANK0   BANK1   BANK2   BANK3   BANK4   BANK5   BANK6   BANK7   BANK8   BANK9  BANK10  BANK1
      +1  BANK12  BANK13
  2034 ;;      Params:         2       0       0       0       0       0       0       0       0       0       0       0       
      +0       0       0
  2035 ;;      Locals:         3       0       0       0       0       0       0       0       0       0       0       0       
      +0       0       0
  2036 ;;      Temps:          0       0       0       0       0       0       0       0       0       0       0       0       
      +0       0       0
  2037 ;;      Totals:         5       0       0       0       0       0       0       0       0       0       0       0       
      +0       0       0
  2038 ;;Total ram usage:        5 bytes
  2039 ;; Hardware stack levels used: 1
  2040 ;; Hardware stack levels required when called: 4
  2041 ;; This function calls:
  2042 ;;		_fputc
  2043 ;; This function is called by:
  2044 ;;		_pad
  2045 ;; This function uses a non-reentrant model
  2046 ;;
  2047                           
  2048                           	psect	text8
  2049   001D98                     __ptext8:
  2050                           	callstack 0
  2051   001D98                     _fputs:
  2052                           	callstack 21
  2053   001D98  0E00               	movlw	0
  2054   001D9A  6E10               	movwf	(fputs@i+1)^0,c
  2055   001D9C  0E00               	movlw	0
  2056   001D9E  6E0F               	movwf	fputs@i^0,c
  2057   001DA0  EFDB  F00E         	goto	l2507
  2058   001DA4                     l2503:
  2059   001DA4  C00E  F004         	movff	fputs@c,fputc@c
  2060   001DA8  6A05               	clrf	(fputc@c+1)^0,c
  2061   001DAA  C00D  F006         	movff	fputs@fp,fputc@fp
  2062   001DAE  EC4B  F00C         	call	_fputc	;wreg free
  2063   001DB2  4A0F               	infsnz	fputs@i^0,f,c
  2064   001DB4  2A10               	incf	(fputs@i+1)^0,f,c
  2065   001DB6                     l2507:
  2066   001DB6  500C               	movf	fputs@s^0,w,c
  2067   001DB8  240F               	addwf	fputs@i^0,w,c
  2068   001DBA  6ED9               	movwf	fsr2l,c
  2069   001DBC  6ADA               	clrf	fsr2h,c
  2070   001DBE  50DF               	movf	indf2,w,c
  2071   001DC0  6E0E               	movwf	fputs@c^0,c
  2072   001DC2  500E               	movf	fputs@c^0,w,c
  2073   001DC4  A4D8               	btfss	status,2,c
  2074   001DC6  EFE7  F00E         	goto	u2191
  2075   001DCA  EFE9  F00E         	goto	u2190
  2076   001DCE                     u2191:
  2077   001DCE  EFD2  F00E         	goto	l2503
  2078   001DD2                     u2190:
  2079   001DD2  0012               	return		;funcret
  2080   001DD4                     __end_of_fputs:
  2081                           	callstack 0
  2082                           
  2083 ;; *************** function _fputc *****************
  2084 ;; Defined at:
  2085 ;;		line 8 in file "C:\Program Files\Microchip\xc8\v2.45\pic\sources\c99\common\nf_fputc.c"
  2086 ;; Parameters:    Size  Location     Type
  2087 ;;  c               2    3[COMRAM] int 
  2088 ;;  fp              1    5[COMRAM] PTR struct _IO_FILE
  2089 ;;		 -> sprintf@f(12), 
  2090 ;; Auto vars:     Size  Location     Type
  2091 ;;		None
  2092 ;; Return value:  Size  Location     Type
  2093 ;;                  2    3[COMRAM] int 
  2094 ;; Registers used:
  2095 ;;		wreg, fsr1l, fsr1h, fsr2l, fsr2h, status,2, status,0, cstack
  2096 ;; Tracked objects:
  2097 ;;		On entry : 0/0
  2098 ;;		On exit  : 0/0
  2099 ;;		Unchanged: 0/0
  2100 ;; Data sizes:     COMRAM   BANK0   BANK1   BANK2   BANK3   BANK4   BANK5   BANK6   BANK7   BANK8   BANK9  BANK10  BANK1
      +1  BANK12  BANK13
  2101 ;;      Params:         3       0       0       0       0       0       0       0       0       0       0       0       
      +0       0       0
  2102 ;;      Locals:         0       0       0       0       0       0       0       0       0       0       0       0       
      +0       0       0
  2103 ;;      Temps:          5       0       0       0       0       0       0       0       0       0       0       0       
      +0       0       0
  2104 ;;      Totals:         8       0       0       0       0       0       0       0       0       0       0       0       
      +0       0       0
  2105 ;;Total ram usage:        8 bytes
  2106 ;; Hardware stack levels used: 1
  2107 ;; Hardware stack levels required when called: 3
  2108 ;; This function calls:
  2109 ;;		_putch
  2110 ;; This function is called by:
  2111 ;;		_pad
  2112 ;;		_vfpfcnvrt
  2113 ;;		_fputs
  2114 ;; This function uses a non-reentrant model
  2115 ;;
  2116                           
  2117                           	psect	text9
  2118   001896                     __ptext9:
  2119                           	callstack 0
  2120   001896                     _fputc:
  2121                           	callstack 24
  2122   001896  5006               	movf	fputc@fp^0,w,c
  2123   001898  B4D8               	btfsc	status,2,c
  2124   00189A  EF51  F00C         	goto	u2151
  2125   00189E  EF53  F00C         	goto	u2150
  2126   0018A2                     u2151:
  2127   0018A2  EF5B  F00C         	goto	l2491
  2128   0018A6                     u2150:
  2129   0018A6  5006               	movf	fputc@fp^0,w,c
  2130   0018A8  A4D8               	btfss	status,2,c
  2131   0018AA  EF59  F00C         	goto	u2161
  2132   0018AE  EF5B  F00C         	goto	u2160
  2133   0018B2                     u2161:
  2134   0018B2  EF60  F00C         	goto	l2493
  2135   0018B6                     u2160:
  2136   0018B6                     l2491:
  2137   0018B6  5004               	movf	fputc@c^0,w,c
  2138   0018B8  ECFC  F00F         	call	_putch
  2139   0018BC  EF9F  F00C         	goto	l1086
  2140   0018C0                     l2493:
  2141   0018C0  5006               	movf	fputc@fp^0,w,c
  2142   0018C2  6ED9               	movwf	fsr2l,c
  2143   0018C4  6ADA               	clrf	fsr2h,c
  2144   0018C6  0E0A               	movlw	10
  2145   0018C8  26D9               	addwf	fsr2l,f,c
  2146   0018CA  50DE               	movf	postinc2,w,c
  2147   0018CC  10DE               	iorwf	postinc2,w,c
  2148   0018CE  B4D8               	btfsc	status,2,c
  2149   0018D0  EF6C  F00C         	goto	u2171
  2150   0018D4  EF6E  F00C         	goto	u2170
  2151   0018D8                     u2171:
  2152   0018D8  EF87  F00C         	goto	l2497
  2153   0018DC                     u2170:
  2154   0018DC  5006               	movf	fputc@fp^0,w,c
  2155   0018DE  6ED9               	movwf	fsr2l,c
  2156   0018E0  6ADA               	clrf	fsr2h,c
  2157   0018E2  0E0A               	movlw	10
  2158   0018E4  26D9               	addwf	fsr2l,f,c
  2159   0018E6  5006               	movf	fputc@fp^0,w,c
  2160   0018E8  6EE1               	movwf	fsr1l,c
  2161   0018EA  6AE2               	clrf	fsr1h,c
  2162   0018EC  0E03               	movlw	3
  2163   0018EE  26E1               	addwf	fsr1l,f,c
  2164   0018F0  50DE               	movf	postinc2,w,c
  2165   0018F2  5CE6               	subwf	postinc1,w,c
  2166   0018F4  50E6               	movf	postinc1,w,c
  2167   0018F6  0A80               	xorlw	128
  2168   0018F8  6E0B               	movwf	(??_fputc+4)^0,c
  2169   0018FA  50DE               	movf	postinc2,w,c
  2170   0018FC  0A80               	xorlw	128
  2171   0018FE  580B               	subwfb	(??_fputc+4)^0,w,c
  2172   001900  B0D8               	btfsc	status,0,c
  2173   001902  EF85  F00C         	goto	u2181
  2174   001906  EF87  F00C         	goto	u2180
  2175   00190A                     u2181:
  2176   00190A  EF9F  F00C         	goto	l1086
  2177   00190E                     u2180:
  2178   00190E                     l2497:
  2179   00190E  5006               	movf	fputc@fp^0,w,c
  2180   001910  6ED9               	movwf	fsr2l,c
  2181   001912  6ADA               	clrf	fsr2h,c
  2182   001914  0E03               	movlw	3
  2183   001916  26D9               	addwf	fsr2l,f,c
  2184   001918  50DF               	movf	indf2,w,c
  2185   00191A  6E07               	movwf	??_fputc^0,c
  2186   00191C  5006               	movf	fputc@fp^0,w,c
  2187   00191E  6ED9               	movwf	fsr2l,c
  2188   001920  6ADA               	clrf	fsr2h,c
  2189   001922  50DF               	movf	indf2,w,c
  2190   001924  2407               	addwf	??_fputc^0,w,c
  2191   001926  6ED9               	movwf	fsr2l,c
  2192   001928  6ADA               	clrf	fsr2h,c
  2193   00192A  C004  FFDF         	movff	fputc@c,indf2
  2194   00192E  5006               	movf	fputc@fp^0,w,c
  2195   001930  6ED9               	movwf	fsr2l,c
  2196   001932  6ADA               	clrf	fsr2h,c
  2197   001934  0E03               	movlw	3
  2198   001936  26D9               	addwf	fsr2l,f,c
  2199   001938  2ADE               	incf	postinc2,f,c
  2200   00193A  0E00               	movlw	0
  2201   00193C  22DD               	addwfc	postdec2,f,c
  2202   00193E                     l1086:
  2203   00193E  0012               	return		;funcret
  2204   001940                     __end_of_fputc:
  2205                           	callstack 0
  2206                           
  2207 ;; *************** function _putch *****************
  2208 ;; Defined at:
  2209 ;;		line 7 in file "C:\Program Files\Microchip\xc8\v2.45\pic\sources\c99\common\putch.c"
  2210 ;; Parameters:    Size  Location     Type
  2211 ;;  c               1    wreg     unsigned char 
  2212 ;; Auto vars:     Size  Location     Type
  2213 ;;  c               1    0[COMRAM] unsigned char 
  2214 ;; Return value:  Size  Location     Type
  2215 ;;                  1    wreg      void 
  2216 ;; Registers used:
  2217 ;;		wreg
  2218 ;; Tracked objects:
  2219 ;;		On entry : 0/0
  2220 ;;		On exit  : 0/0
  2221 ;;		Unchanged: 0/0
  2222 ;; Data sizes:     COMRAM   BANK0   BANK1   BANK2   BANK3   BANK4   BANK5   BANK6   BANK7   BANK8   BANK9  BANK10  BANK1
      +1  BANK12  BANK13
  2223 ;;      Params:         0       0       0       0       0       0       0       0       0       0       0       0       
      +0       0       0
  2224 ;;      Locals:         0       0       0       0       0       0       0       0       0       0       0       0       
      +0       0       0
  2225 ;;      Temps:          0       0       0       0       0       0       0       0       0       0       0       0       
      +0       0       0
  2226 ;;      Totals:         0       0       0       0       0       0       0       0       0       0       0       0       
      +0       0       0
  2227 ;;Total ram usage:        0 bytes
  2228 ;; Hardware stack levels used: 1
  2229 ;; Hardware stack levels required when called: 2
  2230 ;; This function calls:
  2231 ;;		Nothing
  2232 ;; This function is called by:
  2233 ;;		_fputc
  2234 ;; This function uses a non-reentrant model
  2235 ;;
  2236                           
  2237                           	psect	text10
  2238   001FF8                     __ptext10:
  2239                           	callstack 0
  2240   001FF8                     _putch:
  2241                           	callstack 24
  2242   001FF8  0012               	return		;funcret
  2243   001FFA                     __end_of_putch:
  2244                           	callstack 0
  2245                           
  2246 ;; *************** function _abs *****************
  2247 ;; Defined at:
  2248 ;;		line 1 in file "C:\Program Files\Microchip\xc8\v2.45\pic\sources\c99\common\abs.c"
  2249 ;; Parameters:    Size  Location     Type
  2250 ;;  a               2    9[COMRAM] int 
  2251 ;; Auto vars:     Size  Location     Type
  2252 ;;		None
  2253 ;; Return value:  Size  Location     Type
  2254 ;;                  2    9[COMRAM] int 
  2255 ;; Registers used:
  2256 ;;		wreg, status,2, status,0
  2257 ;; Tracked objects:
  2258 ;;		On entry : 0/0
  2259 ;;		On exit  : 0/0
  2260 ;;		Unchanged: 0/0
  2261 ;; Data sizes:     COMRAM   BANK0   BANK1   BANK2   BANK3   BANK4   BANK5   BANK6   BANK7   BANK8   BANK9  BANK10  BANK1
      +1  BANK12  BANK13
  2262 ;;      Params:         2       0       0       0       0       0       0       0       0       0       0       0       
      +0       0       0
  2263 ;;      Locals:         0       0       0       0       0       0       0       0       0       0       0       0       
      +0       0       0
  2264 ;;      Temps:          2       0       0       0       0       0       0       0       0       0       0       0       
      +0       0       0
  2265 ;;      Totals:         4       0       0       0       0       0       0       0       0       0       0       0       
      +0       0       0
  2266 ;;Total ram usage:        4 bytes
  2267 ;; Hardware stack levels used: 1
  2268 ;; Hardware stack levels required when called: 2
  2269 ;; This function calls:
  2270 ;;		Nothing
  2271 ;; This function is called by:
  2272 ;;		_dtoa
  2273 ;; This function uses a non-reentrant model
  2274 ;;
  2275                           
  2276                           	psect	text11
  2277   001E7C                     __ptext11:
  2278                           	callstack 0
  2279   001E7C                     _abs:
  2280                           	callstack 24
  2281   001E7C  BE0B               	btfsc	(abs@a+1)^0,7,c
  2282   001E7E  EF43  F00F         	goto	u2361
  2283   001E82  EF45  F00F         	goto	u2360
  2284   001E86                     u2361:
  2285   001E86  EF4B  F00F         	goto	l1071
  2286   001E8A                     u2360:
  2287   001E8A  C00A  F00A         	movff	abs@a,?_abs
  2288   001E8E  C00B  F00B         	movff	abs@a+1,?_abs+1
  2289   001E92  EF57  F00F         	goto	l1074
  2290   001E96                     l1071:
  2291   001E96  C00A  F00C         	movff	abs@a,??_abs
  2292   001E9A  C00B  F00D         	movff	abs@a+1,??_abs+1
  2293   001E9E  1E0C               	comf	??_abs^0,f,c
  2294   001EA0  1E0D               	comf	(??_abs+1)^0,f,c
  2295   001EA2  4A0C               	infsnz	??_abs^0,f,c
  2296   001EA4  2A0D               	incf	(??_abs+1)^0,f,c
  2297   001EA6  C00C  F00A         	movff	??_abs,?_abs
  2298   001EAA  C00D  F00B         	movff	??_abs+1,?_abs+1
  2299   001EAE                     l1074:
  2300   001EAE  0012               	return		;funcret
  2301   001EB0                     __end_of_abs:
  2302                           	callstack 0
  2303                           
  2304 ;; *************** function ___awmod *****************
  2305 ;; Defined at:
  2306 ;;		line 7 in file "C:\Program Files\Microchip\xc8\v2.45\pic\sources\c99\common\awmod.c"
  2307 ;; Parameters:    Size  Location     Type
  2308 ;;  dividend        2    3[COMRAM] int 
  2309 ;;  divisor         2    5[COMRAM] int 
  2310 ;; Auto vars:     Size  Location     Type
  2311 ;;  sign            1    8[COMRAM] unsigned char 
  2312 ;;  counter         1    7[COMRAM] unsigned char 
  2313 ;; Return value:  Size  Location     Type
  2314 ;;                  2    3[COMRAM] int 
  2315 ;; Registers used:
  2316 ;;		wreg, status,2, status,0
  2317 ;; Tracked objects:
  2318 ;;		On entry : 0/0
  2319 ;;		On exit  : 0/0
  2320 ;;		Unchanged: 0/0
  2321 ;; Data sizes:     COMRAM   BANK0   BANK1   BANK2   BANK3   BANK4   BANK5   BANK6   BANK7   BANK8   BANK9  BANK10  BANK1
      +1  BANK12  BANK13
  2322 ;;      Params:         4       0       0       0       0       0       0       0       0       0       0       0       
      +0       0       0
  2323 ;;      Locals:         2       0       0       0       0       0       0       0       0       0       0       0       
      +0       0       0
  2324 ;;      Temps:          0       0       0       0       0       0       0       0       0       0       0       0       
      +0       0       0
  2325 ;;      Totals:         6       0       0       0       0       0       0       0       0       0       0       0       
      +0       0       0
  2326 ;;Total ram usage:        6 bytes
  2327 ;; Hardware stack levels used: 1
  2328 ;; Hardware stack levels required when called: 2
  2329 ;; This function calls:
  2330 ;;		Nothing
  2331 ;; This function is called by:
  2332 ;;		_dtoa
  2333 ;; This function uses a non-reentrant model
  2334 ;;
  2335                           
  2336                           	psect	text12
  2337   001738                     __ptext12:
  2338                           	callstack 0
  2339   001738                     ___awmod:
  2340                           	callstack 24
  2341   001738  0E00               	movlw	0
  2342   00173A  6E09               	movwf	___awmod@sign^0,c
  2343   00173C  BE05               	btfsc	(___awmod@dividend+1)^0,7,c
  2344   00173E  EFA5  F00B         	goto	u2260
  2345   001742  EFA3  F00B         	goto	u2261
  2346   001746                     u2261:
  2347   001746  EFAB  F00B         	goto	l2567
  2348   00174A                     u2260:
  2349   00174A  6C04               	negf	___awmod@dividend^0,c
  2350   00174C  1E05               	comf	(___awmod@dividend+1)^0,f,c
  2351   00174E  B0D8               	btfsc	status,0,c
  2352   001750  2A05               	incf	(___awmod@dividend+1)^0,f,c
  2353   001752  0E01               	movlw	1
  2354   001754  6E09               	movwf	___awmod@sign^0,c
  2355   001756                     l2567:
  2356   001756  BE07               	btfsc	(___awmod@divisor+1)^0,7,c
  2357   001758  EFB2  F00B         	goto	u2270
  2358   00175C  EFB0  F00B         	goto	u2271
  2359   001760                     u2271:
  2360   001760  EFB6  F00B         	goto	l2571
  2361   001764                     u2270:
  2362   001764  6C06               	negf	___awmod@divisor^0,c
  2363   001766  1E07               	comf	(___awmod@divisor+1)^0,f,c
  2364   001768  B0D8               	btfsc	status,0,c
  2365   00176A  2A07               	incf	(___awmod@divisor+1)^0,f,c
  2366   00176C                     l2571:
  2367   00176C  5006               	movf	___awmod@divisor^0,w,c
  2368   00176E  1007               	iorwf	(___awmod@divisor+1)^0,w,c
  2369   001770  B4D8               	btfsc	status,2,c
  2370   001772  EFBD  F00B         	goto	u2281
  2371   001776  EFBF  F00B         	goto	u2280
  2372   00177A                     u2281:
  2373   00177A  EFE3  F00B         	goto	l2587
  2374   00177E                     u2280:
  2375   00177E  0E01               	movlw	1
  2376   001780  6E08               	movwf	___awmod@counter^0,c
  2377   001782  EFC7  F00B         	goto	l2577
  2378   001786                     l2575:
  2379   001786  90D8               	bcf	status,0,c
  2380   001788  3606               	rlcf	___awmod@divisor^0,f,c
  2381   00178A  3607               	rlcf	(___awmod@divisor+1)^0,f,c
  2382   00178C  2A08               	incf	___awmod@counter^0,f,c
  2383   00178E                     l2577:
  2384   00178E  AE07               	btfss	(___awmod@divisor+1)^0,7,c
  2385   001790  EFCC  F00B         	goto	u2291
  2386   001794  EFCE  F00B         	goto	u2290
  2387   001798                     u2291:
  2388   001798  EFC3  F00B         	goto	l2575
  2389   00179C                     u2290:
  2390   00179C                     l2579:
  2391   00179C  5006               	movf	___awmod@divisor^0,w,c
  2392   00179E  5C04               	subwf	___awmod@dividend^0,w,c
  2393   0017A0  5007               	movf	(___awmod@divisor+1)^0,w,c
  2394   0017A2  5805               	subwfb	(___awmod@dividend+1)^0,w,c
  2395   0017A4  A0D8               	btfss	status,0,c
  2396   0017A6  EFD7  F00B         	goto	u2301
  2397   0017AA  EFD9  F00B         	goto	u2300
  2398   0017AE                     u2301:
  2399   0017AE  EFDD  F00B         	goto	l2583
  2400   0017B2                     u2300:
  2401   0017B2  5006               	movf	___awmod@divisor^0,w,c
  2402   0017B4  5E04               	subwf	___awmod@dividend^0,f,c
  2403   0017B6  5007               	movf	(___awmod@divisor+1)^0,w,c
  2404   0017B8  5A05               	subwfb	(___awmod@dividend+1)^0,f,c
  2405   0017BA                     l2583:
  2406   0017BA  90D8               	bcf	status,0,c
  2407   0017BC  3207               	rrcf	(___awmod@divisor+1)^0,f,c
  2408   0017BE  3206               	rrcf	___awmod@divisor^0,f,c
  2409   0017C0  2E08               	decfsz	___awmod@counter^0,f,c
  2410   0017C2  EFCE  F00B         	goto	l2579
  2411   0017C6                     l2587:
  2412   0017C6  5009               	movf	___awmod@sign^0,w,c
  2413   0017C8  B4D8               	btfsc	status,2,c
  2414   0017CA  EFE9  F00B         	goto	u2311
  2415   0017CE  EFEB  F00B         	goto	u2310
  2416   0017D2                     u2311:
  2417   0017D2  EFEF  F00B         	goto	l2591
  2418   0017D6                     u2310:
  2419   0017D6  6C04               	negf	___awmod@dividend^0,c
  2420   0017D8  1E05               	comf	(___awmod@dividend+1)^0,f,c
  2421   0017DA  B0D8               	btfsc	status,0,c
  2422   0017DC  2A05               	incf	(___awmod@dividend+1)^0,f,c
  2423   0017DE                     l2591:
  2424   0017DE  C004  F004         	movff	___awmod@dividend,?___awmod
  2425   0017E2  C005  F005         	movff	___awmod@dividend+1,?___awmod+1
  2426   0017E6  0012               	return		;funcret
  2427   0017E8                     __end_of___awmod:
  2428                           	callstack 0
  2429                           
  2430 ;; *************** function ___awdiv *****************
  2431 ;; Defined at:
  2432 ;;		line 7 in file "C:\Program Files\Microchip\xc8\v2.45\pic\sources\c99\common\awdiv.c"
  2433 ;; Parameters:    Size  Location     Type
  2434 ;;  dividend        2    3[COMRAM] int 
  2435 ;;  divisor         2    5[COMRAM] int 
  2436 ;; Auto vars:     Size  Location     Type
  2437 ;;  quotient        2    9[COMRAM] int 
  2438 ;;  sign            1    8[COMRAM] unsigned char 
  2439 ;;  counter         1    7[COMRAM] unsigned char 
  2440 ;; Return value:  Size  Location     Type
  2441 ;;                  2    3[COMRAM] int 
  2442 ;; Registers used:
  2443 ;;		wreg, status,2, status,0
  2444 ;; Tracked objects:
  2445 ;;		On entry : 0/0
  2446 ;;		On exit  : 0/0
  2447 ;;		Unchanged: 0/0
  2448 ;; Data sizes:     COMRAM   BANK0   BANK1   BANK2   BANK3   BANK4   BANK5   BANK6   BANK7   BANK8   BANK9  BANK10  BANK1
      +1  BANK12  BANK13
  2449 ;;      Params:         4       0       0       0       0       0       0       0       0       0       0       0       
      +0       0       0
  2450 ;;      Locals:         4       0       0       0       0       0       0       0       0       0       0       0       
      +0       0       0
  2451 ;;      Temps:          0       0       0       0       0       0       0       0       0       0       0       0       
      +0       0       0
  2452 ;;      Totals:         8       0       0       0       0       0       0       0       0       0       0       0       
      +0       0       0
  2453 ;;Total ram usage:        8 bytes
  2454 ;; Hardware stack levels used: 1
  2455 ;; Hardware stack levels required when called: 2
  2456 ;; This function calls:
  2457 ;;		Nothing
  2458 ;; This function is called by:
  2459 ;;		_dtoa
  2460 ;; This function uses a non-reentrant model
  2461 ;;
  2462                           
  2463                           	psect	text13
  2464   001674                     __ptext13:
  2465                           	callstack 0
  2466   001674                     ___awdiv:
  2467                           	callstack 24
  2468   001674  0E00               	movlw	0
  2469   001676  6E09               	movwf	___awdiv@sign^0,c
  2470   001678  BE07               	btfsc	(___awdiv@divisor+1)^0,7,c
  2471   00167A  EF43  F00B         	goto	u2200
  2472   00167E  EF41  F00B         	goto	u2201
  2473   001682                     u2201:
  2474   001682  EF49  F00B         	goto	l2523
  2475   001686                     u2200:
  2476   001686  6C06               	negf	___awdiv@divisor^0,c
  2477   001688  1E07               	comf	(___awdiv@divisor+1)^0,f,c
  2478   00168A  B0D8               	btfsc	status,0,c
  2479   00168C  2A07               	incf	(___awdiv@divisor+1)^0,f,c
  2480   00168E  0E01               	movlw	1
  2481   001690  6E09               	movwf	___awdiv@sign^0,c
  2482   001692                     l2523:
  2483   001692  BE05               	btfsc	(___awdiv@dividend+1)^0,7,c
  2484   001694  EF50  F00B         	goto	u2210
  2485   001698  EF4E  F00B         	goto	u2211
  2486   00169C                     u2211:
  2487   00169C  EF56  F00B         	goto	l2529
  2488   0016A0                     u2210:
  2489   0016A0  6C04               	negf	___awdiv@dividend^0,c
  2490   0016A2  1E05               	comf	(___awdiv@dividend+1)^0,f,c
  2491   0016A4  B0D8               	btfsc	status,0,c
  2492   0016A6  2A05               	incf	(___awdiv@dividend+1)^0,f,c
  2493   0016A8  0E01               	movlw	1
  2494   0016AA  1A09               	xorwf	___awdiv@sign^0,f,c
  2495   0016AC                     l2529:
  2496   0016AC  0E00               	movlw	0
  2497   0016AE  6E0B               	movwf	(___awdiv@quotient+1)^0,c
  2498   0016B0  0E00               	movlw	0
  2499   0016B2  6E0A               	movwf	___awdiv@quotient^0,c
  2500   0016B4  5006               	movf	___awdiv@divisor^0,w,c
  2501   0016B6  1007               	iorwf	(___awdiv@divisor+1)^0,w,c
  2502   0016B8  B4D8               	btfsc	status,2,c
  2503   0016BA  EF61  F00B         	goto	u2221
  2504   0016BE  EF63  F00B         	goto	u2220
  2505   0016C2                     u2221:
  2506   0016C2  EF8B  F00B         	goto	l2551
  2507   0016C6                     u2220:
  2508   0016C6  0E01               	movlw	1
  2509   0016C8  6E08               	movwf	___awdiv@counter^0,c
  2510   0016CA  EF6B  F00B         	goto	l2537
  2511   0016CE                     l2535:
  2512   0016CE  90D8               	bcf	status,0,c
  2513   0016D0  3606               	rlcf	___awdiv@divisor^0,f,c
  2514   0016D2  3607               	rlcf	(___awdiv@divisor+1)^0,f,c
  2515   0016D4  2A08               	incf	___awdiv@counter^0,f,c
  2516   0016D6                     l2537:
  2517   0016D6  AE07               	btfss	(___awdiv@divisor+1)^0,7,c
  2518   0016D8  EF70  F00B         	goto	u2231
  2519   0016DC  EF72  F00B         	goto	u2230
  2520   0016E0                     u2231:
  2521   0016E0  EF67  F00B         	goto	l2535
  2522   0016E4                     u2230:
  2523   0016E4                     l2539:
  2524   0016E4  90D8               	bcf	status,0,c
  2525   0016E6  360A               	rlcf	___awdiv@quotient^0,f,c
  2526   0016E8  360B               	rlcf	(___awdiv@quotient+1)^0,f,c
  2527   0016EA  5006               	movf	___awdiv@divisor^0,w,c
  2528   0016EC  5C04               	subwf	___awdiv@dividend^0,w,c
  2529   0016EE  5007               	movf	(___awdiv@divisor+1)^0,w,c
  2530   0016F0  5805               	subwfb	(___awdiv@dividend+1)^0,w,c
  2531   0016F2  A0D8               	btfss	status,0,c
  2532   0016F4  EF7E  F00B         	goto	u2241
  2533   0016F8  EF80  F00B         	goto	u2240
  2534   0016FC                     u2241:
  2535   0016FC  EF85  F00B         	goto	l2547
  2536   001700                     u2240:
  2537   001700  5006               	movf	___awdiv@divisor^0,w,c
  2538   001702  5E04               	subwf	___awdiv@dividend^0,f,c
  2539   001704  5007               	movf	(___awdiv@divisor+1)^0,w,c
  2540   001706  5A05               	subwfb	(___awdiv@dividend+1)^0,f,c
  2541   001708  800A               	bsf	___awdiv@quotient^0,0,c
  2542   00170A                     l2547:
  2543   00170A  90D8               	bcf	status,0,c
  2544   00170C  3207               	rrcf	(___awdiv@divisor+1)^0,f,c
  2545   00170E  3206               	rrcf	___awdiv@divisor^0,f,c
  2546   001710  2E08               	decfsz	___awdiv@counter^0,f,c
  2547   001712  EF72  F00B         	goto	l2539
  2548   001716                     l2551:
  2549   001716  5009               	movf	___awdiv@sign^0,w,c
  2550   001718  B4D8               	btfsc	status,2,c
  2551   00171A  EF91  F00B         	goto	u2251
  2552   00171E  EF93  F00B         	goto	u2250
  2553   001722                     u2251:
  2554   001722  EF97  F00B         	goto	l2555
  2555   001726                     u2250:
  2556   001726  6C0A               	negf	___awdiv@quotient^0,c
  2557   001728  1E0B               	comf	(___awdiv@quotient+1)^0,f,c
  2558   00172A  B0D8               	btfsc	status,0,c
  2559   00172C  2A0B               	incf	(___awdiv@quotient+1)^0,f,c
  2560   00172E                     l2555:
  2561   00172E  C00A  F004         	movff	___awdiv@quotient,?___awdiv
  2562   001732  C00B  F005         	movff	___awdiv@quotient+1,?___awdiv+1
  2563   001736  0012               	return		;funcret
  2564   001738                     __end_of___awdiv:
  2565                           	callstack 0
  2566                           
  2567 ;; *************** function _month_days *****************
  2568 ;; Defined at:
  2569 ;;		line 16 in file "datetime.c"
  2570 ;; Parameters:    Size  Location     Type
  2571 ;;  month           2    8[COMRAM] unsigned int 
  2572 ;;  year            2   10[COMRAM] unsigned int 
  2573 ;; Auto vars:     Size  Location     Type
  2574 ;;  monthDays       2   14[COMRAM] unsigned int 
  2575 ;; Return value:  Size  Location     Type
  2576 ;;                  2    8[COMRAM] unsigned int 
  2577 ;; Registers used:
  2578 ;;		wreg, status,2, status,0, cstack
  2579 ;; Tracked objects:
  2580 ;;		On entry : 0/0
  2581 ;;		On exit  : 0/0
  2582 ;;		Unchanged: 0/0
  2583 ;; Data sizes:     COMRAM   BANK0   BANK1   BANK2   BANK3   BANK4   BANK5   BANK6   BANK7   BANK8   BANK9  BANK10  BANK1
      +1  BANK12  BANK13
  2584 ;;      Params:         4       0       0       0       0       0       0       0       0       0       0       0       
      +0       0       0
  2585 ;;      Locals:         2       0       0       0       0       0       0       0       0       0       0       0       
      +0       0       0
  2586 ;;      Temps:          2       0       0       0       0       0       0       0       0       0       0       0       
      +0       0       0
  2587 ;;      Totals:         8       0       0       0       0       0       0       0       0       0       0       0       
      +0       0       0
  2588 ;;Total ram usage:        8 bytes
  2589 ;; Hardware stack levels used: 1
  2590 ;; Hardware stack levels required when called: 3
  2591 ;; This function calls:
  2592 ;;		___lwmod
  2593 ;; This function is called by:
  2594 ;;		_disp_time
  2595 ;; This function uses a non-reentrant model
  2596 ;;
  2597                           
  2598                           	psect	text14
  2599   001030                     __ptext14:
  2600                           	callstack 0
  2601   001030                     _month_days:
  2602                           	callstack 26
  2603   001030                     
  2604                           ;datetime.c: 16: unsigned int month_days(unsigned int month, unsigned int year);datetime
      +                          .c: 17: {;datetime.c: 18:     unsigned int monthDays;;datetime.c: 20:     if (month == 1
      +                           || month == 3 || month == 5 || month == 7 || month == 8 || month == 10 || month == 12)
  2605   001030  0409               	decf	month_days@month^0,w,c
  2606   001032  100A               	iorwf	(month_days@month+1)^0,w,c
  2607   001034  B4D8               	btfsc	status,2,c
  2608   001036  EF1F  F008         	goto	u2751
  2609   00103A  EF21  F008         	goto	u2750
  2610   00103E                     u2751:
  2611   00103E  EF5D  F008         	goto	l2865
  2612   001042                     u2750:
  2613   001042  0E03               	movlw	3
  2614   001044  1809               	xorwf	month_days@month^0,w,c
  2615   001046  100A               	iorwf	(month_days@month+1)^0,w,c
  2616   001048  B4D8               	btfsc	status,2,c
  2617   00104A  EF29  F008         	goto	u2761
  2618   00104E  EF2B  F008         	goto	u2760
  2619   001052                     u2761:
  2620   001052  EF5D  F008         	goto	l2865
  2621   001056                     u2760:
  2622   001056  0E05               	movlw	5
  2623   001058  1809               	xorwf	month_days@month^0,w,c
  2624   00105A  100A               	iorwf	(month_days@month+1)^0,w,c
  2625   00105C  B4D8               	btfsc	status,2,c
  2626   00105E  EF33  F008         	goto	u2771
  2627   001062  EF35  F008         	goto	u2770
  2628   001066                     u2771:
  2629   001066  EF5D  F008         	goto	l2865
  2630   00106A                     u2770:
  2631   00106A  0E07               	movlw	7
  2632   00106C  1809               	xorwf	month_days@month^0,w,c
  2633   00106E  100A               	iorwf	(month_days@month+1)^0,w,c
  2634   001070  B4D8               	btfsc	status,2,c
  2635   001072  EF3D  F008         	goto	u2781
  2636   001076  EF3F  F008         	goto	u2780
  2637   00107A                     u2781:
  2638   00107A  EF5D  F008         	goto	l2865
  2639   00107E                     u2780:
  2640   00107E  0E08               	movlw	8
  2641   001080  1809               	xorwf	month_days@month^0,w,c
  2642   001082  100A               	iorwf	(month_days@month+1)^0,w,c
  2643   001084  B4D8               	btfsc	status,2,c
  2644   001086  EF47  F008         	goto	u2791
  2645   00108A  EF49  F008         	goto	u2790
  2646   00108E                     u2791:
  2647   00108E  EF5D  F008         	goto	l2865
  2648   001092                     u2790:
  2649   001092  0E0A               	movlw	10
  2650   001094  1809               	xorwf	month_days@month^0,w,c
  2651   001096  100A               	iorwf	(month_days@month+1)^0,w,c
  2652   001098  B4D8               	btfsc	status,2,c
  2653   00109A  EF51  F008         	goto	u2801
  2654   00109E  EF53  F008         	goto	u2800
  2655   0010A2                     u2801:
  2656   0010A2  EF5D  F008         	goto	l2865
  2657   0010A6                     u2800:
  2658   0010A6  0E0C               	movlw	12
  2659   0010A8  1809               	xorwf	month_days@month^0,w,c
  2660   0010AA  100A               	iorwf	(month_days@month+1)^0,w,c
  2661   0010AC  A4D8               	btfss	status,2,c
  2662   0010AE  EF5B  F008         	goto	u2811
  2663   0010B2  EF5D  F008         	goto	u2810
  2664   0010B6                     u2811:
  2665   0010B6  EF63  F008         	goto	l2867
  2666   0010BA                     u2810:
  2667   0010BA                     l2865:
  2668                           
  2669                           ;datetime.c: 21:     {;datetime.c: 22:         monthDays = 31;
  2670   0010BA  0E00               	movlw	0
  2671   0010BC  6E10               	movwf	(month_days@monthDays+1)^0,c
  2672   0010BE  0E1F               	movlw	31
  2673   0010C0  6E0F               	movwf	month_days@monthDays^0,c
  2674                           
  2675                           ;datetime.c: 23:     }
  2676   0010C2  EFDA  F008         	goto	l2889
  2677   0010C6                     l2867:
  2678   0010C6  0E04               	movlw	4
  2679   0010C8  1809               	xorwf	month_days@month^0,w,c
  2680   0010CA  100A               	iorwf	(month_days@month+1)^0,w,c
  2681   0010CC  B4D8               	btfsc	status,2,c
  2682   0010CE  EF6B  F008         	goto	u2821
  2683   0010D2  EF6D  F008         	goto	u2820
  2684   0010D6                     u2821:
  2685   0010D6  EF8B  F008         	goto	l2875
  2686   0010DA                     u2820:
  2687   0010DA  0E06               	movlw	6
  2688   0010DC  1809               	xorwf	month_days@month^0,w,c
  2689   0010DE  100A               	iorwf	(month_days@month+1)^0,w,c
  2690   0010E0  B4D8               	btfsc	status,2,c
  2691   0010E2  EF75  F008         	goto	u2831
  2692   0010E6  EF77  F008         	goto	u2830
  2693   0010EA                     u2831:
  2694   0010EA  EF8B  F008         	goto	l2875
  2695   0010EE                     u2830:
  2696   0010EE  0E09               	movlw	9
  2697   0010F0  1809               	xorwf	month_days@month^0,w,c
  2698   0010F2  100A               	iorwf	(month_days@month+1)^0,w,c
  2699   0010F4  B4D8               	btfsc	status,2,c
  2700   0010F6  EF7F  F008         	goto	u2841
  2701   0010FA  EF81  F008         	goto	u2840
  2702   0010FE                     u2841:
  2703   0010FE  EF8B  F008         	goto	l2875
  2704   001102                     u2840:
  2705   001102  0E0B               	movlw	11
  2706   001104  1809               	xorwf	month_days@month^0,w,c
  2707   001106  100A               	iorwf	(month_days@month+1)^0,w,c
  2708   001108  A4D8               	btfss	status,2,c
  2709   00110A  EF89  F008         	goto	u2851
  2710   00110E  EF8B  F008         	goto	u2850
  2711   001112                     u2851:
  2712   001112  EF91  F008         	goto	l2877
  2713   001116                     u2850:
  2714   001116                     l2875:
  2715                           
  2716                           ;datetime.c: 25:     {;datetime.c: 26:         monthDays = 30;
  2717   001116  0E00               	movlw	0
  2718   001118  6E10               	movwf	(month_days@monthDays+1)^0,c
  2719   00111A  0E1E               	movlw	30
  2720   00111C  6E0F               	movwf	month_days@monthDays^0,c
  2721                           
  2722                           ;datetime.c: 27:     }
  2723   00111E  EFDA  F008         	goto	l2889
  2724   001122                     l2877:
  2725   001122  0E02               	movlw	2
  2726   001124  1809               	xorwf	month_days@month^0,w,c
  2727   001126  100A               	iorwf	(month_days@month+1)^0,w,c
  2728   001128  A4D8               	btfss	status,2,c
  2729   00112A  EF99  F008         	goto	u2861
  2730   00112E  EF9B  F008         	goto	u2860
  2731   001132                     u2861:
  2732   001132  EFDA  F008         	goto	l2889
  2733   001136                     u2860:
  2734   001136                     
  2735                           ;datetime.c: 29:     {;datetime.c: 30:         if ((year % 4 == 0 && year % 100 != 0) ||
      +                           (year % 400 == 0))
  2736   001136  0E03               	movlw	3
  2737   001138  140B               	andwf	month_days@year^0,w,c
  2738   00113A  6E0D               	movwf	??_month_days^0,c
  2739   00113C  0E00               	movlw	0
  2740   00113E  140C               	andwf	(month_days@year+1)^0,w,c
  2741   001140  6E0E               	movwf	(??_month_days+1)^0,c
  2742   001142  500D               	movf	??_month_days^0,w,c
  2743   001144  100E               	iorwf	(??_month_days+1)^0,w,c
  2744   001146  A4D8               	btfss	status,2,c
  2745   001148  EFA8  F008         	goto	u2871
  2746   00114C  EFAA  F008         	goto	u2870
  2747   001150                     u2871:
  2748   001150  EFBD  F008         	goto	l2883
  2749   001154                     u2870:
  2750   001154  C00B  F004         	movff	month_days@year,___lwmod@dividend
  2751   001158  C00C  F005         	movff	month_days@year+1,___lwmod@dividend+1
  2752   00115C  0E00               	movlw	0
  2753   00115E  6E07               	movwf	(___lwmod@divisor+1)^0,c
  2754   001160  0E64               	movlw	100
  2755   001162  6E06               	movwf	___lwmod@divisor^0,c
  2756   001164  EC59  F00E         	call	___lwmod	;wreg free
  2757   001168  5004               	movf	?___lwmod^0,w,c
  2758   00116A  1005               	iorwf	(?___lwmod+1)^0,w,c
  2759   00116C  A4D8               	btfss	status,2,c
  2760   00116E  EFBB  F008         	goto	u2881
  2761   001172  EFBD  F008         	goto	u2880
  2762   001176                     u2881:
  2763   001176  EFD0  F008         	goto	l2885
  2764   00117A                     u2880:
  2765   00117A                     l2883:
  2766   00117A  C00B  F004         	movff	month_days@year,___lwmod@dividend
  2767   00117E  C00C  F005         	movff	month_days@year+1,___lwmod@dividend+1
  2768   001182  0E01               	movlw	1
  2769   001184  6E07               	movwf	(___lwmod@divisor+1)^0,c
  2770   001186  0E90               	movlw	144
  2771   001188  6E06               	movwf	___lwmod@divisor^0,c
  2772   00118A  EC59  F00E         	call	___lwmod	;wreg free
  2773   00118E  5004               	movf	?___lwmod^0,w,c
  2774   001190  1005               	iorwf	(?___lwmod+1)^0,w,c
  2775   001192  A4D8               	btfss	status,2,c
  2776   001194  EFCE  F008         	goto	u2891
  2777   001198  EFD0  F008         	goto	u2890
  2778   00119C                     u2891:
  2779   00119C  EFD6  F008         	goto	l2887
  2780   0011A0                     u2890:
  2781   0011A0                     l2885:
  2782                           
  2783                           ;datetime.c: 31:         {;datetime.c: 32:             monthDays = 29;
  2784   0011A0  0E00               	movlw	0
  2785   0011A2  6E10               	movwf	(month_days@monthDays+1)^0,c
  2786   0011A4  0E1D               	movlw	29
  2787   0011A6  6E0F               	movwf	month_days@monthDays^0,c
  2788                           
  2789                           ;datetime.c: 33:         }
  2790   0011A8  EFDA  F008         	goto	l2889
  2791   0011AC                     l2887:
  2792   0011AC  0E00               	movlw	0
  2793   0011AE  6E10               	movwf	(month_days@monthDays+1)^0,c
  2794   0011B0  0E1C               	movlw	28
  2795   0011B2  6E0F               	movwf	month_days@monthDays^0,c
  2796   0011B4                     l2889:
  2797                           
  2798                           ;datetime.c: 36:     return monthDays;
  2799   0011B4  C00F  F009         	movff	month_days@monthDays,?_month_days
  2800   0011B8  C010  F00A         	movff	month_days@monthDays+1,?_month_days+1
  2801   0011BC  0012               	return		;funcret
  2802   0011BE                     __end_of_month_days:
  2803                           	callstack 0
  2804                           
  2805 ;; *************** function _get16bitTMR0val *****************
  2806 ;; Defined at:
  2807 ;;		line 25 in file "timers.c"
  2808 ;; Parameters:    Size  Location     Type
  2809 ;;		None
  2810 ;; Auto vars:     Size  Location     Type
  2811 ;;  time            2    5[COMRAM] unsigned int 
  2812 ;;  temp            2    0        unsigned int 
  2813 ;; Return value:  Size  Location     Type
  2814 ;;                  2    3[COMRAM] unsigned int 
  2815 ;; Registers used:
  2816 ;;		wreg
  2817 ;; Tracked objects:
  2818 ;;		On entry : 0/0
  2819 ;;		On exit  : 0/0
  2820 ;;		Unchanged: 0/0
  2821 ;; Data sizes:     COMRAM   BANK0   BANK1   BANK2   BANK3   BANK4   BANK5   BANK6   BANK7   BANK8   BANK9  BANK10  BANK1
      +1  BANK12  BANK13
  2822 ;;      Params:         2       0       0       0       0       0       0       0       0       0       0       0       
      +0       0       0
  2823 ;;      Locals:         2       0       0       0       0       0       0       0       0       0       0       0       
      +0       0       0
  2824 ;;      Temps:          0       0       0       0       0       0       0       0       0       0       0       0       
      +0       0       0
  2825 ;;      Totals:         4       0       0       0       0       0       0       0       0       0       0       0       
      +0       0       0
  2826 ;;Total ram usage:        4 bytes
  2827 ;; Hardware stack levels used: 1
  2828 ;; Hardware stack levels required when called: 2
  2829 ;; This function calls:
  2830 ;;		Nothing
  2831 ;; This function is called by:
  2832 ;;		_disp_time
  2833 ;; This function uses a non-reentrant model
  2834 ;;
  2835                           
  2836                           	psect	text15
  2837   001FBC                     __ptext15:
  2838                           	callstack 0
  2839   001FBC                     _get16bitTMR0val:
  2840                           	callstack 27
  2841   001FBC  50D3               	movf	211,w,c	;volatile
  2842                           
  2843                           ;timers.c: 29:     unsigned int time = TMR0H;
  2844   001FBE  CFD4 F006          	movff	4052,get16bitTMR0val@time	;volatile
  2845   001FC2  6A07               	clrf	(get16bitTMR0val@time+1)^0,c
  2846                           
  2847                           ;timers.c: 30:     return time;
  2848   001FC4  C006  F004         	movff	get16bitTMR0val@time,?_get16bitTMR0val
  2849   001FC8  C007  F005         	movff	get16bitTMR0val@time+1,?_get16bitTMR0val+1
  2850   001FCC  0012               	return		;funcret
  2851   001FCE                     __end_of_get16bitTMR0val:
  2852                           	callstack 0
  2853                           
  2854 ;; *************** function _LEDarray_control *****************
  2855 ;; Defined at:
  2856 ;;		line 80 in file "datetime.c"
  2857 ;; Parameters:    Size  Location     Type
  2858 ;;		None
  2859 ;; Auto vars:     Size  Location     Type
  2860 ;;  temp            2    8[COMRAM] unsigned int 
  2861 ;; Return value:  Size  Location     Type
  2862 ;;                  1    wreg      void 
  2863 ;; Registers used:
  2864 ;;		wreg, status,2, status,0, cstack
  2865 ;; Tracked objects:
  2866 ;;		On entry : 0/0
  2867 ;;		On exit  : 0/0
  2868 ;;		Unchanged: 0/0
  2869 ;; Data sizes:     COMRAM   BANK0   BANK1   BANK2   BANK3   BANK4   BANK5   BANK6   BANK7   BANK8   BANK9  BANK10  BANK1
      +1  BANK12  BANK13
  2870 ;;      Params:         0       0       0       0       0       0       0       0       0       0       0       0       
      +0       0       0
  2871 ;;      Locals:         2       0       0       0       0       0       0       0       0       0       0       0       
      +0       0       0
  2872 ;;      Temps:          0       0       0       0       0       0       0       0       0       0       0       0       
      +0       0       0
  2873 ;;      Totals:         2       0       0       0       0       0       0       0       0       0       0       0       
      +0       0       0
  2874 ;;Total ram usage:        2 bytes
  2875 ;; Hardware stack levels used: 1
  2876 ;; Hardware stack levels required when called: 3
  2877 ;; This function calls:
  2878 ;;		_LEDarray_disp_bin
  2879 ;;		___lwmod
  2880 ;; This function is called by:
  2881 ;;		_disp_time
  2882 ;; This function uses a non-reentrant model
  2883 ;;
  2884                           
  2885                           	psect	text16
  2886   001940                     __ptext16:
  2887                           	callstack 0
  2888   001940                     _LEDarray_control:
  2889                           	callstack 26
  2890   001940                     
  2891                           ;datetime.c: 82:     unsigned int temp = 0;
  2892   001940  0E00               	movlw	0
  2893   001942  6E0A               	movwf	(LEDarray_control@temp+1)^0,c
  2894   001944  0E00               	movlw	0
  2895   001946  6E09               	movwf	LEDarray_control@temp^0,c
  2896   001948                     
  2897                           ;datetime.c: 83:     if (day % 3 == 0) {temp = 0b001001001;}
  2898   001948  C052  F004         	movff	_day,___lwmod@dividend
  2899   00194C  C053  F005         	movff	_day+1,___lwmod@dividend+1
  2900   001950  0E00               	movlw	0
  2901   001952  6E07               	movwf	(___lwmod@divisor+1)^0,c
  2902   001954  0E03               	movlw	3
  2903   001956  6E06               	movwf	___lwmod@divisor^0,c
  2904   001958  EC59  F00E         	call	___lwmod	;wreg free
  2905   00195C  5004               	movf	?___lwmod^0,w,c
  2906   00195E  1005               	iorwf	(?___lwmod+1)^0,w,c
  2907   001960  A4D8               	btfss	status,2,c
  2908   001962  EFB5  F00C         	goto	u2901
  2909   001966  EFB7  F00C         	goto	u2900
  2910   00196A                     u2901:
  2911   00196A  EFBB  F00C         	goto	l2899
  2912   00196E                     u2900:
  2913   00196E  0E00               	movlw	0
  2914   001970  6E0A               	movwf	(LEDarray_control@temp+1)^0,c
  2915   001972  0E49               	movlw	73
  2916   001974  6E09               	movwf	LEDarray_control@temp^0,c
  2917   001976                     l2899:
  2918                           
  2919                           ;datetime.c: 84:     if (day % 3 == 1) {temp = 0b010010010;}
  2920   001976  C052  F004         	movff	_day,___lwmod@dividend
  2921   00197A  C053  F005         	movff	_day+1,___lwmod@dividend+1
  2922   00197E  0E00               	movlw	0
  2923   001980  6E07               	movwf	(___lwmod@divisor+1)^0,c
  2924   001982  0E03               	movlw	3
  2925   001984  6E06               	movwf	___lwmod@divisor^0,c
  2926   001986  EC59  F00E         	call	___lwmod	;wreg free
  2927   00198A  0404               	decf	?___lwmod^0,w,c
  2928   00198C  1005               	iorwf	(?___lwmod+1)^0,w,c
  2929   00198E  A4D8               	btfss	status,2,c
  2930   001990  EFCC  F00C         	goto	u2911
  2931   001994  EFCE  F00C         	goto	u2910
  2932   001998                     u2911:
  2933   001998  EFD2  F00C         	goto	l2903
  2934   00199C                     u2910:
  2935   00199C  0E00               	movlw	0
  2936   00199E  6E0A               	movwf	(LEDarray_control@temp+1)^0,c
  2937   0019A0  0E92               	movlw	146
  2938   0019A2  6E09               	movwf	LEDarray_control@temp^0,c
  2939   0019A4                     l2903:
  2940                           
  2941                           ;datetime.c: 85:     if (day % 3 == 2) {temp = 0b100100100;}
  2942   0019A4  C052  F004         	movff	_day,___lwmod@dividend
  2943   0019A8  C053  F005         	movff	_day+1,___lwmod@dividend+1
  2944   0019AC  0E00               	movlw	0
  2945   0019AE  6E07               	movwf	(___lwmod@divisor+1)^0,c
  2946   0019B0  0E03               	movlw	3
  2947   0019B2  6E06               	movwf	___lwmod@divisor^0,c
  2948   0019B4  EC59  F00E         	call	___lwmod	;wreg free
  2949   0019B8  0E02               	movlw	2
  2950   0019BA  1804               	xorwf	?___lwmod^0,w,c
  2951   0019BC  1005               	iorwf	(?___lwmod+1)^0,w,c
  2952   0019BE  A4D8               	btfss	status,2,c
  2953   0019C0  EFE4  F00C         	goto	u2921
  2954   0019C4  EFE6  F00C         	goto	u2920
  2955   0019C8                     u2921:
  2956   0019C8  EFEA  F00C         	goto	l2907
  2957   0019CC                     u2920:
  2958   0019CC  0E01               	movlw	1
  2959   0019CE  6E0A               	movwf	(LEDarray_control@temp+1)^0,c
  2960   0019D0  0E24               	movlw	36
  2961   0019D2  6E09               	movwf	LEDarray_control@temp^0,c
  2962   0019D4                     l2907:
  2963                           
  2964                           ;datetime.c: 86:     LEDarray_disp_bin(temp);
  2965   0019D4  C009  F004         	movff	LEDarray_control@temp,LEDarray_disp_bin@number
  2966   0019D8  C00A  F005         	movff	LEDarray_control@temp+1,LEDarray_disp_bin@number+1
  2967   0019DC  ECD6  F00A         	call	_LEDarray_disp_bin	;wreg free
  2968   0019E0  0012               	return		;funcret
  2969   0019E2                     __end_of_LEDarray_control:
  2970                           	callstack 0
  2971                           
  2972 ;; *************** function ___lwmod *****************
  2973 ;; Defined at:
  2974 ;;		line 7 in file "C:\Program Files\Microchip\xc8\v2.45\pic\sources\c99\common\lwmod.c"
  2975 ;; Parameters:    Size  Location     Type
  2976 ;;  dividend        2    3[COMRAM] unsigned int 
  2977 ;;  divisor         2    5[COMRAM] unsigned int 
  2978 ;; Auto vars:     Size  Location     Type
  2979 ;;  counter         1    7[COMRAM] unsigned char 
  2980 ;; Return value:  Size  Location     Type
  2981 ;;                  2    3[COMRAM] unsigned int 
  2982 ;; Registers used:
  2983 ;;		wreg, status,2, status,0
  2984 ;; Tracked objects:
  2985 ;;		On entry : 0/0
  2986 ;;		On exit  : 0/0
  2987 ;;		Unchanged: 0/0
  2988 ;; Data sizes:     COMRAM   BANK0   BANK1   BANK2   BANK3   BANK4   BANK5   BANK6   BANK7   BANK8   BANK9  BANK10  BANK1
      +1  BANK12  BANK13
  2989 ;;      Params:         4       0       0       0       0       0       0       0       0       0       0       0       
      +0       0       0
  2990 ;;      Locals:         1       0       0       0       0       0       0       0       0       0       0       0       
      +0       0       0
  2991 ;;      Temps:          0       0       0       0       0       0       0       0       0       0       0       0       
      +0       0       0
  2992 ;;      Totals:         5       0       0       0       0       0       0       0       0       0       0       0       
      +0       0       0
  2993 ;;Total ram usage:        5 bytes
  2994 ;; Hardware stack levels used: 1
  2995 ;; Hardware stack levels required when called: 2
  2996 ;; This function calls:
  2997 ;;		Nothing
  2998 ;; This function is called by:
  2999 ;;		_month_days
  3000 ;;		_LEDarray_control
  3001 ;; This function uses a non-reentrant model
  3002 ;;
  3003                           
  3004                           	psect	text17
  3005   001CB2                     __ptext17:
  3006                           	callstack 0
  3007   001CB2                     ___lwmod:
  3008                           	callstack 26
  3009   001CB2  5006               	movf	___lwmod@divisor^0,w,c
  3010   001CB4  1007               	iorwf	(___lwmod@divisor+1)^0,w,c
  3011   001CB6  B4D8               	btfsc	status,2,c
  3012   001CB8  EF60  F00E         	goto	u2681
  3013   001CBC  EF62  F00E         	goto	u2680
  3014   001CC0                     u2681:
  3015   001CC0  EF86  F00E         	goto	l820
  3016   001CC4                     u2680:
  3017   001CC4  0E01               	movlw	1
  3018   001CC6  6E08               	movwf	___lwmod@counter^0,c
  3019   001CC8  EF6A  F00E         	goto	l2797
  3020   001CCC                     l2795:
  3021   001CCC  90D8               	bcf	status,0,c
  3022   001CCE  3606               	rlcf	___lwmod@divisor^0,f,c
  3023   001CD0  3607               	rlcf	(___lwmod@divisor+1)^0,f,c
  3024   001CD2  2A08               	incf	___lwmod@counter^0,f,c
  3025   001CD4                     l2797:
  3026   001CD4  AE07               	btfss	(___lwmod@divisor+1)^0,7,c
  3027   001CD6  EF6F  F00E         	goto	u2691
  3028   001CDA  EF71  F00E         	goto	u2690
  3029   001CDE                     u2691:
  3030   001CDE  EF66  F00E         	goto	l2795
  3031   001CE2                     u2690:
  3032   001CE2                     l2799:
  3033   001CE2  5006               	movf	___lwmod@divisor^0,w,c
  3034   001CE4  5C04               	subwf	___lwmod@dividend^0,w,c
  3035   001CE6  5007               	movf	(___lwmod@divisor+1)^0,w,c
  3036   001CE8  5805               	subwfb	(___lwmod@dividend+1)^0,w,c
  3037   001CEA  A0D8               	btfss	status,0,c
  3038   001CEC  EF7A  F00E         	goto	u2701
  3039   001CF0  EF7C  F00E         	goto	u2700
  3040   001CF4                     u2701:
  3041   001CF4  EF80  F00E         	goto	l2803
  3042   001CF8                     u2700:
  3043   001CF8  5006               	movf	___lwmod@divisor^0,w,c
  3044   001CFA  5E04               	subwf	___lwmod@dividend^0,f,c
  3045   001CFC  5007               	movf	(___lwmod@divisor+1)^0,w,c
  3046   001CFE  5A05               	subwfb	(___lwmod@dividend+1)^0,f,c
  3047   001D00                     l2803:
  3048   001D00  90D8               	bcf	status,0,c
  3049   001D02  3207               	rrcf	(___lwmod@divisor+1)^0,f,c
  3050   001D04  3206               	rrcf	___lwmod@divisor^0,f,c
  3051   001D06  2E08               	decfsz	___lwmod@counter^0,f,c
  3052   001D08  EF71  F00E         	goto	l2799
  3053   001D0C                     l820:
  3054   001D0C  C004  F004         	movff	___lwmod@dividend,?___lwmod
  3055   001D10  C005  F005         	movff	___lwmod@dividend+1,?___lwmod+1
  3056   001D14  0012               	return		;funcret
  3057   001D16                     __end_of___lwmod:
  3058                           	callstack 0
  3059                           
  3060 ;; *************** function _LEDarray_disp_bin *****************
  3061 ;; Defined at:
  3062 ;;		line 45 in file "LEDarray.c"
  3063 ;; Parameters:    Size  Location     Type
  3064 ;;  number          2    3[COMRAM] unsigned int 
  3065 ;; Auto vars:     Size  Location     Type
  3066 ;;		None
  3067 ;; Return value:  Size  Location     Type
  3068 ;;                  1    wreg      void 
  3069 ;; Registers used:
  3070 ;;		None
  3071 ;; Tracked objects:
  3072 ;;		On entry : 0/0
  3073 ;;		On exit  : 0/0
  3074 ;;		Unchanged: 0/0
  3075 ;; Data sizes:     COMRAM   BANK0   BANK1   BANK2   BANK3   BANK4   BANK5   BANK6   BANK7   BANK8   BANK9  BANK10  BANK1
      +1  BANK12  BANK13
  3076 ;;      Params:         2       0       0       0       0       0       0       0       0       0       0       0       
      +0       0       0
  3077 ;;      Locals:         0       0       0       0       0       0       0       0       0       0       0       0       
      +0       0       0
  3078 ;;      Temps:          0       0       0       0       0       0       0       0       0       0       0       0       
      +0       0       0
  3079 ;;      Totals:         2       0       0       0       0       0       0       0       0       0       0       0       
      +0       0       0
  3080 ;;Total ram usage:        2 bytes
  3081 ;; Hardware stack levels used: 1
  3082 ;; Hardware stack levels required when called: 2
  3083 ;; This function calls:
  3084 ;;		Nothing
  3085 ;; This function is called by:
  3086 ;;		_disp_time
  3087 ;;		_LEDarray_control
  3088 ;;		_LEDarray_disp_dec
  3089 ;;		_LEDarray_disp_PPM
  3090 ;; This function uses a non-reentrant model
  3091 ;;
  3092                           
  3093                           	psect	text18
  3094   0015AC                     __ptext18:
  3095                           	callstack 0
  3096   0015AC                     _LEDarray_disp_bin:
  3097                           	callstack 27
  3098   0015AC                     
  3099                           ;LEDarray.c: 45: void LEDarray_disp_bin(unsigned int number);LEDarray.c: 46: {;LEDarray.
      +                          c: 49:     if (number & 0b000000001) LATGbits.LATG0 = 1; else LATGbits.LATG0 = 0;
  3100   0015AC  A004               	btfss	LEDarray_disp_bin@number^0,0,c
  3101   0015AE  EFDB  F00A         	goto	u2591
  3102   0015B2  EFDD  F00A         	goto	u2590
  3103   0015B6                     u2591:
  3104   0015B6  EFE0  F00A         	goto	l105
  3105   0015BA                     u2590:
  3106   0015BA  807F               	bsf	127,0,c	;volatile
  3107   0015BC  EFE1  F00A         	goto	l106
  3108   0015C0                     l105:
  3109   0015C0  907F               	bcf	127,0,c	;volatile
  3110   0015C2                     l106:
  3111                           
  3112                           ;LEDarray.c: 50:     if (number & 0b000000010) LATGbits.LATG1 = 1; else LATGbits.LATG1 =
      +                           0;
  3113   0015C2  A204               	btfss	LEDarray_disp_bin@number^0,1,c
  3114   0015C4  EFE6  F00A         	goto	u2601
  3115   0015C8  EFE8  F00A         	goto	u2600
  3116   0015CC                     u2601:
  3117   0015CC  EFEB  F00A         	goto	l107
  3118   0015D0                     u2600:
  3119   0015D0  827F               	bsf	127,1,c	;volatile
  3120   0015D2  EFEC  F00A         	goto	l108
  3121   0015D6                     l107:
  3122   0015D6  927F               	bcf	127,1,c	;volatile
  3123   0015D8                     l108:
  3124                           
  3125                           ;LEDarray.c: 51:     if (number & 0b000000100) LATAbits.LATA2 = 1; else LATAbits.LATA2 =
      +                           0;
  3126   0015D8  A404               	btfss	LEDarray_disp_bin@number^0,2,c
  3127   0015DA  EFF1  F00A         	goto	u2611
  3128   0015DE  EFF3  F00A         	goto	u2610
  3129   0015E2                     u2611:
  3130   0015E2  EFF6  F00A         	goto	l109
  3131   0015E6                     u2610:
  3132   0015E6  8479               	bsf	121,2,c	;volatile
  3133   0015E8  EFF7  F00A         	goto	l110
  3134   0015EC                     l109:
  3135   0015EC  9479               	bcf	121,2,c	;volatile
  3136   0015EE                     l110:
  3137                           
  3138                           ;LEDarray.c: 52:     if (number & 0b000001000) LATFbits.LATF6 = 1; else LATFbits.LATF6 =
      +                           0;
  3139   0015EE  A604               	btfss	LEDarray_disp_bin@number^0,3,c
  3140   0015F0  EFFC  F00A         	goto	u2621
  3141   0015F4  EFFE  F00A         	goto	u2620
  3142   0015F8                     u2621:
  3143   0015F8  EF01  F00B         	goto	l111
  3144   0015FC                     u2620:
  3145   0015FC  8C7E               	bsf	126,6,c	;volatile
  3146   0015FE  EF02  F00B         	goto	l112
  3147   001602                     l111:
  3148   001602  9C7E               	bcf	126,6,c	;volatile
  3149   001604                     l112:
  3150                           
  3151                           ;LEDarray.c: 53:     if (number & 0b000010000) LATAbits.LATA4 = 1; else LATAbits.LATA4 =
      +                           0;
  3152   001604  A804               	btfss	LEDarray_disp_bin@number^0,4,c
  3153   001606  EF07  F00B         	goto	u2631
  3154   00160A  EF09  F00B         	goto	u2630
  3155   00160E                     u2631:
  3156   00160E  EF0C  F00B         	goto	l113
  3157   001612                     u2630:
  3158   001612  8879               	bsf	121,4,c	;volatile
  3159   001614  EF0D  F00B         	goto	l114
  3160   001618                     l113:
  3161   001618  9879               	bcf	121,4,c	;volatile
  3162   00161A                     l114:
  3163                           
  3164                           ;LEDarray.c: 54:     if (number & 0b000100000) LATAbits.LATA5 = 1; else LATAbits.LATA5 =
      +                           0;
  3165   00161A  AA04               	btfss	LEDarray_disp_bin@number^0,5,c
  3166   00161C  EF12  F00B         	goto	u2641
  3167   001620  EF14  F00B         	goto	u2640
  3168   001624                     u2641:
  3169   001624  EF17  F00B         	goto	l115
  3170   001628                     u2640:
  3171   001628  8A79               	bsf	121,5,c	;volatile
  3172   00162A  EF18  F00B         	goto	l116
  3173   00162E                     l115:
  3174   00162E  9A79               	bcf	121,5,c	;volatile
  3175   001630                     l116:
  3176                           
  3177                           ;LEDarray.c: 55:     if (number & 0b001000000) LATFbits.LATF0 = 1; else LATFbits.LATF0 =
      +                           0;
  3178   001630  AC04               	btfss	LEDarray_disp_bin@number^0,6,c
  3179   001632  EF1D  F00B         	goto	u2651
  3180   001636  EF1F  F00B         	goto	u2650
  3181   00163A                     u2651:
  3182   00163A  EF22  F00B         	goto	l117
  3183   00163E                     u2650:
  3184   00163E  807E               	bsf	126,0,c	;volatile
  3185   001640  EF23  F00B         	goto	l118
  3186   001644                     l117:
  3187   001644  907E               	bcf	126,0,c	;volatile
  3188   001646                     l118:
  3189                           
  3190                           ;LEDarray.c: 56:     if (number & 0b010000000) LATBbits.LATB0 = 1; else LATBbits.LATB0 =
      +                           0;
  3191   001646  AE04               	btfss	LEDarray_disp_bin@number^0,7,c
  3192   001648  EF28  F00B         	goto	u2661
  3193   00164C  EF2A  F00B         	goto	u2660
  3194   001650                     u2661:
  3195   001650  EF2D  F00B         	goto	l119
  3196   001654                     u2660:
  3197   001654  807A               	bsf	122,0,c	;volatile
  3198   001656  EF2E  F00B         	goto	l120
  3199   00165A                     l119:
  3200   00165A  907A               	bcf	122,0,c	;volatile
  3201   00165C                     l120:
  3202                           
  3203                           ;LEDarray.c: 57:     if (number & 0b100000000) LATBbits.LATB1 = 1; else LATBbits.LATB1 =
      +                           0;
  3204   00165C  A005               	btfss	(LEDarray_disp_bin@number+1)^0,0,c
  3205   00165E  EF33  F00B         	goto	u2671
  3206   001662  EF35  F00B         	goto	u2670
  3207   001666                     u2671:
  3208   001666  EF38  F00B         	goto	l121
  3209   00166A                     u2670:
  3210   00166A  827A               	bsf	122,1,c	;volatile
  3211   00166C  EF39  F00B         	goto	l123
  3212   001670                     l121:
  3213   001670  927A               	bcf	122,1,c	;volatile
  3214   001672                     l123:
  3215   001672  0012               	return		;funcret
  3216   001674                     __end_of_LEDarray_disp_bin:
  3217                           	callstack 0
  3218                           
  3219 ;; *************** function _LCD_setline *****************
  3220 ;; Defined at:
  3221 ;;		line 99 in file "LCD.c"
  3222 ;; Parameters:    Size  Location     Type
  3223 ;;  line            1    wreg     unsigned char 
  3224 ;; Auto vars:     Size  Location     Type
  3225 ;;  line            1    6[COMRAM] unsigned char 
  3226 ;; Return value:  Size  Location     Type
  3227 ;;                  1    wreg      void 
  3228 ;; Registers used:
  3229 ;;		wreg, status,2, status,0, cstack
  3230 ;; Tracked objects:
  3231 ;;		On entry : 0/0
  3232 ;;		On exit  : 0/0
  3233 ;;		Unchanged: 0/0
  3234 ;; Data sizes:     COMRAM   BANK0   BANK1   BANK2   BANK3   BANK4   BANK5   BANK6   BANK7   BANK8   BANK9  BANK10  BANK1
      +1  BANK12  BANK13
  3235 ;;      Params:         0       0       0       0       0       0       0       0       0       0       0       0       
      +0       0       0
  3236 ;;      Locals:         1       0       0       0       0       0       0       0       0       0       0       0       
      +0       0       0
  3237 ;;      Temps:          0       0       0       0       0       0       0       0       0       0       0       0       
      +0       0       0
  3238 ;;      Totals:         1       0       0       0       0       0       0       0       0       0       0       0       
      +0       0       0
  3239 ;;Total ram usage:        1 bytes
  3240 ;; Hardware stack levels used: 1
  3241 ;; Hardware stack levels required when called: 5
  3242 ;; This function calls:
  3243 ;;		_LCD_sendbyte
  3244 ;; This function is called by:
  3245 ;;		_disp_time
  3246 ;;		_main
  3247 ;; This function uses a non-reentrant model
  3248 ;;
  3249                           
  3250                           	psect	text19
  3251   001DD4                     __ptext19:
  3252                           	callstack 0
  3253   001DD4                     _LCD_setline:
  3254                           	callstack 24
  3255                           
  3256                           ;incstack = 0
  3257                           ;LCD_setline@line stored from wreg
  3258   001DD4  6E07               	movwf	LCD_setline@line^0,c
  3259   001DD6                     
  3260                           ;LCD.c: 99: void LCD_setline (char line);LCD.c: 100: {;LCD.c: 102:     if (line == 1)
  3261   001DD6  0407               	decf	LCD_setline@line^0,w,c
  3262   001DD8  A4D8               	btfss	status,2,c
  3263   001DDA  EFF1  F00E         	goto	u2721
  3264   001DDE  EFF3  F00E         	goto	u2720
  3265   001DE2                     u2721:
  3266   001DE2  EFF8  F00E         	goto	l2821
  3267   001DE6                     u2720:
  3268   001DE6                     
  3269                           ;LCD.c: 103:         LCD_sendbyte(0x80,0);
  3270   001DE6  0E00               	movlw	0
  3271   001DE8  6E05               	movwf	LCD_sendbyte@type^0,c
  3272   001DEA  0E80               	movlw	128
  3273   001DEC  EC6F  F00F         	call	_LCD_sendbyte
  3274   001DF0                     l2821:
  3275                           
  3276                           ;LCD.c: 105:     if (line == 2)
  3277   001DF0  0E02               	movlw	2
  3278   001DF2  1807               	xorwf	LCD_setline@line^0,w,c
  3279   001DF4  A4D8               	btfss	status,2,c
  3280   001DF6  EFFF  F00E         	goto	u2731
  3281   001DFA  EF01  F00F         	goto	u2730
  3282   001DFE                     u2731:
  3283   001DFE  EF06  F00F         	goto	l63
  3284   001E02                     u2730:
  3285   001E02                     
  3286                           ;LCD.c: 106:         LCD_sendbyte(0xC0,0);
  3287   001E02  0E00               	movlw	0
  3288   001E04  6E05               	movwf	LCD_sendbyte@type^0,c
  3289   001E06  0EC0               	movlw	192
  3290   001E08  EC6F  F00F         	call	_LCD_sendbyte
  3291   001E0C                     l63:
  3292   001E0C  0012               	return		;funcret
  3293   001E0E                     __end_of_LCD_setline:
  3294                           	callstack 0
  3295                           
  3296 ;; *************** function _LCD_sendstring *****************
  3297 ;; Defined at:
  3298 ;;		line 112 in file "LCD.c"
  3299 ;; Parameters:    Size  Location     Type
  3300 ;;  string          1    6[COMRAM] PTR unsigned char 
  3301 ;;		 -> main@lightString(4), timeString(10), 
  3302 ;; Auto vars:     Size  Location     Type
  3303 ;;		None
  3304 ;; Return value:  Size  Location     Type
  3305 ;;                  1    wreg      void 
  3306 ;; Registers used:
  3307 ;;		wreg, fsr2l, fsr2h, status,2, status,0, cstack
  3308 ;; Tracked objects:
  3309 ;;		On entry : 0/0
  3310 ;;		On exit  : 0/0
  3311 ;;		Unchanged: 0/0
  3312 ;; Data sizes:     COMRAM   BANK0   BANK1   BANK2   BANK3   BANK4   BANK5   BANK6   BANK7   BANK8   BANK9  BANK10  BANK1
      +1  BANK12  BANK13
  3313 ;;      Params:         1       0       0       0       0       0       0       0       0       0       0       0       
      +0       0       0
  3314 ;;      Locals:         0       0       0       0       0       0       0       0       0       0       0       0       
      +0       0       0
  3315 ;;      Temps:          0       0       0       0       0       0       0       0       0       0       0       0       
      +0       0       0
  3316 ;;      Totals:         1       0       0       0       0       0       0       0       0       0       0       0       
      +0       0       0
  3317 ;;Total ram usage:        1 bytes
  3318 ;; Hardware stack levels used: 1
  3319 ;; Hardware stack levels required when called: 5
  3320 ;; This function calls:
  3321 ;;		_LCD_sendbyte
  3322 ;; This function is called by:
  3323 ;;		_disp_time
  3324 ;;		_main
  3325 ;;		_ADC2String
  3326 ;; This function uses a non-reentrant model
  3327 ;;
  3328                           
  3329                           	psect	text20
  3330   001EB0                     __ptext20:
  3331                           	callstack 0
  3332   001EB0                     _LCD_sendstring:
  3333                           	callstack 24
  3334   001EB0                     
  3335                           ;LCD.c: 112: void LCD_sendstring(char *string);LCD.c: 113: {;LCD.c: 114:  while(*string 
      +                          != 0){
  3336   001EB0  EF63  F00F         	goto	l2831
  3337   001EB4                     l2827:
  3338                           
  3339                           ;LCD.c: 115:   LCD_sendbyte(*string++,1);
  3340   001EB4  0E01               	movlw	1
  3341   001EB6  6E05               	movwf	LCD_sendbyte@type^0,c
  3342   001EB8  5007               	movf	LCD_sendstring@string^0,w,c
  3343   001EBA  6ED9               	movwf	fsr2l,c
  3344   001EBC  6ADA               	clrf	fsr2h,c
  3345   001EBE  50DF               	movf	indf2,w,c
  3346   001EC0  EC6F  F00F         	call	_LCD_sendbyte
  3347   001EC4  2A07               	incf	LCD_sendstring@string^0,f,c
  3348   001EC6                     l2831:
  3349                           
  3350                           ;LCD.c: 114:  while(*string != 0){
  3351   001EC6  5007               	movf	LCD_sendstring@string^0,w,c
  3352   001EC8  6ED9               	movwf	fsr2l,c
  3353   001ECA  6ADA               	clrf	fsr2h,c
  3354   001ECC  50DF               	movf	indf2,w,c
  3355   001ECE  A4D8               	btfss	status,2,c
  3356   001ED0  EF6C  F00F         	goto	u2741
  3357   001ED4  EF6E  F00F         	goto	u2740
  3358   001ED8                     u2741:
  3359   001ED8  EF5A  F00F         	goto	l2827
  3360   001EDC                     u2740:
  3361   001EDC  0012               	return		;funcret
  3362   001EDE                     __end_of_LCD_sendstring:
  3363                           	callstack 0
  3364                           
  3365 ;; *************** function _DST_adjust *****************
  3366 ;; Defined at:
  3367 ;;		line 65 in file "datetime.c"
  3368 ;; Parameters:    Size  Location     Type
  3369 ;;  month           2    3[COMRAM] unsigned int 
  3370 ;;  hour            2    5[COMRAM] unsigned int 
  3371 ;; Auto vars:     Size  Location     Type
  3372 ;;		None
  3373 ;; Return value:  Size  Location     Type
  3374 ;;                  2    3[COMRAM] unsigned int 
  3375 ;; Registers used:
  3376 ;;		wreg, status,2, status,0
  3377 ;; Tracked objects:
  3378 ;;		On entry : 0/0
  3379 ;;		On exit  : 0/0
  3380 ;;		Unchanged: 0/0
  3381 ;; Data sizes:     COMRAM   BANK0   BANK1   BANK2   BANK3   BANK4   BANK5   BANK6   BANK7   BANK8   BANK9  BANK10  BANK1
      +1  BANK12  BANK13
  3382 ;;      Params:         4       0       0       0       0       0       0       0       0       0       0       0       
      +0       0       0
  3383 ;;      Locals:         0       0       0       0       0       0       0       0       0       0       0       0       
      +0       0       0
  3384 ;;      Temps:          0       0       0       0       0       0       0       0       0       0       0       0       
      +0       0       0
  3385 ;;      Totals:         4       0       0       0       0       0       0       0       0       0       0       0       
      +0       0       0
  3386 ;;Total ram usage:        4 bytes
  3387 ;; Hardware stack levels used: 1
  3388 ;; Hardware stack levels required when called: 2
  3389 ;; This function calls:
  3390 ;;		Nothing
  3391 ;; This function is called by:
  3392 ;;		_disp_time
  3393 ;; This function uses a non-reentrant model
  3394 ;;
  3395                           
  3396                           	psect	text21
  3397   001A6C                     __ptext21:
  3398                           	callstack 0
  3399   001A6C                     _DST_adjust:
  3400                           	callstack 27
  3401   001A6C                     
  3402                           ;datetime.c: 65: unsigned int DST_adjust(unsigned int month,unsigned int hour);datetime.
      +                          c: 66: {;datetime.c: 67:     if (month == 3 && hour == 1 && LATHbits.LATH3 == 0)
  3403   001A6C  0E03               	movlw	3
  3404   001A6E  1804               	xorwf	DST_adjust@month^0,w,c
  3405   001A70  1005               	iorwf	(DST_adjust@month+1)^0,w,c
  3406   001A72  A4D8               	btfss	status,2,c
  3407   001A74  EF3E  F00D         	goto	u2931
  3408   001A78  EF40  F00D         	goto	u2930
  3409   001A7C                     u2931:
  3410   001A7C  EF55  F00D         	goto	l2919
  3411   001A80                     u2930:
  3412   001A80  0406               	decf	DST_adjust@hour^0,w,c
  3413   001A82  1007               	iorwf	(DST_adjust@hour+1)^0,w,c
  3414   001A84  A4D8               	btfss	status,2,c
  3415   001A86  EF47  F00D         	goto	u2941
  3416   001A8A  EF49  F00D         	goto	u2940
  3417   001A8E                     u2941:
  3418   001A8E  EF55  F00D         	goto	l2919
  3419   001A92                     u2940:
  3420   001A92  B680               	btfsc	128,3,c	;volatile
  3421   001A94  EF4E  F00D         	goto	u2951
  3422   001A98  EF50  F00D         	goto	u2950
  3423   001A9C                     u2951:
  3424   001A9C  EF55  F00D         	goto	l2919
  3425   001AA0                     u2950:
  3426   001AA0                     
  3427                           ;datetime.c: 68:     {;datetime.c: 69:         hour = 2;
  3428   001AA0  0E00               	movlw	0
  3429   001AA2  6E07               	movwf	(DST_adjust@hour+1)^0,c
  3430   001AA4  0E02               	movlw	2
  3431   001AA6  6E06               	movwf	DST_adjust@hour^0,c
  3432   001AA8                     
  3433                           ;datetime.c: 70:         LATHbits.LATH3 = 1;
  3434   001AA8  8680               	bsf	128,3,c	;volatile
  3435   001AAA                     l2919:
  3436                           
  3437                           ;datetime.c: 72:     if (month == 10 && hour == 2 && LATHbits.LATH3 == 1)
  3438   001AAA  0E0A               	movlw	10
  3439   001AAC  1804               	xorwf	DST_adjust@month^0,w,c
  3440   001AAE  1005               	iorwf	(DST_adjust@month+1)^0,w,c
  3441   001AB0  A4D8               	btfss	status,2,c
  3442   001AB2  EF5D  F00D         	goto	u2961
  3443   001AB6  EF5F  F00D         	goto	u2960
  3444   001ABA                     u2961:
  3445   001ABA  EF75  F00D         	goto	l2929
  3446   001ABE                     u2960:
  3447   001ABE  0E02               	movlw	2
  3448   001AC0  1806               	xorwf	DST_adjust@hour^0,w,c
  3449   001AC2  1007               	iorwf	(DST_adjust@hour+1)^0,w,c
  3450   001AC4  A4D8               	btfss	status,2,c
  3451   001AC6  EF67  F00D         	goto	u2971
  3452   001ACA  EF69  F00D         	goto	u2970
  3453   001ACE                     u2971:
  3454   001ACE  EF75  F00D         	goto	l2929
  3455   001AD2                     u2970:
  3456   001AD2  A680               	btfss	128,3,c	;volatile
  3457   001AD4  EF6E  F00D         	goto	u2981
  3458   001AD8  EF70  F00D         	goto	u2980
  3459   001ADC                     u2981:
  3460   001ADC  EF75  F00D         	goto	l2929
  3461   001AE0                     u2980:
  3462   001AE0                     
  3463                           ;datetime.c: 73:     {;datetime.c: 74:         hour = 1;
  3464   001AE0  0E00               	movlw	0
  3465   001AE2  6E07               	movwf	(DST_adjust@hour+1)^0,c
  3466   001AE4  0E01               	movlw	1
  3467   001AE6  6E06               	movwf	DST_adjust@hour^0,c
  3468   001AE8                     
  3469                           ;datetime.c: 75:         LATHbits.LATH3 = 0;
  3470   001AE8  9680               	bcf	128,3,c	;volatile
  3471   001AEA                     l2929:
  3472                           
  3473                           ;datetime.c: 77:     return hour;
  3474   001AEA  C006  F004         	movff	DST_adjust@hour,?_DST_adjust
  3475   001AEE  C007  F005         	movff	DST_adjust@hour+1,?_DST_adjust+1
  3476   001AF2  0012               	return		;funcret
  3477   001AF4                     __end_of_DST_adjust:
  3478                           	callstack 0
  3479                           
  3480 ;; *************** function _Timer0_init *****************
  3481 ;; Defined at:
  3482 ;;		line 7 in file "timers.c"
  3483 ;; Parameters:    Size  Location     Type
  3484 ;;		None
  3485 ;; Auto vars:     Size  Location     Type
  3486 ;;		None
  3487 ;; Return value:  Size  Location     Type
  3488 ;;                  1    wreg      void 
  3489 ;; Registers used:
  3490 ;;		wreg, status,2
  3491 ;; Tracked objects:
  3492 ;;		On entry : 0/0
  3493 ;;		On exit  : 0/0
  3494 ;;		Unchanged: 0/0
  3495 ;; Data sizes:     COMRAM   BANK0   BANK1   BANK2   BANK3   BANK4   BANK5   BANK6   BANK7   BANK8   BANK9  BANK10  BANK1
      +1  BANK12  BANK13
  3496 ;;      Params:         0       0       0       0       0       0       0       0       0       0       0       0       
      +0       0       0
  3497 ;;      Locals:         0       0       0       0       0       0       0       0       0       0       0       0       
      +0       0       0
  3498 ;;      Temps:          0       0       0       0       0       0       0       0       0       0       0       0       
      +0       0       0
  3499 ;;      Totals:         0       0       0       0       0       0       0       0       0       0       0       0       
      +0       0       0
  3500 ;;Total ram usage:        0 bytes
  3501 ;; Hardware stack levels used: 1
  3502 ;; Hardware stack levels required when called: 2
  3503 ;; This function calls:
  3504 ;;		Nothing
  3505 ;; This function is called by:
  3506 ;;		_main
  3507 ;; This function uses a non-reentrant model
  3508 ;;
  3509                           
  3510                           	psect	text22
  3511   001F56                     __ptext22:
  3512                           	callstack 0
  3513   001F56                     _Timer0_init:
  3514                           	callstack 28
  3515   001F56                     
  3516                           ;timers.c: 9:     T0CON1bits.T0CS=0b010;
  3517   001F56  50D6               	movf	214,w,c	;volatile
  3518   001F58  0B1F               	andlw	-225
  3519   001F5A  0940               	iorlw	64
  3520   001F5C  6ED6               	movwf	214,c	;volatile
  3521   001F5E                     
  3522                           ;timers.c: 10:     T0CON1bits.T0ASYNC=1;
  3523   001F5E  88D6               	bsf	214,4,c	;volatile
  3524                           
  3525                           ;timers.c: 12:     T0CON1bits.T0CKPS=0b1000;
  3526   001F60  50D6               	movf	214,w,c	;volatile
  3527   001F62  0BF0               	andlw	-16
  3528   001F64  0908               	iorlw	8
  3529   001F66  6ED6               	movwf	214,c	;volatile
  3530   001F68                     
  3531                           ;timers.c: 13:     T0CON0bits.T016BIT=1;
  3532   001F68  88D5               	bsf	213,4,c	;volatile
  3533                           
  3534                           ;timers.c: 16:     TMR0H=0b00001011;
  3535   001F6A  0E0B               	movlw	11
  3536   001F6C  6ED4               	movwf	212,c	;volatile
  3537                           
  3538                           ;timers.c: 17:     TMR0L=0b11011011;
  3539   001F6E  0EDB               	movlw	219
  3540   001F70  6ED3               	movwf	211,c	;volatile
  3541   001F72                     
  3542                           ;timers.c: 18:     T0CON0bits.T0EN=1;
  3543   001F72  8ED5               	bsf	213,7,c	;volatile
  3544   001F74  0012               	return		;funcret
  3545   001F76                     __end_of_Timer0_init:
  3546                           	callstack 0
  3547                           
  3548 ;; *************** function _LEDarray_init *****************
  3549 ;; Defined at:
  3550 ;;		line 8 in file "LEDarray.c"
  3551 ;; Parameters:    Size  Location     Type
  3552 ;;		None
  3553 ;; Auto vars:     Size  Location     Type
  3554 ;;		None
  3555 ;; Return value:  Size  Location     Type
  3556 ;;                  1    wreg      void 
  3557 ;; Registers used:
  3558 ;;		None
  3559 ;; Tracked objects:
  3560 ;;		On entry : 0/0
  3561 ;;		On exit  : 0/0
  3562 ;;		Unchanged: 0/0
  3563 ;; Data sizes:     COMRAM   BANK0   BANK1   BANK2   BANK3   BANK4   BANK5   BANK6   BANK7   BANK8   BANK9  BANK10  BANK1
      +1  BANK12  BANK13
  3564 ;;      Params:         0       0       0       0       0       0       0       0       0       0       0       0       
      +0       0       0
  3565 ;;      Locals:         0       0       0       0       0       0       0       0       0       0       0       0       
      +0       0       0
  3566 ;;      Temps:          0       0       0       0       0       0       0       0       0       0       0       0       
      +0       0       0
  3567 ;;      Totals:         0       0       0       0       0       0       0       0       0       0       0       0       
      +0       0       0
  3568 ;;Total ram usage:        0 bytes
  3569 ;; Hardware stack levels used: 1
  3570 ;; Hardware stack levels required when called: 2
  3571 ;; This function calls:
  3572 ;;		Nothing
  3573 ;; This function is called by:
  3574 ;;		_main
  3575 ;; This function uses a non-reentrant model
  3576 ;;
  3577                           
  3578                           	psect	text23
  3579   001E0E                     __ptext23:
  3580                           	callstack 0
  3581   001E0E                     _LEDarray_init:
  3582                           	callstack 28
  3583   001E0E                     
  3584                           ;LEDarray.c: 10:     TRISGbits.TRISG0 = 0;
  3585   001E0E  9087               	bcf	135,0,c	;volatile
  3586                           
  3587                           ;LEDarray.c: 11:  TRISGbits.TRISG1 = 0;
  3588   001E10  9287               	bcf	135,1,c	;volatile
  3589                           
  3590                           ;LEDarray.c: 12:     TRISAbits.TRISA2 = 0;
  3591   001E12  9481               	bcf	129,2,c	;volatile
  3592                           
  3593                           ;LEDarray.c: 13:     TRISFbits.TRISF6 = 0;
  3594   001E14  9C86               	bcf	134,6,c	;volatile
  3595                           
  3596                           ;LEDarray.c: 14:     TRISAbits.TRISA4 = 0;
  3597   001E16  9881               	bcf	129,4,c	;volatile
  3598                           
  3599                           ;LEDarray.c: 15:     TRISAbits.TRISA5 = 0;
  3600   001E18  9A81               	bcf	129,5,c	;volatile
  3601                           
  3602                           ;LEDarray.c: 16:     TRISFbits.TRISF0 = 0;
  3603   001E1A  9086               	bcf	134,0,c	;volatile
  3604                           
  3605                           ;LEDarray.c: 17:     TRISBbits.TRISB0 = 0;
  3606   001E1C  9082               	bcf	130,0,c	;volatile
  3607                           
  3608                           ;LEDarray.c: 18:     TRISBbits.TRISB1 = 0;
  3609   001E1E  9282               	bcf	130,1,c	;volatile
  3610                           
  3611                           ;LEDarray.c: 20:     LATGbits.LATG0 = 0;
  3612   001E20  907F               	bcf	127,0,c	;volatile
  3613                           
  3614                           ;LEDarray.c: 21:     LATGbits.LATG1 = 0;
  3615   001E22  927F               	bcf	127,1,c	;volatile
  3616                           
  3617                           ;LEDarray.c: 22:     LATAbits.LATA2 = 0;
  3618   001E24  9479               	bcf	121,2,c	;volatile
  3619                           
  3620                           ;LEDarray.c: 23:     LATFbits.LATF6 = 0;
  3621   001E26  9C7E               	bcf	126,6,c	;volatile
  3622                           
  3623                           ;LEDarray.c: 24:     LATAbits.LATA4 = 0;
  3624   001E28  9879               	bcf	121,4,c	;volatile
  3625                           
  3626                           ;LEDarray.c: 25:     LATAbits.LATA5 = 0;
  3627   001E2A  9A79               	bcf	121,5,c	;volatile
  3628                           
  3629                           ;LEDarray.c: 26:     LATFbits.LATF0 = 0;
  3630   001E2C  907E               	bcf	126,0,c	;volatile
  3631                           
  3632                           ;LEDarray.c: 27:     LATBbits.LATB0 = 0;
  3633   001E2E  907A               	bcf	122,0,c	;volatile
  3634                           
  3635                           ;LEDarray.c: 28:     LATBbits.LATB1 = 0;
  3636   001E30  927A               	bcf	122,1,c	;volatile
  3637                           
  3638                           ;LEDarray.c: 30:     ANSELGbits.ANSELG0=0;
  3639   001E32  010E               	movlb	14	; () banked
  3640   001E34  91BC               	bcf	188,0,b	;volatile
  3641                           
  3642                           ;LEDarray.c: 31:     ANSELGbits.ANSELG1=0;
  3643   001E36  93BC               	bcf	188,1,b	;volatile
  3644                           
  3645                           ;LEDarray.c: 32:     ANSELAbits.ANSELA2=0;
  3646   001E38  9592               	bcf	146,2,b	;volatile
  3647                           
  3648                           ;LEDarray.c: 33:     ANSELFbits.ANSELF6=0;
  3649   001E3A  9DB4               	bcf	180,6,b	;volatile
  3650                           
  3651                           ;LEDarray.c: 34:     ANSELAbits.ANSELA4=0;
  3652   001E3C  9992               	bcf	146,4,b	;volatile
  3653                           
  3654                           ;LEDarray.c: 35:     ANSELAbits.ANSELA5=0;
  3655   001E3E  9B92               	bcf	146,5,b	;volatile
  3656                           
  3657                           ;LEDarray.c: 36:     ANSELFbits.ANSELF0=0;
  3658   001E40  91B4               	bcf	180,0,b	;volatile
  3659                           
  3660                           ;LEDarray.c: 37:     ANSELBbits.ANSELB0=0;
  3661   001E42  919A               	bcf	154,0,b	;volatile
  3662                           
  3663                           ;LEDarray.c: 38:     ANSELBbits.ANSELB1=0;
  3664   001E44  939A               	bcf	154,1,b	;volatile
  3665   001E46                     
  3666                           ; BSR set to: 14
  3667   001E46  0012               	return		;funcret
  3668   001E48                     __end_of_LEDarray_init:
  3669                           	callstack 0
  3670                           
  3671 ;; *************** function _LCD_Init *****************
  3672 ;; Defined at:
  3673 ;;		line 51 in file "LCD.c"
  3674 ;; Parameters:    Size  Location     Type
  3675 ;;		None
  3676 ;; Auto vars:     Size  Location     Type
  3677 ;;		None
  3678 ;; Return value:  Size  Location     Type
  3679 ;;                  1    wreg      void 
  3680 ;; Registers used:
  3681 ;;		wreg, status,2, status,0, cstack
  3682 ;; Tracked objects:
  3683 ;;		On entry : 0/0
  3684 ;;		On exit  : 0/0
  3685 ;;		Unchanged: 0/0
  3686 ;; Data sizes:     COMRAM   BANK0   BANK1   BANK2   BANK3   BANK4   BANK5   BANK6   BANK7   BANK8   BANK9  BANK10  BANK1
      +1  BANK12  BANK13
  3687 ;;      Params:         0       0       0       0       0       0       0       0       0       0       0       0       
      +0       0       0
  3688 ;;      Locals:         0       0       0       0       0       0       0       0       0       0       0       0       
      +0       0       0
  3689 ;;      Temps:          2       0       0       0       0       0       0       0       0       0       0       0       
      +0       0       0
  3690 ;;      Totals:         2       0       0       0       0       0       0       0       0       0       0       0       
      +0       0       0
  3691 ;;Total ram usage:        2 bytes
  3692 ;; Hardware stack levels used: 1
  3693 ;; Hardware stack levels required when called: 5
  3694 ;; This function calls:
  3695 ;;		_LCD_sendbyte
  3696 ;;		_LCD_sendnibble
  3697 ;; This function is called by:
  3698 ;;		_main
  3699 ;; This function uses a non-reentrant model
  3700 ;;
  3701                           
  3702                           	psect	text24
  3703   0014AA                     __ptext24:
  3704                           	callstack 0
  3705   0014AA                     _LCD_Init:
  3706                           	callstack 25
  3707   0014AA                     
  3708                           ;LCD.c: 54:     TRISCbits.TRISC6 = 0;
  3709   0014AA  9C83               	bcf	131,6,c	;volatile
  3710                           
  3711                           ;LCD.c: 55:     TRISCbits.TRISC2 = 0;
  3712   0014AC  9483               	bcf	131,2,c	;volatile
  3713                           
  3714                           ;LCD.c: 56:     TRISBbits.TRISB3 = 0;
  3715   0014AE  9682               	bcf	130,3,c	;volatile
  3716                           
  3717                           ;LCD.c: 57:     TRISBbits.TRISB2 = 0;
  3718   0014B0  9482               	bcf	130,2,c	;volatile
  3719                           
  3720                           ;LCD.c: 58:     TRISEbits.TRISE3 = 0;
  3721   0014B2  9685               	bcf	133,3,c	;volatile
  3722                           
  3723                           ;LCD.c: 59:     TRISEbits.TRISE1 = 0;
  3724   0014B4  9285               	bcf	133,1,c	;volatile
  3725                           
  3726                           ;LCD.c: 62:     LATCbits.LATC6 = 0;
  3727   0014B6  9C7B               	bcf	123,6,c	;volatile
  3728                           
  3729                           ;LCD.c: 63:     LATCbits.LATC2 = 0;
  3730   0014B8  947B               	bcf	123,2,c	;volatile
  3731                           
  3732                           ;LCD.c: 64:     LATBbits.LATB3 = 0;
  3733   0014BA  967A               	bcf	122,3,c	;volatile
  3734                           
  3735                           ;LCD.c: 65:     LATBbits.LATB2 = 0;
  3736   0014BC  947A               	bcf	122,2,c	;volatile
  3737                           
  3738                           ;LCD.c: 66:     LATEbits.LATE3 = 0;
  3739   0014BE  967D               	bcf	125,3,c	;volatile
  3740                           
  3741                           ;LCD.c: 67:     LATEbits.LATE1 = 0;
  3742   0014C0  927D               	bcf	125,1,c	;volatile
  3743   0014C2                     
  3744                           ;LCD.c: 72:     _delay((unsigned long)((150)*(64000000/4000.0)));
  3745   0014C2  0E0D               	movlw	13
  3746   0014C4  6E08               	movwf	(??_LCD_Init+1)^0,c
  3747   0014C6  0E2D               	movlw	45
  3748   0014C8  6E07               	movwf	??_LCD_Init^0,c
  3749   0014CA  0ED8               	movlw	216
  3750   0014CC                     u3227:
  3751   0014CC  2EE8               	decfsz	wreg,f,c
  3752   0014CE  D7FE               	bra	u3227
  3753   0014D0  2E07               	decfsz	??_LCD_Init^0,f,c
  3754   0014D2  D7FC               	bra	u3227
  3755   0014D4  2E08               	decfsz	(??_LCD_Init+1)^0,f,c
  3756   0014D6  D7FA               	bra	u3227
  3757   0014D8                     
  3758                           ;LCD.c: 73:     LCD_sendnibble(0b0011);
  3759   0014D8  0E03               	movlw	3
  3760   0014DA  ECF3  F00D         	call	_LCD_sendnibble
  3761   0014DE                     
  3762                           ;LCD.c: 74:     _delay((unsigned long)((5)*(64000000/4000.0)));
  3763   0014DE  0E68               	movlw	104
  3764   0014E0  6E07               	movwf	??_LCD_Init^0,c
  3765   0014E2  0EE4               	movlw	228
  3766   0014E4                     u3237:
  3767   0014E4  2EE8               	decfsz	wreg,f,c
  3768   0014E6  D7FE               	bra	u3237
  3769   0014E8  2E07               	decfsz	??_LCD_Init^0,f,c
  3770   0014EA  D7FC               	bra	u3237
  3771   0014EC  D000               	nop2	
  3772                           
  3773                           ;LCD.c: 75:     LCD_sendnibble(0b0011);
  3774   0014EE  0E03               	movlw	3
  3775   0014F0  ECF3  F00D         	call	_LCD_sendnibble
  3776   0014F4                     
  3777                           ;LCD.c: 76:     _delay((unsigned long)((200)*(64000000/4000000.0)));
  3778   0014F4  0E05               	movlw	5
  3779   0014F6  6E07               	movwf	??_LCD_Init^0,c
  3780   0014F8  0E26               	movlw	38
  3781   0014FA                     u3247:
  3782   0014FA  2EE8               	decfsz	wreg,f,c
  3783   0014FC  D7FE               	bra	u3247
  3784   0014FE  2E07               	decfsz	??_LCD_Init^0,f,c
  3785   001500  D7FC               	bra	u3247
  3786   001502  D000               	nop2	
  3787   001504                     
  3788                           ;LCD.c: 77:     LCD_sendnibble(0b0011);
  3789   001504  0E03               	movlw	3
  3790   001506  ECF3  F00D         	call	_LCD_sendnibble
  3791                           
  3792                           ;LCD.c: 78:     _delay((unsigned long)((200)*(64000000/4000000.0)));
  3793   00150A  0E05               	movlw	5
  3794   00150C  6E07               	movwf	??_LCD_Init^0,c
  3795   00150E  0E26               	movlw	38
  3796   001510                     u3257:
  3797   001510  2EE8               	decfsz	wreg,f,c
  3798   001512  D7FE               	bra	u3257
  3799   001514  2E07               	decfsz	??_LCD_Init^0,f,c
  3800   001516  D7FC               	bra	u3257
  3801   001518  D000               	nop2	
  3802   00151A                     
  3803                           ;LCD.c: 79:     LCD_sendnibble(0b0010);
  3804   00151A  0E02               	movlw	2
  3805   00151C  ECF3  F00D         	call	_LCD_sendnibble
  3806   001520                     
  3807                           ;LCD.c: 80:     _delay((unsigned long)((200)*(64000000/4000000.0)));
  3808   001520  0E05               	movlw	5
  3809   001522  6E07               	movwf	??_LCD_Init^0,c
  3810   001524  0E26               	movlw	38
  3811   001526                     u3267:
  3812   001526  2EE8               	decfsz	wreg,f,c
  3813   001528  D7FE               	bra	u3267
  3814   00152A  2E07               	decfsz	??_LCD_Init^0,f,c
  3815   00152C  D7FC               	bra	u3267
  3816   00152E  D000               	nop2	
  3817   001530                     
  3818                           ;LCD.c: 82:     LCD_sendbyte(0b00101100,0);
  3819   001530  0E00               	movlw	0
  3820   001532  6E05               	movwf	LCD_sendbyte@type^0,c
  3821   001534  0E2C               	movlw	44
  3822   001536  EC6F  F00F         	call	_LCD_sendbyte
  3823   00153A                     
  3824                           ;LCD.c: 83:     _delay((unsigned long)((100)*(64000000/4000000.0)));
  3825   00153A  0EE4               	movlw	228
  3826   00153C                     u3277:
  3827   00153C  D000               	nop2	
  3828   00153E  D000               	nop2	
  3829   001540  2EE8               	decfsz	wreg,f,c
  3830   001542  D7FC               	bra	u3277
  3831   001544  D000               	nop2	
  3832   001546  D000               	nop2	
  3833   001548                     
  3834                           ;LCD.c: 84:     LCD_sendbyte(0b00001000,0);
  3835   001548  0E00               	movlw	0
  3836   00154A  6E05               	movwf	LCD_sendbyte@type^0,c
  3837   00154C  0E08               	movlw	8
  3838   00154E  EC6F  F00F         	call	_LCD_sendbyte
  3839   001552                     
  3840                           ;LCD.c: 85:     _delay((unsigned long)((100)*(64000000/4000000.0)));
  3841   001552  0EE4               	movlw	228
  3842   001554                     u3287:
  3843   001554  D000               	nop2	
  3844   001556  D000               	nop2	
  3845   001558  2EE8               	decfsz	wreg,f,c
  3846   00155A  D7FC               	bra	u3287
  3847   00155C  D000               	nop2	
  3848   00155E  D000               	nop2	
  3849   001560                     
  3850                           ;LCD.c: 86:     LCD_sendbyte(0b00000001,0);
  3851   001560  0E00               	movlw	0
  3852   001562  6E05               	movwf	LCD_sendbyte@type^0,c
  3853   001564  0E01               	movlw	1
  3854   001566  EC6F  F00F         	call	_LCD_sendbyte
  3855   00156A                     
  3856                           ;LCD.c: 87:     _delay((unsigned long)((5)*(64000000/4000.0)));
  3857   00156A  0E68               	movlw	104
  3858   00156C  6E07               	movwf	??_LCD_Init^0,c
  3859   00156E  0EE4               	movlw	228
  3860   001570                     u3297:
  3861   001570  2EE8               	decfsz	wreg,f,c
  3862   001572  D7FE               	bra	u3297
  3863   001574  2E07               	decfsz	??_LCD_Init^0,f,c
  3864   001576  D7FC               	bra	u3297
  3865   001578  D000               	nop2	
  3866   00157A                     
  3867                           ;LCD.c: 88:     LCD_sendbyte(0b00000110,0);
  3868   00157A  0E00               	movlw	0
  3869   00157C  6E05               	movwf	LCD_sendbyte@type^0,c
  3870   00157E  0E06               	movlw	6
  3871   001580  EC6F  F00F         	call	_LCD_sendbyte
  3872   001584                     
  3873                           ;LCD.c: 89:     _delay((unsigned long)((100)*(64000000/4000000.0)));
  3874   001584  0EE4               	movlw	228
  3875   001586                     u3307:
  3876   001586  D000               	nop2	
  3877   001588  D000               	nop2	
  3878   00158A  2EE8               	decfsz	wreg,f,c
  3879   00158C  D7FC               	bra	u3307
  3880   00158E  D000               	nop2	
  3881   001590  D000               	nop2	
  3882   001592                     
  3883                           ;LCD.c: 92:     LCD_sendbyte(0b00001100,0);
  3884   001592  0E00               	movlw	0
  3885   001594  6E05               	movwf	LCD_sendbyte@type^0,c
  3886   001596  0E0C               	movlw	12
  3887   001598  EC6F  F00F         	call	_LCD_sendbyte
  3888   00159C                     
  3889                           ;LCD.c: 93:     _delay((unsigned long)((100)*(64000000/4000000.0)));
  3890   00159C  0EE4               	movlw	228
  3891   00159E                     u3317:
  3892   00159E  D000               	nop2	
  3893   0015A0  D000               	nop2	
  3894   0015A2  2EE8               	decfsz	wreg,f,c
  3895   0015A4  D7FC               	bra	u3317
  3896   0015A6  D000               	nop2	
  3897   0015A8  D000               	nop2	
  3898   0015AA  0012               	return		;funcret
  3899   0015AC                     __end_of_LCD_Init:
  3900                           	callstack 0
  3901                           
  3902 ;; *************** function _LCD_sendbyte *****************
  3903 ;; Defined at:
  3904 ;;		line 36 in file "LCD.c"
  3905 ;; Parameters:    Size  Location     Type
  3906 ;;  Byte            1    wreg     unsigned char 
  3907 ;;  type            1    4[COMRAM] unsigned char 
  3908 ;; Auto vars:     Size  Location     Type
  3909 ;;  Byte            1    5[COMRAM] unsigned char 
  3910 ;; Return value:  Size  Location     Type
  3911 ;;                  1    wreg      void 
  3912 ;; Registers used:
  3913 ;;		wreg, status,2, status,0, cstack
  3914 ;; Tracked objects:
  3915 ;;		On entry : 0/0
  3916 ;;		On exit  : 0/0
  3917 ;;		Unchanged: 0/0
  3918 ;; Data sizes:     COMRAM   BANK0   BANK1   BANK2   BANK3   BANK4   BANK5   BANK6   BANK7   BANK8   BANK9  BANK10  BANK1
      +1  BANK12  BANK13
  3919 ;;      Params:         1       0       0       0       0       0       0       0       0       0       0       0       
      +0       0       0
  3920 ;;      Locals:         1       0       0       0       0       0       0       0       0       0       0       0       
      +0       0       0
  3921 ;;      Temps:          0       0       0       0       0       0       0       0       0       0       0       0       
      +0       0       0
  3922 ;;      Totals:         2       0       0       0       0       0       0       0       0       0       0       0       
      +0       0       0
  3923 ;;Total ram usage:        2 bytes
  3924 ;; Hardware stack levels used: 1
  3925 ;; Hardware stack levels required when called: 4
  3926 ;; This function calls:
  3927 ;;		_LCD_sendnibble
  3928 ;; This function is called by:
  3929 ;;		_LCD_Init
  3930 ;;		_LCD_setline
  3931 ;;		_LCD_sendstring
  3932 ;;		_LCD_scroll
  3933 ;; This function uses a non-reentrant model
  3934 ;;
  3935                           
  3936                           	psect	text25
  3937   001EDE                     __ptext25:
  3938                           	callstack 0
  3939   001EDE                     _LCD_sendbyte:
  3940                           	callstack 24
  3941                           
  3942                           ;incstack = 0
  3943                           ;LCD_sendbyte@Byte stored from wreg
  3944   001EDE  6E06               	movwf	LCD_sendbyte@Byte^0,c
  3945   001EE0                     
  3946                           ;LCD.c: 36: void LCD_sendbyte(unsigned char Byte, char type);LCD.c: 37: {;LCD.c: 39:    
      +                           LATCbits.LATC6 = type;
  3947   001EE0  B005               	btfsc	LCD_sendbyte@type^0,0,c
  3948   001EE2  D002               	bra	u2585
  3949   001EE4  9C7B               	bcf	123,6,c	;volatile
  3950   001EE6  D001               	bra	u2586
  3951   001EE8                     u2585:
  3952   001EE8  8C7B               	bsf	123,6,c	;volatile
  3953   001EEA                     u2586:
  3954   001EEA                     
  3955                           ;LCD.c: 41:     LCD_sendnibble(Byte >> 4);
  3956   001EEA  3806               	swapf	LCD_sendbyte@Byte^0,w,c
  3957   001EEC  0B0F               	andlw	15
  3958   001EEE  ECF3  F00D         	call	_LCD_sendnibble
  3959   001EF2                     
  3960                           ;LCD.c: 42:     _delay((unsigned long)((50)*(64000000/4000000.0)));
  3961   001EF2  0EA0               	movlw	160
  3962   001EF4                     u3327:
  3963   001EF4  D000               	nop2	
  3964   001EF6  2EE8               	decfsz	wreg,f,c
  3965   001EF8  D7FD               	bra	u3327
  3966   001EFA                     
  3967                           ;LCD.c: 44:  LCD_sendnibble(Byte);
  3968   001EFA  5006               	movf	LCD_sendbyte@Byte^0,w,c
  3969   001EFC  ECF3  F00D         	call	_LCD_sendnibble
  3970   001F00                     
  3971                           ;LCD.c: 45:     _delay((unsigned long)((50)*(64000000/4000000.0)));
  3972   001F00  0EA0               	movlw	160
  3973   001F02                     u3337:
  3974   001F02  D000               	nop2	
  3975   001F04  2EE8               	decfsz	wreg,f,c
  3976   001F06  D7FD               	bra	u3337
  3977   001F08  0012               	return		;funcret
  3978   001F0A                     __end_of_LCD_sendbyte:
  3979                           	callstack 0
  3980                           
  3981 ;; *************** function _LCD_sendnibble *****************
  3982 ;; Defined at:
  3983 ;;		line 21 in file "LCD.c"
  3984 ;; Parameters:    Size  Location     Type
  3985 ;;  number          1    wreg     unsigned char 
  3986 ;; Auto vars:     Size  Location     Type
  3987 ;;  number          1    3[COMRAM] unsigned char 
  3988 ;; Return value:  Size  Location     Type
  3989 ;;                  1    wreg      void 
  3990 ;; Registers used:
  3991 ;;		wreg, cstack
  3992 ;; Tracked objects:
  3993 ;;		On entry : 0/0
  3994 ;;		On exit  : 0/0
  3995 ;;		Unchanged: 0/0
  3996 ;; Data sizes:     COMRAM   BANK0   BANK1   BANK2   BANK3   BANK4   BANK5   BANK6   BANK7   BANK8   BANK9  BANK10  BANK1
      +1  BANK12  BANK13
  3997 ;;      Params:         0       0       0       0       0       0       0       0       0       0       0       0       
      +0       0       0
  3998 ;;      Locals:         1       0       0       0       0       0       0       0       0       0       0       0       
      +0       0       0
  3999 ;;      Temps:          0       0       0       0       0       0       0       0       0       0       0       0       
      +0       0       0
  4000 ;;      Totals:         1       0       0       0       0       0       0       0       0       0       0       0       
      +0       0       0
  4001 ;;Total ram usage:        1 bytes
  4002 ;; Hardware stack levels used: 1
  4003 ;; Hardware stack levels required when called: 3
  4004 ;; This function calls:
  4005 ;;		_LCD_E_TOG
  4006 ;; This function is called by:
  4007 ;;		_LCD_sendbyte
  4008 ;;		_LCD_Init
  4009 ;; This function uses a non-reentrant model
  4010 ;;
  4011                           
  4012                           	psect	text26
  4013   001BE6                     __ptext26:
  4014                           	callstack 0
  4015   001BE6                     _LCD_sendnibble:
  4016                           	callstack 24
  4017                           
  4018                           ;incstack = 0
  4019                           ;LCD_sendnibble@number stored from wreg
  4020   001BE6  6E04               	movwf	LCD_sendnibble@number^0,c
  4021   001BE8                     
  4022                           ;LCD.c: 21: void LCD_sendnibble(unsigned char number);LCD.c: 22: {;LCD.c: 24:     if (nu
      +                          mber & 0b000000001) LATBbits.LATB3 = 1; else LATBbits.LATB3 = 0;
  4023   001BE8  A004               	btfss	LCD_sendnibble@number^0,0,c
  4024   001BEA  EFF9  F00D         	goto	u2491
  4025   001BEE  EFFB  F00D         	goto	u2490
  4026   001BF2                     u2491:
  4027   001BF2  EFFE  F00D         	goto	l44
  4028   001BF6                     u2490:
  4029   001BF6  867A               	bsf	122,3,c	;volatile
  4030   001BF8  EFFF  F00D         	goto	l2689
  4031   001BFC                     l44:
  4032   001BFC  967A               	bcf	122,3,c	;volatile
  4033   001BFE                     l2689:
  4034                           
  4035                           ;LCD.c: 25:     if (number & 0b000000010) LATBbits.LATB2 = 1; else LATBbits.LATB2 = 0;
  4036   001BFE  A204               	btfss	LCD_sendnibble@number^0,1,c
  4037   001C00  EF04  F00E         	goto	u2501
  4038   001C04  EF06  F00E         	goto	u2500
  4039   001C08                     u2501:
  4040   001C08  EF09  F00E         	goto	l46
  4041   001C0C                     u2500:
  4042   001C0C  847A               	bsf	122,2,c	;volatile
  4043   001C0E  EF0A  F00E         	goto	l2693
  4044   001C12                     l46:
  4045   001C12  947A               	bcf	122,2,c	;volatile
  4046   001C14                     l2693:
  4047                           
  4048                           ;LCD.c: 26:     if (number & 0b000000100) LATEbits.LATE3 = 1; else LATEbits.LATE3 = 0;
  4049   001C14  A404               	btfss	LCD_sendnibble@number^0,2,c
  4050   001C16  EF0F  F00E         	goto	u2511
  4051   001C1A  EF11  F00E         	goto	u2510
  4052   001C1E                     u2511:
  4053   001C1E  EF14  F00E         	goto	l48
  4054   001C22                     u2510:
  4055   001C22  867D               	bsf	125,3,c	;volatile
  4056   001C24  EF15  F00E         	goto	l2697
  4057   001C28                     l48:
  4058   001C28  967D               	bcf	125,3,c	;volatile
  4059   001C2A                     l2697:
  4060                           
  4061                           ;LCD.c: 27:     if (number & 0b000001000) LATEbits.LATE1 = 1; else LATEbits.LATE1 = 0;
  4062   001C2A  A604               	btfss	LCD_sendnibble@number^0,3,c
  4063   001C2C  EF1A  F00E         	goto	u2521
  4064   001C30  EF1C  F00E         	goto	u2520
  4065   001C34                     u2521:
  4066   001C34  EF1F  F00E         	goto	l50
  4067   001C38                     u2520:
  4068   001C38  827D               	bsf	125,1,c	;volatile
  4069   001C3A  EF20  F00E         	goto	l2701
  4070   001C3E                     l50:
  4071   001C3E  927D               	bcf	125,1,c	;volatile
  4072   001C40                     l2701:
  4073                           
  4074                           ;LCD.c: 28:     LCD_E_TOG();
  4075   001C40  ECF0  F00F         	call	_LCD_E_TOG	;wreg free
  4076   001C44                     
  4077                           ;LCD.c: 29:     _delay((unsigned long)((50)*(64000000/4000000.0)));
  4078   001C44  0EA0               	movlw	160
  4079   001C46                     u3347:
  4080   001C46  D000               	nop2	
  4081   001C48  2EE8               	decfsz	wreg,f,c
  4082   001C4A  D7FD               	bra	u3347
  4083   001C4C  0012               	return		;funcret
  4084   001C4E                     __end_of_LCD_sendnibble:
  4085                           	callstack 0
  4086                           
  4087 ;; *************** function _LCD_E_TOG *****************
  4088 ;; Defined at:
  4089 ;;		line 9 in file "LCD.c"
  4090 ;; Parameters:    Size  Location     Type
  4091 ;;		None
  4092 ;; Auto vars:     Size  Location     Type
  4093 ;;		None
  4094 ;; Return value:  Size  Location     Type
  4095 ;;                  1    wreg      void 
  4096 ;; Registers used:
  4097 ;;		wreg
  4098 ;; Tracked objects:
  4099 ;;		On entry : 0/0
  4100 ;;		On exit  : 0/0
  4101 ;;		Unchanged: 0/0
  4102 ;; Data sizes:     COMRAM   BANK0   BANK1   BANK2   BANK3   BANK4   BANK5   BANK6   BANK7   BANK8   BANK9  BANK10  BANK1
      +1  BANK12  BANK13
  4103 ;;      Params:         0       0       0       0       0       0       0       0       0       0       0       0       
      +0       0       0
  4104 ;;      Locals:         0       0       0       0       0       0       0       0       0       0       0       0       
      +0       0       0
  4105 ;;      Temps:          0       0       0       0       0       0       0       0       0       0       0       0       
      +0       0       0
  4106 ;;      Totals:         0       0       0       0       0       0       0       0       0       0       0       0       
      +0       0       0
  4107 ;;Total ram usage:        0 bytes
  4108 ;; Hardware stack levels used: 1
  4109 ;; Hardware stack levels required when called: 2
  4110 ;; This function calls:
  4111 ;;		Nothing
  4112 ;; This function is called by:
  4113 ;;		_LCD_sendnibble
  4114 ;; This function uses a non-reentrant model
  4115 ;;
  4116                           
  4117                           	psect	text27
  4118   001FE0                     __ptext27:
  4119                           	callstack 0
  4120   001FE0                     _LCD_E_TOG:
  4121                           	callstack 24
  4122   001FE0                     
  4123                           ;LCD.c: 12:     LATCbits.LATC2 = 1;
  4124   001FE0  847B               	bsf	123,2,c	;volatile
  4125   001FE2                     
  4126                           ;LCD.c: 13:  _delay((unsigned long)((5)*(64000000/4000000.0)));
  4127   001FE2  0E1A               	movlw	26
  4128   001FE4                     u3357:
  4129   001FE4  2EE8               	decfsz	wreg,f,c
  4130   001FE6  D7FE               	bra	u3357
  4131   001FE8  D000               	nop2	
  4132   001FEA                     
  4133                           ;LCD.c: 15:     LATCbits.LATC2 = 0;
  4134   001FEA  947B               	bcf	123,2,c	;volatile
  4135   001FEC  0012               	return		;funcret
  4136   001FEE                     __end_of_LCD_E_TOG:
  4137                           	callstack 0
  4138                           
  4139 ;; *************** function _Interrupts_init *****************
  4140 ;; Defined at:
  4141 ;;		line 9 in file "interrupts.c"
  4142 ;; Parameters:    Size  Location     Type
  4143 ;;		None
  4144 ;; Auto vars:     Size  Location     Type
  4145 ;;		None
  4146 ;; Return value:  Size  Location     Type
  4147 ;;                  1    wreg      void 
  4148 ;; Registers used:
  4149 ;;		None
  4150 ;; Tracked objects:
  4151 ;;		On entry : 0/0
  4152 ;;		On exit  : 0/0
  4153 ;;		Unchanged: 0/0
  4154 ;; Data sizes:     COMRAM   BANK0   BANK1   BANK2   BANK3   BANK4   BANK5   BANK6   BANK7   BANK8   BANK9  BANK10  BANK1
      +1  BANK12  BANK13
  4155 ;;      Params:         0       0       0       0       0       0       0       0       0       0       0       0       
      +0       0       0
  4156 ;;      Locals:         0       0       0       0       0       0       0       0       0       0       0       0       
      +0       0       0
  4157 ;;      Temps:          0       0       0       0       0       0       0       0       0       0       0       0       
      +0       0       0
  4158 ;;      Totals:         0       0       0       0       0       0       0       0       0       0       0       0       
      +0       0       0
  4159 ;;Total ram usage:        0 bytes
  4160 ;; Hardware stack levels used: 1
  4161 ;; Hardware stack levels required when called: 2
  4162 ;; This function calls:
  4163 ;;		Nothing
  4164 ;; This function is called by:
  4165 ;;		_main
  4166 ;; This function uses a non-reentrant model
  4167 ;;
  4168                           
  4169                           	psect	text28
  4170   001FCE                     __ptext28:
  4171                           	callstack 0
  4172   001FCE                     _Interrupts_init:
  4173                           	callstack 28
  4174   001FCE                     
  4175                           ;interrupts.c: 13:     PIE0bits.TMR0IE=1;
  4176   001FCE  010E               	movlb	14	; () banked
  4177   001FD0  8B29               	bsf	41,5,b	;volatile
  4178                           
  4179                           ;interrupts.c: 14:     PIE2bits.C1IE=1;
  4180   001FD2  812B               	bsf	43,0,b	;volatile
  4181                           
  4182                           ;interrupts.c: 16:     IPR2bits.C1IP = 1;
  4183   001FD4  8121               	bsf	33,0,b	;volatile
  4184                           
  4185                           ;interrupts.c: 17:     IPR0bits.TMR0IP = 0;
  4186   001FD6  9B1F               	bcf	31,5,b	;volatile
  4187                           
  4188                           ;interrupts.c: 18:     INTCONbits.IPEN=1;
  4189   001FD8  8AF2               	bsf	242,5,c	;volatile
  4190                           
  4191                           ;interrupts.c: 19:     INTCONbits.GIE=1;
  4192   001FDA  8EF2               	bsf	242,7,c	;volatile
  4193                           
  4194                           ;interrupts.c: 20:     INTCONbits.PEIE = 1;
  4195   001FDC  8CF2               	bsf	242,6,c	;volatile
  4196   001FDE                     
  4197                           ; BSR set to: 14
  4198   001FDE  0012               	return		;funcret
  4199   001FE0                     __end_of_Interrupts_init:
  4200                           	callstack 0
  4201                           
  4202 ;; *************** function _Comp1_init *****************
  4203 ;; Defined at:
  4204 ;;		line 22 in file "comparator.c"
  4205 ;; Parameters:    Size  Location     Type
  4206 ;;		None
  4207 ;; Auto vars:     Size  Location     Type
  4208 ;;		None
  4209 ;; Return value:  Size  Location     Type
  4210 ;;                  1    wreg      void 
  4211 ;; Registers used:
  4212 ;;		wreg, status,2, cstack
  4213 ;; Tracked objects:
  4214 ;;		On entry : 0/0
  4215 ;;		On exit  : 0/0
  4216 ;;		Unchanged: 0/0
  4217 ;; Data sizes:     COMRAM   BANK0   BANK1   BANK2   BANK3   BANK4   BANK5   BANK6   BANK7   BANK8   BANK9  BANK10  BANK1
      +1  BANK12  BANK13
  4218 ;;      Params:         0       0       0       0       0       0       0       0       0       0       0       0       
      +0       0       0
  4219 ;;      Locals:         0       0       0       0       0       0       0       0       0       0       0       0       
      +0       0       0
  4220 ;;      Temps:          0       0       0       0       0       0       0       0       0       0       0       0       
      +0       0       0
  4221 ;;      Totals:         0       0       0       0       0       0       0       0       0       0       0       0       
      +0       0       0
  4222 ;;Total ram usage:        0 bytes
  4223 ;; Hardware stack levels used: 1
  4224 ;; Hardware stack levels required when called: 3
  4225 ;; This function calls:
  4226 ;;		_DAC_init
  4227 ;; This function is called by:
  4228 ;;		_main
  4229 ;; This function uses a non-reentrant model
  4230 ;;
  4231                           
  4232                           	psect	text29
  4233   001F0A                     __ptext29:
  4234                           	callstack 0
  4235   001F0A                     _Comp1_init:
  4236                           	callstack 27
  4237   001F0A                     
  4238                           ;comparator.c: 24:     TRISFbits.TRISF7=1;
  4239   001F0A  8E86               	bsf	134,7,c	;volatile
  4240   001F0C                     
  4241                           ;comparator.c: 25:     CM1NCHbits.NCH=0b011;
  4242   001F0C  010E               	movlb	14	; () banked
  4243   001F0E  51D2               	movf	210,w,b	;volatile
  4244   001F10  0BF8               	andlw	-8
  4245   001F12  0903               	iorlw	3
  4246   001F14  6FD2               	movwf	210,b	;volatile
  4247                           
  4248                           ;comparator.c: 26:     CM1PCHbits.PCH=0b101;
  4249   001F16  51D3               	movf	211,w,b	;volatile
  4250   001F18  0BF8               	andlw	-8
  4251   001F1A  0905               	iorlw	5
  4252   001F1C  6FD3               	movwf	211,b	;volatile
  4253   001F1E                     
  4254                           ; BSR set to: 14
  4255                           ;comparator.c: 27:     CM1CON0bits.HYS=1;
  4256   001F1E  83D0               	bsf	208,1,b	;volatile
  4257   001F20                     
  4258                           ; BSR set to: 14
  4259                           ;comparator.c: 28:     CM1CON0bits.POL=1;
  4260   001F20  89D0               	bsf	208,4,b	;volatile
  4261   001F22                     
  4262                           ; BSR set to: 14
  4263                           ;comparator.c: 29:     CM1CON1bits.INTP=1;
  4264   001F22  83D1               	bsf	209,1,b	;volatile
  4265   001F24                     
  4266                           ; BSR set to: 14
  4267                           ;comparator.c: 30:     CM1CON1bits.INTN=1;
  4268   001F24  81D1               	bsf	209,0,b	;volatile
  4269   001F26                     
  4270                           ; BSR set to: 14
  4271                           ;comparator.c: 31:     DAC_init();
  4272   001F26  ECD4  F00F         	call	_DAC_init	;wreg free
  4273   001F2A                     
  4274                           ;comparator.c: 32:     CM1CON0bits.EN=1;
  4275   001F2A  010E               	movlb	14	; () banked
  4276   001F2C  8FD0               	bsf	208,7,b	;volatile
  4277   001F2E                     
  4278                           ; BSR set to: 14
  4279   001F2E  0012               	return		;funcret
  4280   001F30                     __end_of_Comp1_init:
  4281                           	callstack 0
  4282                           
  4283 ;; *************** function _DAC_init *****************
  4284 ;; Defined at:
  4285 ;;		line 7 in file "comparator.c"
  4286 ;; Parameters:    Size  Location     Type
  4287 ;;		None
  4288 ;; Auto vars:     Size  Location     Type
  4289 ;;		None
  4290 ;; Return value:  Size  Location     Type
  4291 ;;                  1    wreg      void 
  4292 ;; Registers used:
  4293 ;;		wreg, status,2
  4294 ;; Tracked objects:
  4295 ;;		On entry : 0/0
  4296 ;;		On exit  : 0/0
  4297 ;;		Unchanged: 0/0
  4298 ;; Data sizes:     COMRAM   BANK0   BANK1   BANK2   BANK3   BANK4   BANK5   BANK6   BANK7   BANK8   BANK9  BANK10  BANK1
      +1  BANK12  BANK13
  4299 ;;      Params:         0       0       0       0       0       0       0       0       0       0       0       0       
      +0       0       0
  4300 ;;      Locals:         0       0       0       0       0       0       0       0       0       0       0       0       
      +0       0       0
  4301 ;;      Temps:          0       0       0       0       0       0       0       0       0       0       0       0       
      +0       0       0
  4302 ;;      Totals:         0       0       0       0       0       0       0       0       0       0       0       0       
      +0       0       0
  4303 ;;Total ram usage:        0 bytes
  4304 ;; Hardware stack levels used: 1
  4305 ;; Hardware stack levels required when called: 2
  4306 ;; This function calls:
  4307 ;;		Nothing
  4308 ;; This function is called by:
  4309 ;;		_Comp1_init
  4310 ;; This function uses a non-reentrant model
  4311 ;;
  4312                           
  4313                           	psect	text30
  4314   001FA8                     __ptext30:
  4315                           	callstack 0
  4316   001FA8                     _DAC_init:
  4317                           	callstack 27
  4318   001FA8                     
  4319                           ;comparator.c: 9:     DAC1CON0bits.PSS=0b00;
  4320   001FA8  0EF3               	movlw	-13
  4321   001FAA  010E               	movlb	14	; () banked
  4322   001FAC  17C6               	andwf	198,f,b	;volatile
  4323   001FAE                     
  4324                           ; BSR set to: 14
  4325                           ;comparator.c: 10:     DAC1CON0bits.NSS=0b0;
  4326   001FAE  91C6               	bcf	198,0,b	;volatile
  4327                           
  4328                           ;comparator.c: 14:     DAC1CON1bits.DAC1R=0b11011;
  4329   001FB0  51C7               	movf	199,w,b	;volatile
  4330   001FB2  0BE0               	andlw	-32
  4331   001FB4  091B               	iorlw	27
  4332   001FB6  6FC7               	movwf	199,b	;volatile
  4333   001FB8                     
  4334                           ; BSR set to: 14
  4335                           ;comparator.c: 15:     DAC1CON0bits.DAC1EN=1;
  4336   001FB8  8FC6               	bsf	198,7,b	;volatile
  4337   001FBA                     
  4338                           ; BSR set to: 14
  4339   001FBA  0012               	return		;funcret
  4340   001FBC                     __end_of_DAC_init:
  4341                           	callstack 0
  4342                           
  4343 ;; *************** function _ADC_init *****************
  4344 ;; Defined at:
  4345 ;;		line 9 in file "ADC.c"
  4346 ;; Parameters:    Size  Location     Type
  4347 ;;		None
  4348 ;; Auto vars:     Size  Location     Type
  4349 ;;		None
  4350 ;; Return value:  Size  Location     Type
  4351 ;;                  1    wreg      void 
  4352 ;; Registers used:
  4353 ;;		wreg, status,2
  4354 ;; Tracked objects:
  4355 ;;		On entry : 0/0
  4356 ;;		On exit  : 0/0
  4357 ;;		Unchanged: 0/0
  4358 ;; Data sizes:     COMRAM   BANK0   BANK1   BANK2   BANK3   BANK4   BANK5   BANK6   BANK7   BANK8   BANK9  BANK10  BANK1
      +1  BANK12  BANK13
  4359 ;;      Params:         0       0       0       0       0       0       0       0       0       0       0       0       
      +0       0       0
  4360 ;;      Locals:         0       0       0       0       0       0       0       0       0       0       0       0       
      +0       0       0
  4361 ;;      Temps:          0       0       0       0       0       0       0       0       0       0       0       0       
      +0       0       0
  4362 ;;      Totals:         0       0       0       0       0       0       0       0       0       0       0       0       
      +0       0       0
  4363 ;;Total ram usage:        0 bytes
  4364 ;; Hardware stack levels used: 1
  4365 ;; Hardware stack levels required when called: 2
  4366 ;; This function calls:
  4367 ;;		Nothing
  4368 ;; This function is called by:
  4369 ;;		_main
  4370 ;; This function uses a non-reentrant model
  4371 ;;
  4372                           
  4373                           	psect	text31
  4374   001F76                     __ptext31:
  4375                           	callstack 0
  4376   001F76                     _ADC_init:
  4377                           	callstack 28
  4378   001F76                     
  4379                           ;ADC.c: 11:     TRISAbits.TRISA3=1;
  4380   001F76  8681               	bsf	129,3,c	;volatile
  4381                           
  4382                           ;ADC.c: 12:     ANSELAbits.ANSELA3=1;
  4383   001F78  010E               	movlb	14	; () banked
  4384   001F7A  8792               	bsf	146,3,b	;volatile
  4385                           
  4386                           ;ADC.c: 15:     ADREFbits.ADNREF = 0;
  4387   001F7C  010F               	movlb	15	; () banked
  4388   001F7E  9958               	bcf	88,4,b	;volatile
  4389   001F80                     
  4390                           ; BSR set to: 15
  4391                           ;ADC.c: 16:     ADREFbits.ADPREF = 0b00;
  4392   001F80  0EFC               	movlw	-4
  4393   001F82  1758               	andwf	88,f,b	;volatile
  4394                           
  4395                           ;ADC.c: 17:     ADPCH=0b11;
  4396   001F84  0E03               	movlw	3
  4397   001F86  6F5F               	movwf	95,b	;volatile
  4398   001F88                     
  4399                           ; BSR set to: 15
  4400                           ;ADC.c: 18:     ADCON0bits.ADFM = 0;
  4401   001F88  9460               	bcf	96,2,c	;volatile
  4402   001F8A                     
  4403                           ; BSR set to: 15
  4404                           ;ADC.c: 19:     ADCON0bits.ADCS = 1;
  4405   001F8A  8860               	bsf	96,4,c	;volatile
  4406   001F8C                     
  4407                           ; BSR set to: 15
  4408                           ;ADC.c: 20:     ADCON0bits.ADON = 1;
  4409   001F8C  8E60               	bsf	96,7,c	;volatile
  4410   001F8E                     
  4411                           ; BSR set to: 15
  4412   001F8E  0012               	return		;funcret
  4413   001F90                     __end_of_ADC_init:
  4414                           	callstack 0
  4415                           
  4416 ;; *************** function _ADC_getval *****************
  4417 ;; Defined at:
  4418 ;;		line 23 in file "ADC.c"
  4419 ;; Parameters:    Size  Location     Type
  4420 ;;		None
  4421 ;; Auto vars:     Size  Location     Type
  4422 ;;  tmpval          2   22[COMRAM] unsigned int 
  4423 ;; Return value:  Size  Location     Type
  4424 ;;                  2   20[COMRAM] unsigned int 
  4425 ;; Registers used:
  4426 ;;		wreg, status,2, status,0, prodl, prodh, cstack
  4427 ;; Tracked objects:
  4428 ;;		On entry : 0/0
  4429 ;;		On exit  : 0/0
  4430 ;;		Unchanged: 0/0
  4431 ;; Data sizes:     COMRAM   BANK0   BANK1   BANK2   BANK3   BANK4   BANK5   BANK6   BANK7   BANK8   BANK9  BANK10  BANK1
      +1  BANK12  BANK13
  4432 ;;      Params:         2       0       0       0       0       0       0       0       0       0       0       0       
      +0       0       0
  4433 ;;      Locals:         2       0       0       0       0       0       0       0       0       0       0       0       
      +0       0       0
  4434 ;;      Temps:          0       0       0       0       0       0       0       0       0       0       0       0       
      +0       0       0
  4435 ;;      Totals:         4       0       0       0       0       0       0       0       0       0       0       0       
      +0       0       0
  4436 ;;Total ram usage:        4 bytes
  4437 ;; Hardware stack levels used: 1
  4438 ;; Hardware stack levels required when called: 3
  4439 ;; This function calls:
  4440 ;;		___lwdiv
  4441 ;;		___wmul
  4442 ;; This function is called by:
  4443 ;;		_main
  4444 ;; This function uses a non-reentrant model
  4445 ;;
  4446                           
  4447                           	psect	text32
  4448   001AF4                     __ptext32:
  4449                           	callstack 0
  4450   001AF4                     _ADC_getval:
  4451                           	callstack 27
  4452   001AF4                     
  4453                           ;ADC.c: 25:     unsigned int tmpval;;ADC.c: 26:     ADCON0bits.GO = 1;
  4454   001AF4  8060               	bsf	96,0,c	;volatile
  4455   001AF6                     l18:
  4456   001AF6  B060               	btfsc	96,0,c	;volatile
  4457   001AF8  EF80  F00D         	goto	u3021
  4458   001AFC  EF82  F00D         	goto	u3020
  4459   001B00                     u3021:
  4460   001B00  EF7B  F00D         	goto	l18
  4461   001B04                     u3020:
  4462   001B04                     
  4463                           ;ADC.c: 30:     tmpval = ADRESH;
  4464   001B04  CF64 F017          	movff	3940,ADC_getval@tmpval	;volatile
  4465   001B08  6A18               	clrf	(ADC_getval@tmpval+1)^0,c
  4466   001B0A                     
  4467                           ;ADC.c: 34:     tmpval = 255 - tmpval;
  4468   001B0A  5017               	movf	ADC_getval@tmpval^0,w,c
  4469   001B0C  08FF               	sublw	255
  4470   001B0E  6E17               	movwf	ADC_getval@tmpval^0,c
  4471   001B10  5018               	movf	(ADC_getval@tmpval+1)^0,w,c
  4472   001B12  A0D8               	btfss	status,0,c
  4473   001B14  2AE8               	incf	wreg,f,c
  4474   001B16  0800               	sublw	0
  4475   001B18  6E18               	movwf	(ADC_getval@tmpval+1)^0,c
  4476   001B1A                     
  4477                           ;ADC.c: 40:     tmpval = ((tmpval - 20 + 2) *255)/(106-20+2) ;
  4478   001B1A  0EEE               	movlw	238
  4479   001B1C  2417               	addwf	ADC_getval@tmpval^0,w,c
  4480   001B1E  6E08               	movwf	___wmul@multiplier^0,c
  4481   001B20  0EFF               	movlw	255
  4482   001B22  2018               	addwfc	(ADC_getval@tmpval+1)^0,w,c
  4483   001B24  6E09               	movwf	(___wmul@multiplier+1)^0,c
  4484   001B26  0E00               	movlw	0
  4485   001B28  6E0B               	movwf	(___wmul@multiplicand+1)^0,c
  4486   001B2A  680A               	setf	___wmul@multiplicand^0,c
  4487   001B2C  EC98  F00F         	call	___wmul	;wreg free
  4488   001B30  C008  F00E         	movff	?___wmul,___lwdiv@dividend
  4489   001B34  C009  F00F         	movff	?___wmul+1,___lwdiv@dividend+1
  4490   001B38  0E00               	movlw	0
  4491   001B3A  6E11               	movwf	(___lwdiv@divisor+1)^0,c
  4492   001B3C  0E58               	movlw	88
  4493   001B3E  6E10               	movwf	___lwdiv@divisor^0,c
  4494   001B40  ECB9  F00D         	call	___lwdiv	;wreg free
  4495   001B44  C00E  F017         	movff	?___lwdiv,ADC_getval@tmpval
  4496   001B48  C00F  F018         	movff	?___lwdiv+1,ADC_getval@tmpval+1
  4497   001B4C                     
  4498                           ;ADC.c: 41:     if (tmpval > 512) {tmpval = 0;}
  4499   001B4C  0417               	decf	ADC_getval@tmpval^0,w,c
  4500   001B4E  0E02               	movlw	2
  4501   001B50  5818               	subwfb	(ADC_getval@tmpval+1)^0,w,c
  4502   001B52  A0D8               	btfss	status,0,c
  4503   001B54  EFAE  F00D         	goto	u3031
  4504   001B58  EFB0  F00D         	goto	u3030
  4505   001B5C                     u3031:
  4506   001B5C  EFB4  F00D         	goto	l2977
  4507   001B60                     u3030:
  4508   001B60  0E00               	movlw	0
  4509   001B62  6E18               	movwf	(ADC_getval@tmpval+1)^0,c
  4510   001B64  0E00               	movlw	0
  4511   001B66  6E17               	movwf	ADC_getval@tmpval^0,c
  4512   001B68                     l2977:
  4513                           
  4514                           ;ADC.c: 43:     return tmpval;
  4515   001B68  C017  F015         	movff	ADC_getval@tmpval,?_ADC_getval
  4516   001B6C  C018  F016         	movff	ADC_getval@tmpval+1,?_ADC_getval+1
  4517   001B70  0012               	return		;funcret
  4518   001B72                     __end_of_ADC_getval:
  4519                           	callstack 0
  4520                           
  4521 ;; *************** function ___wmul *****************
  4522 ;; Defined at:
  4523 ;;		line 15 in file "C:\Program Files\Microchip\xc8\v2.45\pic\sources\c99\common\Umul16.c"
  4524 ;; Parameters:    Size  Location     Type
  4525 ;;  multiplier      2    7[COMRAM] unsigned int 
  4526 ;;  multiplicand    2    9[COMRAM] unsigned int 
  4527 ;; Auto vars:     Size  Location     Type
  4528 ;;  product         2   11[COMRAM] unsigned int 
  4529 ;; Return value:  Size  Location     Type
  4530 ;;                  2    7[COMRAM] unsigned int 
  4531 ;; Registers used:
  4532 ;;		wreg, status,2, status,0, prodl, prodh
  4533 ;; Tracked objects:
  4534 ;;		On entry : 0/0
  4535 ;;		On exit  : 0/0
  4536 ;;		Unchanged: 0/0
  4537 ;; Data sizes:     COMRAM   BANK0   BANK1   BANK2   BANK3   BANK4   BANK5   BANK6   BANK7   BANK8   BANK9  BANK10  BANK1
      +1  BANK12  BANK13
  4538 ;;      Params:         4       0       0       0       0       0       0       0       0       0       0       0       
      +0       0       0
  4539 ;;      Locals:         2       0       0       0       0       0       0       0       0       0       0       0       
      +0       0       0
  4540 ;;      Temps:          0       0       0       0       0       0       0       0       0       0       0       0       
      +0       0       0
  4541 ;;      Totals:         6       0       0       0       0       0       0       0       0       0       0       0       
      +0       0       0
  4542 ;;Total ram usage:        6 bytes
  4543 ;; Hardware stack levels used: 1
  4544 ;; Hardware stack levels required when called: 2
  4545 ;; This function calls:
  4546 ;;		Nothing
  4547 ;; This function is called by:
  4548 ;;		_ADC_getval
  4549 ;;		_disp_time
  4550 ;;		_read_prec_or_width
  4551 ;;		_ADC2String
  4552 ;; This function uses a non-reentrant model
  4553 ;;
  4554                           
  4555                           	psect	text33
  4556   001F30                     __ptext33:
  4557                           	callstack 0
  4558   001F30                     ___wmul:
  4559                           	callstack 24
  4560   001F30  5008               	movf	___wmul@multiplier^0,w,c
  4561   001F32  020A               	mulwf	___wmul@multiplicand^0,c
  4562   001F34  CFF3 F00C          	movff	prodl,___wmul@product
  4563   001F38  CFF4 F00D          	movff	prodh,___wmul@product+1
  4564   001F3C  5008               	movf	___wmul@multiplier^0,w,c
  4565   001F3E  020B               	mulwf	(___wmul@multiplicand+1)^0,c
  4566   001F40  50F3               	movf	243,w,c
  4567   001F42  260D               	addwf	(___wmul@product+1)^0,f,c
  4568   001F44  5009               	movf	(___wmul@multiplier+1)^0,w,c
  4569   001F46  020A               	mulwf	___wmul@multiplicand^0,c
  4570   001F48  50F3               	movf	243,w,c
  4571   001F4A  260D               	addwf	(___wmul@product+1)^0,f,c
  4572   001F4C  C00C  F008         	movff	___wmul@product,?___wmul
  4573   001F50  C00D  F009         	movff	___wmul@product+1,?___wmul+1
  4574   001F54  0012               	return		;funcret
  4575   001F56                     __end_of___wmul:
  4576                           	callstack 0
  4577                           
  4578 ;; *************** function ___lwdiv *****************
  4579 ;; Defined at:
  4580 ;;		line 7 in file "C:\Program Files\Microchip\xc8\v2.45\pic\sources\c99\common\lwdiv.c"
  4581 ;; Parameters:    Size  Location     Type
  4582 ;;  dividend        2   13[COMRAM] unsigned int 
  4583 ;;  divisor         2   15[COMRAM] unsigned int 
  4584 ;; Auto vars:     Size  Location     Type
  4585 ;;  quotient        2   18[COMRAM] unsigned int 
  4586 ;;  counter         1   17[COMRAM] unsigned char 
  4587 ;; Return value:  Size  Location     Type
  4588 ;;                  2   13[COMRAM] unsigned int 
  4589 ;; Registers used:
  4590 ;;		wreg, status,2, status,0
  4591 ;; Tracked objects:
  4592 ;;		On entry : 0/0
  4593 ;;		On exit  : 0/0
  4594 ;;		Unchanged: 0/0
  4595 ;; Data sizes:     COMRAM   BANK0   BANK1   BANK2   BANK3   BANK4   BANK5   BANK6   BANK7   BANK8   BANK9  BANK10  BANK1
      +1  BANK12  BANK13
  4596 ;;      Params:         4       0       0       0       0       0       0       0       0       0       0       0       
      +0       0       0
  4597 ;;      Locals:         3       0       0       0       0       0       0       0       0       0       0       0       
      +0       0       0
  4598 ;;      Temps:          0       0       0       0       0       0       0       0       0       0       0       0       
      +0       0       0
  4599 ;;      Totals:         7       0       0       0       0       0       0       0       0       0       0       0       
      +0       0       0
  4600 ;;Total ram usage:        7 bytes
  4601 ;; Hardware stack levels used: 1
  4602 ;; Hardware stack levels required when called: 2
  4603 ;; This function calls:
  4604 ;;		Nothing
  4605 ;; This function is called by:
  4606 ;;		_ADC_getval
  4607 ;;		_disp_time
  4608 ;;		_ADC2String
  4609 ;; This function uses a non-reentrant model
  4610 ;;
  4611                           
  4612                           	psect	text34
  4613   001B72                     __ptext34:
  4614                           	callstack 0
  4615   001B72                     ___lwdiv:
  4616                           	callstack 27
  4617   001B72  0E00               	movlw	0
  4618   001B74  6E14               	movwf	(___lwdiv@quotient+1)^0,c
  4619   001B76  0E00               	movlw	0
  4620   001B78  6E13               	movwf	___lwdiv@quotient^0,c
  4621   001B7A  5010               	movf	___lwdiv@divisor^0,w,c
  4622   001B7C  1011               	iorwf	(___lwdiv@divisor+1)^0,w,c
  4623   001B7E  B4D8               	btfsc	status,2,c
  4624   001B80  EFC4  F00D         	goto	u2991
  4625   001B84  EFC6  F00D         	goto	u2990
  4626   001B88                     u2991:
  4627   001B88  EFEE  F00D         	goto	l810
  4628   001B8C                     u2990:
  4629   001B8C  0E01               	movlw	1
  4630   001B8E  6E12               	movwf	___lwdiv@counter^0,c
  4631   001B90  EFCE  F00D         	goto	l2943
  4632   001B94                     l2941:
  4633   001B94  90D8               	bcf	status,0,c
  4634   001B96  3610               	rlcf	___lwdiv@divisor^0,f,c
  4635   001B98  3611               	rlcf	(___lwdiv@divisor+1)^0,f,c
  4636   001B9A  2A12               	incf	___lwdiv@counter^0,f,c
  4637   001B9C                     l2943:
  4638   001B9C  AE11               	btfss	(___lwdiv@divisor+1)^0,7,c
  4639   001B9E  EFD3  F00D         	goto	u3001
  4640   001BA2  EFD5  F00D         	goto	u3000
  4641   001BA6                     u3001:
  4642   001BA6  EFCA  F00D         	goto	l2941
  4643   001BAA                     u3000:
  4644   001BAA                     l2945:
  4645   001BAA  90D8               	bcf	status,0,c
  4646   001BAC  3613               	rlcf	___lwdiv@quotient^0,f,c
  4647   001BAE  3614               	rlcf	(___lwdiv@quotient+1)^0,f,c
  4648   001BB0  5010               	movf	___lwdiv@divisor^0,w,c
  4649   001BB2  5C0E               	subwf	___lwdiv@dividend^0,w,c
  4650   001BB4  5011               	movf	(___lwdiv@divisor+1)^0,w,c
  4651   001BB6  580F               	subwfb	(___lwdiv@dividend+1)^0,w,c
  4652   001BB8  A0D8               	btfss	status,0,c
  4653   001BBA  EFE1  F00D         	goto	u3011
  4654   001BBE  EFE3  F00D         	goto	u3010
  4655   001BC2                     u3011:
  4656   001BC2  EFE8  F00D         	goto	l2953
  4657   001BC6                     u3010:
  4658   001BC6  5010               	movf	___lwdiv@divisor^0,w,c
  4659   001BC8  5E0E               	subwf	___lwdiv@dividend^0,f,c
  4660   001BCA  5011               	movf	(___lwdiv@divisor+1)^0,w,c
  4661   001BCC  5A0F               	subwfb	(___lwdiv@dividend+1)^0,f,c
  4662   001BCE  8013               	bsf	___lwdiv@quotient^0,0,c
  4663   001BD0                     l2953:
  4664   001BD0  90D8               	bcf	status,0,c
  4665   001BD2  3211               	rrcf	(___lwdiv@divisor+1)^0,f,c
  4666   001BD4  3210               	rrcf	___lwdiv@divisor^0,f,c
  4667   001BD6  2E12               	decfsz	___lwdiv@counter^0,f,c
  4668   001BD8  EFD5  F00D         	goto	l2945
  4669   001BDC                     l810:
  4670   001BDC  C013  F00E         	movff	___lwdiv@quotient,?___lwdiv
  4671   001BE0  C014  F00F         	movff	___lwdiv@quotient+1,?___lwdiv+1
  4672   001BE4  0012               	return		;funcret
  4673   001BE6                     __end_of___lwdiv:
  4674                           	callstack 0
  4675                           
  4676 ;; *************** function _LowISR *****************
  4677 ;; Defined at:
  4678 ;;		line 36 in file "interrupts.c"
  4679 ;; Parameters:    Size  Location     Type
  4680 ;;		None
  4681 ;; Auto vars:     Size  Location     Type
  4682 ;;		None
  4683 ;; Return value:  Size  Location     Type
  4684 ;;                  1    wreg      void 
  4685 ;; Registers used:
  4686 ;;		wreg, status,2
  4687 ;; Tracked objects:
  4688 ;;		On entry : 0/0
  4689 ;;		On exit  : 0/0
  4690 ;;		Unchanged: 0/0
  4691 ;; Data sizes:     COMRAM   BANK0   BANK1   BANK2   BANK3   BANK4   BANK5   BANK6   BANK7   BANK8   BANK9  BANK10  BANK1
      +1  BANK12  BANK13
  4692 ;;      Params:         0       0       0       0       0       0       0       0       0       0       0       0       
      +0       0       0
  4693 ;;      Locals:         0       0       0       0       0       0       0       0       0       0       0       0       
      +0       0       0
  4694 ;;      Temps:          3       0       0       0       0       0       0       0       0       0       0       0       
      +0       0       0
  4695 ;;      Totals:         3       0       0       0       0       0       0       0       0       0       0       0       
      +0       0       0
  4696 ;;Total ram usage:        3 bytes
  4697 ;; Hardware stack levels used: 1
  4698 ;; Hardware stack levels required when called: 1
  4699 ;; This function calls:
  4700 ;;		Nothing
  4701 ;; This function is called by:
  4702 ;;		Interrupt level 1
  4703 ;; This function uses a non-reentrant model
  4704 ;;
  4705                           
  4706                           	psect	intcodelo
  4707   000018                     __pintcodelo:
  4708                           	callstack 0
  4709   000018                     _LowISR:
  4710                           	callstack 20
  4711                           
  4712                           ;incstack = 0
  4713   000018  805B               	bsf	int$flags,0,c	;set compiler interrupt flag (level 1)
  4714   00001A  CFD8 F001          	movff	status,??_LowISR
  4715   00001E  CFE8 F002          	movff	wreg,??_LowISR+1
  4716   000022  CFE0 F003          	movff	bsr,??_LowISR+2
  4717   000026                     
  4718                           ;interrupts.c: 39:     if(PIR0bits.TMR0IF){
  4719   000026  010E               	movlb	14	; () banked
  4720   000028  AB33               	btfss	51,5,b	;volatile
  4721   00002A  EF19  F000         	goto	i1u108_21
  4722   00002E  EF1B  F000         	goto	i1u108_20
  4723   000032                     i1u108_21:
  4724   000032  EF21  F000         	goto	i1l262
  4725   000036                     i1u108_20:
  4726   000036                     
  4727                           ; BSR set to: 14
  4728                           ;interrupts.c: 40:         TMR0H=0b00001011;
  4729   000036  0E0B               	movlw	11
  4730   000038  6ED4               	movwf	212,c	;volatile
  4731                           
  4732                           ;interrupts.c: 41:         TMR0L=0b11011011;
  4733   00003A  0EDB               	movlw	219
  4734   00003C  6ED3               	movwf	211,c	;volatile
  4735   00003E                     
  4736                           ; BSR set to: 14
  4737                           ;interrupts.c: 43:         LATDbits.LATD4 = 1;
  4738   00003E  887C               	bsf	124,4,c	;volatile
  4739   000040                     
  4740                           ; BSR set to: 14
  4741                           ;interrupts.c: 44:         PIR0bits.TMR0IF=0;
  4742   000040  9B33               	bcf	51,5,b	;volatile
  4743   000042                     i1l262:
  4744                           
  4745                           ; BSR set to: 14
  4746   000042  C003  FFE0         	movff	??_LowISR+2,bsr
  4747   000046  C002  FFE8         	movff	??_LowISR+1,wreg
  4748   00004A  C001  FFD8         	movff	??_LowISR,status
  4749   00004E  905B               	bcf	int$flags,0,c	;clear compiler interrupt flag (level 1)
  4750   000050  0010               	retfie	
  4751   000052                     __end_of_LowISR:
  4752                           	callstack 0
  4753                           
  4754 ;; *************** function _HighISR *****************
  4755 ;; Defined at:
  4756 ;;		line 27 in file "interrupts.c"
  4757 ;; Parameters:    Size  Location     Type
  4758 ;;		None
  4759 ;; Auto vars:     Size  Location     Type
  4760 ;;		None
  4761 ;; Return value:  Size  Location     Type
  4762 ;;                  1    wreg      void 
  4763 ;; Registers used:
  4764 ;;		None
  4765 ;; Tracked objects:
  4766 ;;		On entry : 0/0
  4767 ;;		On exit  : 0/0
  4768 ;;		Unchanged: 0/0
  4769 ;; Data sizes:     COMRAM   BANK0   BANK1   BANK2   BANK3   BANK4   BANK5   BANK6   BANK7   BANK8   BANK9  BANK10  BANK1
      +1  BANK12  BANK13
  4770 ;;      Params:         0       0       0       0       0       0       0       0       0       0       0       0       
      +0       0       0
  4771 ;;      Locals:         0       0       0       0       0       0       0       0       0       0       0       0       
      +0       0       0
  4772 ;;      Temps:          0       0       0       0       0       0       0       0       0       0       0       0       
      +0       0       0
  4773 ;;      Totals:         0       0       0       0       0       0       0       0       0       0       0       0       
      +0       0       0
  4774 ;;Total ram usage:        0 bytes
  4775 ;; Hardware stack levels used: 1
  4776 ;; This function calls:
  4777 ;;		Nothing
  4778 ;; This function is called by:
  4779 ;;		Interrupt level 2
  4780 ;; This function uses a non-reentrant model
  4781 ;;
  4782                           
  4783                           	psect	intcode
  4784   000008                     __pintcode:
  4785                           	callstack 0
  4786   000008                     _HighISR:
  4787                           	callstack 20
  4788                           
  4789                           ; BSR set to: 14
  4790                           ;incstack = 0
  4791   000008  825B               	bsf	int$flags,1,c	;set compiler interrupt flag (level 2)
  4792   00000A  EFC8  F00F         	goto	int_func
  4793                           
  4794                           	psect	intcode_body
  4795   001F90                     __pintcode_body:
  4796                           	callstack 20
  4797   001F90                     int_func:
  4798                           	callstack 20
  4799   001F90                     
  4800                           ;interrupts.c: 30:     if(PIR2bits.C1IF){
  4801   001F90  010E               	movlb	14	; () banked
  4802   001F92  A135               	btfss	53,0,b	;volatile
  4803   001F94  EFCE  F00F         	goto	i2u107_41
  4804   001F98  EFD0  F00F         	goto	i2u107_40
  4805   001F9C                     i2u107_41:
  4806   001F9C  EFD2  F00F         	goto	i2l256
  4807   001FA0                     i2u107_40:
  4808   001FA0                     
  4809                           ; BSR set to: 14
  4810                           ;interrupts.c: 31:         LATDbits.LATD7 = 1;
  4811   001FA0  8E7C               	bsf	124,7,c	;volatile
  4812                           
  4813                           ;interrupts.c: 32:         PIR2bits.C1IF=0;
  4814   001FA2  9135               	bcf	53,0,b	;volatile
  4815   001FA4                     i2l256:
  4816                           
  4817                           ; BSR set to: 14
  4818   001FA4  925B               	bcf	int$flags,1,c	;clear compiler interrupt flag (level 2)
  4819   001FA6  0011               	retfie		f
  4820   001FA8                     __end_of_HighISR:
  4821                           	callstack 0
  4822                           
  4823                           	psect	rparam
  4824   000000                     
  4825                           	psect	temp
  4826   00005B                     btemp:
  4827                           	callstack 0
  4828   00005B                     	ds	1
  4829   000000                     int$flags	set	btemp
  4830   000000                     wtemp8	set	btemp+1
  4831   000000                     ttemp5	set	btemp+1
  4832   000000                     ttemp6	set	btemp+4
  4833   000000                     ttemp7	set	btemp+8
  4834                           
  4835                           	psect	config
  4836                           
  4837                           ;Config register CONFIG1L @ 0x300000
  4838                           ;	External Oscillator mode Selection bits
  4839                           ;	FEXTOSC = HS, HS (crystal oscillator) above 8 MHz; PFM set to high power
  4840                           ;	Power-up default value for COSC bits
  4841                           ;	RSTOSC = EXTOSC_4PLL, EXTOSC with 4x PLL, with EXTOSC operating per FEXTOSC bits
  4842   300000                     	org	3145728
  4843   300000  AA                 	db	170
  4844                           
  4845                           ;Config register CONFIG1H @ 0x300001
  4846                           ;	unspecified, using default values
  4847                           ;	Clock Out Enable bit
  4848                           ;	CLKOUTEN = 0x1, unprogrammed default
  4849                           ;	Clock Switch Enable bit
  4850                           ;	CSWEN = 0x1, unprogrammed default
  4851                           ;	Fail-Safe Clock Monitor Enable bit
  4852                           ;	FCMEN = 0x1, unprogrammed default
  4853   300001                     	org	3145729
  4854   300001  FF                 	db	255
  4855                           
  4856                           ;Config register CONFIG3L @ 0x300004
  4857                           ;	WDT Period Select bits
  4858                           ;	WDTCPS = 0x1F, unprogrammed default
  4859                           ;	WDT operating mode
  4860                           ;	WDTE = OFF, WDT Disabled
  4861   300004                     	org	3145732
  4862   300004  9F                 	db	159
  4863                           
  4864                           ;Config register CONFIG3H @ 0x300005
  4865                           ;	unspecified, using default values
  4866                           ;	WDT Window Select bits
  4867                           ;	WDTCWS = 0x7, unprogrammed default
  4868                           ;	WDT input clock selector
  4869                           ;	WDTCCS = 0x7, unprogrammed default
  4870   300005                     	org	3145733
  4871   300005  FF                 	db	255
  4872                           tosu	equ	0xFFF
  4873                           tosh	equ	0xFFE
  4874                           tosl	equ	0xFFD
  4875                           stkptr	equ	0xFFC
  4876                           pclatu	equ	0xFFB
  4877                           pclath	equ	0xFFA
  4878                           pcl	equ	0xFF9
  4879                           tblptru	equ	0xFF8
  4880                           tblptrh	equ	0xFF7
  4881                           tblptrl	equ	0xFF6
  4882                           tablat	equ	0xFF5
  4883                           prodh	equ	0xFF4
  4884                           prodl	equ	0xFF3
  4885                           indf0	equ	0xFEF
  4886                           postinc0	equ	0xFEE
  4887                           postdec0	equ	0xFED
  4888                           preinc0	equ	0xFEC
  4889                           plusw0	equ	0xFEB
  4890                           fsr0h	equ	0xFEA
  4891                           fsr0l	equ	0xFE9
  4892                           wreg	equ	0xFE8
  4893                           indf1	equ	0xFE7
  4894                           postinc1	equ	0xFE6
  4895                           postdec1	equ	0xFE5
  4896                           preinc1	equ	0xFE4
  4897                           plusw1	equ	0xFE3
  4898                           fsr1h	equ	0xFE2
  4899                           fsr1l	equ	0xFE1
  4900                           bsr	equ	0xFE0
  4901                           indf2	equ	0xFDF
  4902                           postinc2	equ	0xFDE
  4903                           postdec2	equ	0xFDD
  4904                           preinc2	equ	0xFDC
  4905                           plusw2	equ	0xFDB
  4906                           fsr2h	equ	0xFDA
  4907                           fsr2l	equ	0xFD9
  4908                           status	equ	0xFD8

Data Sizes:
    Strings     38
    Constant    0
    Data        10
    BSS         49
    Persistent  0
    Stack       0

Auto Spaces:
    Space          Size  Autos    Used
    COMRAM           94     75      90
    BANK0           160      4      48
    BANK1           256      0       0
    BANK2           256      0       0
    BANK3           256      0       0
    BANK4           256      0       0
    BANK5           256      0       0
    BANK6           256      0       0
    BANK7           256      0       0
    BANK8           256      0       0
    BANK9           256      0       0
    BANK10          256      0       0
    BANK11          256      0       0
    BANK12          256      0       0
    BANK13          234      0       0

Pointer List with Targets:

    dtoa@fp	PTR struct _IO_FILE size(1) Largest target is 12
		 -> sprintf@f(COMRAM[12]), 

    f$.$buffer	PTR unsigned char  size(2) Largest target is 0

    f$.$source	PTR const unsigned char  size(2) Largest target is 0

    fputc@fp	PTR struct _IO_FILE size(1) Largest target is 12
		 -> sprintf@f(COMRAM[12]), 

    fputc@fp$.$buffer	PTR unsigned char  size(2) Largest target is 0

    fputc@fp$.$source	PTR const unsigned char  size(2) Largest target is 0

    fputs@fp	PTR struct _IO_FILE size(1) Largest target is 12
		 -> sprintf@f(COMRAM[12]), 

    fputs@s	PTR const unsigned char  size(1) Largest target is 32
		 -> dbuf(BANK0[32]), 

    LCD_sendstring@string	PTR unsigned char  size(1) Largest target is 10
		 -> main@lightString(BANK0[4]), timeString(BANK0[10]), 

    pad@buf	PTR unsigned char  size(1) Largest target is 32
		 -> dbuf(BANK0[32]), 

    pad@fp	PTR struct _IO_FILE size(1) Largest target is 12
		 -> sprintf@f(COMRAM[12]), 

    read_prec_or_width@ap	PTR PTR void [1] size(1) Largest target is 1
		 -> sprintf@ap(COMRAM[1]), 

    read_prec_or_width@fmt	PTR PTR const unsigned char  size(1) Largest target is 1
		 -> vfprintf@cfmt(COMRAM[1]), 

    S2038$buffer	PTR unsigned char  size(2) Largest target is 0

    S2038$source	PTR const unsigned char  size(2) Largest target is 0

    sprintf@ap	PTR void [1] size(1) Largest target is 2
		 -> ?_sprintf(COMRAM[2]), 

    sprintf@fmt	PTR const unsigned char  size(1) Largest target is 25
		 -> STR_1(CODE[8]), STR_2(CODE[25]), STR_3(CODE[5]), 

    sprintf@s	PTR unsigned char  size(1) Largest target is 10
		 -> main@lightString(BANK0[4]), timeString(BANK0[10]), 

    vfpfcnvrt@ap	PTR PTR void  size(1) Largest target is 1
		 -> sprintf@ap(COMRAM[1]), 

    vfpfcnvrt@cp	PTR unsigned char  size(1) Largest target is 25
		 -> STR_1(CODE[8]), STR_2(CODE[25]), STR_3(CODE[5]), 

    vfpfcnvrt@fmt	PTR PTR unsigned char  size(1) Largest target is 1
		 -> vfprintf@cfmt(COMRAM[1]), 

    vfpfcnvrt@fp	PTR struct _IO_FILE size(1) Largest target is 12
		 -> sprintf@f(COMRAM[12]), 

    vfprintf@ap	PTR PTR void  size(1) Largest target is 1
		 -> sprintf@ap(COMRAM[1]), 

    vfprintf@cfmt	PTR unsigned char  size(1) Largest target is 25
		 -> STR_1(CODE[8]), STR_2(CODE[25]), STR_3(CODE[5]), 

    vfprintf@fmt	PTR const unsigned char  size(1) Largest target is 25
		 -> STR_1(CODE[8]), STR_2(CODE[25]), STR_3(CODE[5]), 

    vfprintf@fp	PTR struct _IO_FILE size(1) Largest target is 12
		 -> sprintf@f(COMRAM[12]), 


Critical Paths under _main in COMRAM

    _main->_sprintf
    _disp_time->_sprintf
    _sprintf->_vfprintf
    _vfprintf->_vfpfcnvrt
    _vfpfcnvrt->_dtoa
    _read_prec_or_width->___wmul
    _dtoa->_pad
    _pad->_fputs
    _fputs->_fputc
    _abs->___awmod
    _month_days->___lwmod
    _LEDarray_control->___lwmod
    _LCD_setline->_LCD_sendbyte
    _LCD_sendstring->_LCD_sendbyte
    _LCD_Init->_LCD_sendbyte
    _LCD_sendbyte->_LCD_sendnibble
    _ADC_getval->___lwdiv
    ___wmul->_get16bitTMR0val
    ___lwdiv->___wmul

Critical Paths under _LowISR in COMRAM

    None.

Critical Paths under _HighISR in COMRAM

    None.

Critical Paths under _main in BANK0

    None.

Critical Paths under _LowISR in BANK0

    None.

Critical Paths under _HighISR in BANK0

    None.

Critical Paths under _main in BANK1

    None.

Critical Paths under _LowISR in BANK1

    None.

Critical Paths under _HighISR in BANK1

    None.

Critical Paths under _main in BANK2

    None.

Critical Paths under _LowISR in BANK2

    None.

Critical Paths under _HighISR in BANK2

    None.

Critical Paths under _main in BANK3

    None.

Critical Paths under _LowISR in BANK3

    None.

Critical Paths under _HighISR in BANK3

    None.

Critical Paths under _main in BANK4

    None.

Critical Paths under _LowISR in BANK4

    None.

Critical Paths under _HighISR in BANK4

    None.

Critical Paths under _main in BANK5

    None.

Critical Paths under _LowISR in BANK5

    None.

Critical Paths under _HighISR in BANK5

    None.

Critical Paths under _main in BANK6

    None.

Critical Paths under _LowISR in BANK6

    None.

Critical Paths under _HighISR in BANK6

    None.

Critical Paths under _main in BANK7

    None.

Critical Paths under _LowISR in BANK7

    None.

Critical Paths under _HighISR in BANK7

    None.

Critical Paths under _main in BANK8

    None.

Critical Paths under _LowISR in BANK8

    None.

Critical Paths under _HighISR in BANK8

    None.

Critical Paths under _main in BANK9

    None.

Critical Paths under _LowISR in BANK9

    None.

Critical Paths under _HighISR in BANK9

    None.

Critical Paths under _main in BANK10

    None.

Critical Paths under _LowISR in BANK10

    None.

Critical Paths under _HighISR in BANK10

    None.

Critical Paths under _main in BANK11

    None.

Critical Paths under _LowISR in BANK11

    None.

Critical Paths under _HighISR in BANK11

    None.

Critical Paths under _main in BANK12

    None.

Critical Paths under _LowISR in BANK12

    None.

Critical Paths under _HighISR in BANK12

    None.

Critical Paths under _main in BANK13

    None.

Critical Paths under _LowISR in BANK13

    None.

Critical Paths under _HighISR in BANK13

    None.

Call Graph Tables:

 ---------------------------------------------------------------------------------
 (Depth) Function   	        Calls       Base Space   Used Autos Params    Refs
 ---------------------------------------------------------------------------------
 (0) _main                                                 5     5      0   34624
                                             74 COMRAM     1     1      0
                                              0 BANK0      4     4      0
                         _ADC_getval
                           _ADC_init
                         _Comp1_init
                    _Interrupts_init
                           _LCD_Init
                     _LCD_sendstring
                        _LCD_setline
                      _LEDarray_init
                        _Timer0_init
                          _disp_time
                            _sprintf
 ---------------------------------------------------------------------------------
 (1) _disp_time                                            0     0      0   19134
                         _DST_adjust
                     _LCD_sendstring
                        _LCD_setline
                   _LEDarray_control
                  _LEDarray_disp_bin
                            ___lwdiv
                             ___wmul
                    _get16bitTMR0val
                         _month_days
                            _sprintf
 ---------------------------------------------------------------------------------
 (1) _sprintf                                             27    15     12    9579
                                             49 COMRAM    25    13     12
                         _ADC_getval (ARG)
                           _vfprintf
 ---------------------------------------------------------------------------------
 (2) _vfprintf                                             4     1      3    8727
                                             45 COMRAM     4     1      3
                          _vfpfcnvrt
 ---------------------------------------------------------------------------------
 (3) _vfpfcnvrt                                           12     9      3    8239
                                             34 COMRAM    11     8      3
                               _dtoa
                              _fputc
                 _read_prec_or_width
 ---------------------------------------------------------------------------------
 (4) _read_prec_or_width                                   5     3      2    1572
                                             13 COMRAM     5     3      2
                             ___wmul
 ---------------------------------------------------------------------------------
 (4) _dtoa                                                11     8      3    4939
                                             23 COMRAM    11     8      3
                            ___awdiv
                            ___awmod
                                _abs
                                _pad
 ---------------------------------------------------------------------------------
 (5) _pad                                                  7     3      4    2741
                                             16 COMRAM     7     3      4
                              _fputc
                              _fputs
 ---------------------------------------------------------------------------------
 (6) _fputs                                                5     3      2    1357
                                             11 COMRAM     5     3      2
                              _fputc
 ---------------------------------------------------------------------------------
 (4) _fputc                                                8     5      3     857
                                              3 COMRAM     8     5      3
                              _putch
 ---------------------------------------------------------------------------------
 (5) _putch                                                1     1      0       0
 ---------------------------------------------------------------------------------
 (5) _abs                                                  4     2      2     183
                                              9 COMRAM     4     2      2
                            ___awmod (ARG)
 ---------------------------------------------------------------------------------
 (5) ___awmod                                              6     2      4     613
                                              3 COMRAM     6     2      4
 ---------------------------------------------------------------------------------
 (5) ___awdiv                                              8     4      4     625
                                              3 COMRAM     8     4      4
 ---------------------------------------------------------------------------------
 (2) _month_days                                           8     4      4    1820
                                              8 COMRAM     8     4      4
                            ___lwmod
 ---------------------------------------------------------------------------------
 (2) _get16bitTMR0val                                      6     4      2      37
                                              3 COMRAM     4     2      2
 ---------------------------------------------------------------------------------
 (2) _LEDarray_control                                     2     2      0    1994
                                              8 COMRAM     2     2      0
                  _LEDarray_disp_bin
                            ___lwmod
 ---------------------------------------------------------------------------------
 (3) ___lwmod                                              5     1      4    1132
                                              3 COMRAM     5     1      4
 ---------------------------------------------------------------------------------
 (2) _LEDarray_disp_bin                                    2     0      2     819
                                              3 COMRAM     2     0      2
 ---------------------------------------------------------------------------------
 (2) _LCD_setline                                          1     1      0    1089
                                              6 COMRAM     1     1      0
                       _LCD_sendbyte
 ---------------------------------------------------------------------------------
 (2) _LCD_sendstring                                       1     0      1    1362
                                              6 COMRAM     1     0      1
                       _LCD_sendbyte
 ---------------------------------------------------------------------------------
 (2) _DST_adjust                                           4     0      4     341
                                              3 COMRAM     4     0      4
 ---------------------------------------------------------------------------------
 (1) _Timer0_init                                          0     0      0       0
 ---------------------------------------------------------------------------------
 (1) _LEDarray_init                                        0     0      0       0
 ---------------------------------------------------------------------------------
 (1) _LCD_Init                                             2     2      0    1151
                                              6 COMRAM     2     2      0
                       _LCD_sendbyte
                     _LCD_sendnibble
 ---------------------------------------------------------------------------------
 (3) _LCD_sendbyte                                         2     1      1    1027
                                              4 COMRAM     2     1      1
                     _LCD_sendnibble
 ---------------------------------------------------------------------------------
 (4) _LCD_sendnibble                                       1     1      0     124
                                              3 COMRAM     1     1      0
                          _LCD_E_TOG
 ---------------------------------------------------------------------------------
 (5) _LCD_E_TOG                                            0     0      0       0
 ---------------------------------------------------------------------------------
 (1) _Interrupts_init                                      0     0      0       0
 ---------------------------------------------------------------------------------
 (1) _Comp1_init                                           0     0      0       0
                           _DAC_init
 ---------------------------------------------------------------------------------
 (2) _DAC_init                                             0     0      0       0
 ---------------------------------------------------------------------------------
 (1) _ADC_init                                             0     0      0       0
 ---------------------------------------------------------------------------------
 (1) _ADC_getval                                           4     2      2    2229
                                             20 COMRAM     4     2      2
                            ___lwdiv
                             ___wmul
 ---------------------------------------------------------------------------------
 (5) ___wmul                                               6     2      4    1132
                                              7 COMRAM     6     2      4
                    _get16bitTMR0val (ARG)
 ---------------------------------------------------------------------------------
 (2) ___lwdiv                                              7     3      4     961
                                             13 COMRAM     7     3      4
                             ___wmul (ARG)
                    _get16bitTMR0val (ARG)
 ---------------------------------------------------------------------------------
 Estimated maximum stack depth 6
 ---------------------------------------------------------------------------------
 (Depth) Function   	        Calls       Base Space   Used Autos Params    Refs
 ---------------------------------------------------------------------------------
 (10) _LowISR                                              3     3      0       0
                                              0 COMRAM     3     3      0
 ---------------------------------------------------------------------------------
 Estimated maximum stack depth 10
 ---------------------------------------------------------------------------------
 (Depth) Function   	        Calls       Base Space   Used Autos Params    Refs
 ---------------------------------------------------------------------------------
 (11) _HighISR                                             0     0      0       0
 ---------------------------------------------------------------------------------
 Estimated maximum stack depth 11
 ---------------------------------------------------------------------------------

 Call Graph Graphs:

 _main (ROOT)
   _ADC_getval
     ___lwdiv
       ___wmul (ARG)
         _get16bitTMR0val (ARG)
       _get16bitTMR0val (ARG)
     ___wmul
   _ADC_init
   _Comp1_init
     _DAC_init
   _Interrupts_init
   _LCD_Init
     _LCD_sendbyte
       _LCD_sendnibble
         _LCD_E_TOG
     _LCD_sendnibble
   _LCD_sendstring
     _LCD_sendbyte
   _LCD_setline
     _LCD_sendbyte
   _LEDarray_init
   _Timer0_init
   _disp_time
     _DST_adjust
     _LCD_sendstring
     _LCD_setline
     _LEDarray_control
       _LEDarray_disp_bin
       ___lwmod
     _LEDarray_disp_bin
     ___lwdiv
     ___wmul
     _get16bitTMR0val
     _month_days
       ___lwmod
     _sprintf
       _ADC_getval (ARG)
       _vfprintf (ARG)
         _vfpfcnvrt
           _dtoa
             ___awdiv
             ___awmod
             _abs
               ___awmod (ARG)
             _pad
               _fputc
                 _putch
               _fputs
                 _fputc
           _fputc
           _read_prec_or_width
             ___wmul
   _sprintf

 _LowISR (ROOT)

 _HighISR (ROOT)

 Address spaces:
Name               Size   Autos  Total    Cost      Usage
BIGRAM             DE9      0       0      52        0.0%
EEDATA             400      0       0       0        0.0%
BITBANK12          100      0       0      28        0.0%
BANK12             100      0       0      29        0.0%
BITBANK11          100      0       0      26        0.0%
BANK11             100      0       0      27        0.0%
BITBANK10          100      0       0      24        0.0%
BANK10             100      0       0      25        0.0%
BITBANK9           100      0       0      22        0.0%
BANK9              100      0       0      23        0.0%
BITBANK8           100      0       0      20        0.0%
BANK8              100      0       0      21        0.0%
BITBANK7           100      0       0      18        0.0%
BANK7              100      0       0      19        0.0%
BITBANK6           100      0       0      16        0.0%
BANK6              100      0       0      17        0.0%
BITBANK5           100      0       0      14        0.0%
BANK5              100      0       0      15        0.0%
BITBANK4           100      0       0      12        0.0%
BANK4              100      0       0      13        0.0%
BITBANK3           100      0       0      10        0.0%
BANK3              100      0       0      11        0.0%
BITBANK2           100      0       0       8        0.0%
BANK2              100      0       0       9        0.0%
BITBANK1           100      0       0       6        0.0%
BANK1              100      0       0       7        0.0%
BITBANK13           EA      0       0      30        0.0%
BANK13              EA      0       0      31        0.0%
BITBANK0            A0      0       0       4        0.0%
BANK0               A0      4      30       5       30.0%
BITBIGSFRlhlhhh     84      0       0      38        0.0%
BITCOMRAM           5E      0       0       0        0.0%
COMRAM              5E     4B      5A       1       95.7%
BITBIGSFRllhhh      5C      0       0      44        0.0%
BITBIGSFRhhhhll     4A      0       0      34        0.0%
BITBIGSFRlllll      30      0       0      50        0.0%
BITBIGSFRhhhhlh     1B      0       0      33        0.0%
BITBIGSFRlhlllh     19      0       0      42        0.0%
BITBIGSFRlhhhhl     14      0       0      35        0.0%
BITBIGSFRhhhhh       D      0       0      32        0.0%
BITBIGSFRlhlhl       9      0       0      40        0.0%
BITBIGSFRlhlhhl      8      0       0      39        0.0%
BITBIGSFRlllh        7      0       0      48        0.0%
BITBIGSFRllhhll      7      0       0      46        0.0%
BITBIGSFRlhllh       7      0       0      41        0.0%
BITBIGSFRlhllll      7      0       0      43        0.0%
BITBIGSFRlhhl        6      0       0      37        0.0%
BITBIGSFRlhhhl       3      0       0      36        0.0%
BITBIGSFRllhhlh      1      0       0      45        0.0%
BITBIGSFRllllh       1      0       0      49        0.0%
BITBIGSFRllhl        1      0       0      47        0.0%
BIGSFR               0      0       0     200        0.0%
BITSFR_3             0      0       0     200        0.0%
SFR_3                0      0       0     200        0.0%
BITSFR_2             0      0       0     200        0.0%
SFR_2                0      0       0     200        0.0%
BITSFR_1             0      0       0     200        0.0%
SFR_1                0      0       0     200        0.0%
BITSFR               0      0       0     200        0.0%
SFR                  0      0       0     200        0.0%
STACK                0      0       0       2        0.0%
NULL                 0      0       0       0        0.0%
ABS                  0      0      8A      51        0.0%
DATA                 0      0      8A       3        0.0%
CODE                 0      0       0       0        0.0%


Microchip Technology PIC18 Macro Assembler V2.45 build 20230818022343 
Symbol Table                                                                                   Sat Nov 04 16:22:03 2023

                        l20 1B04                          l22 1B70                          l15 1F8E  
                        l41 1FEC                          l18 1AF6                          l50 1C3E  
                        l52 1C4C                          l44 1BFC                          l46 1C12  
                        l55 1F08                          l63 1E0C                          l48 1C28  
                        l58 15AA                          l69 1EDC                ___awdiv@sign 0009  
                        bsr 0FE0         ___wmul@multiplicand 000A           ??_Interrupts_init 0004  
                       l102 1E46                         l110 15EE                         l111 1602  
                       l120 165C                         l112 1604                         l200 11BC  
                       l121 1670                         l113 1618                         l105 15C0  
                       l114 161A                         l106 15C2                         l123 1672  
                       l115 162E                         l107 15D6                         l116 1630  
                       l108 15D8                         l221 1AF2                         l117 1644  
                       l109 15EC                         l150 1F2E                         l118 1646  
                       l119 165A                         l216 102E                         l313 1F74  
                       l250 1FDE                         l147 1FBA                         l227 19E0  
                       l316 1FCC                         l319 1F54                         l550 1736  
                       l810 1BDC                         l563 17E6                         l820 1D0C  
                       l817 1BE4                         l827 1D14                         l997 1E7A  
                       _abs 1E7C                         _day 0052                         _pad 19E2  
              ___awmod@sign 0009                         wreg 0FE8                        l1020 1A50  
                      l1022 1A6A                        l1017 1A12                        l1025 13A0  
                      l1042 188C                        ?_abs 000A                        l1061 1340  
                      l1038 14A8                        l1046 1894                        l1071 1E96  
                      l3001 1548                        l1074 1EAE                        l3011 1584  
                      l3003 1552                        l1067 1D56                        l3021 1F0C  
                      l3101 1FCE                        l3013 1592                        l3005 1560  
                      l1086 193E                        l1094 1DD2                        l3031 1F26  
                      l3023 1F1E                        l3015 159C                        l3007 156A  
                      l3103 1F56                        l3033 1F2A                        l3025 1F20  
                      l3009 157A                        l3017 1E0E                        l3105 1F5E  
                      l1097 1FF8                        l3041 0E5A                        l3027 1F22  
                      l3019 1F0A                        l3107 1F68                        l3051 0E7C  
                      l3043 0E66                        l3035 0E28                        l3029 1F24  
                      l3109 1F72                        l2501 1D98                        l3061 0EB8  
                      l3053 0E92                        l3037 0E36                        l3045 0E68  
                      l2511 1F4C                        l2503 1DA4                        l3071 0F0C  
                      l3063 0EC0                        l3055 0E9A                        l3047 0E76  
                      l3039 0E4C                        l3151 1C5E                        l3143 1C4E  
                      l2521 168E                        l2505 1DB2                        l2601 1A0A  
                      l3081 0F42                        l3073 0F14                        l3065 0EEA  
                      l3057 0E9E                        l3049 0E7A                        l3161 1C6C  
                      l3153 1C62                        l3145 1C52                        l2531 16B4  
                      l2523 1692                        l2515 1674                        l2611 1E7C  
                      l2507 1DB6                        l2603 1A1E                        l3091 0F9E  
                      l3083 0F4C                        l3075 0F18                        l3067 0EF2  
                      l3059 0EA2                        l3171 1C90                        l3163 1C6E  
                      l3155 1C66                        l3147 1C56                        l2509 1F30  
                      l2701 1C40                        l2541 16EA                        l2533 16C6  
                      l2525 16A0                        l2517 1678                        l2613 1E8A  
                      l2605 1A2E                        l2621 1342                        l3093 0FBA  
                      l3085 0F60                        l3077 0F2A                        l3069 0EF6  
                      l3173 1C98                        l3165 1C70                        l3157 1C68  
                      l3149 1C5A                        l2615 1FE0                        l2703 1C44  
                      l2543 1700                        l2535 16CE                        l2551 1716  
                      l2527 16A8                        l2519 1686                        l2607 1A32  
                      l2631 1378                        l2623 1346                        l2711 11F8  
                      l3095 0FEC                        l3087 0F74                        l3079 0F2E  
                      l3175 1C9C                        l3167 1C72                        l3159 1C6A  
                      l2617 1FE2                        l2801 1CF8                        l2553 1726  
                      l2545 1708                        l2537 16D6                        l2529 16AC  
                      l2561 173C                        l2609 1A5E                        l2641 13B2  
                      l2633 1388                        l2625 135A                        l2713 11FE  
                      l2705 11BE                        l3097 0FF2                        l3089 0F88  
                      l3169 1C78                        l2619 1FEA                        l2803 1D00  
                      l2555 172E                        l2547 170A                        l2539 16E4  
                      l2571 176C                        l2563 174A                        l2491 18B6  
                      l2643 13B8                        l2651 140C                        l2635 1394  
                      l2627 1362                        l2731 1284                        l2723 121C  
                      l2715 1206                        l2707 11E4                        l2811 1D2E  
                      l3099 1026                        l2821 1DF0                        l2805 1D06  
                      l2901 199C                        l2549 1710                        l2581 17B2  
                      l2573 177E                        l2565 1752                        l2493 18C0  
                      l2653 1426                        l2661 1470                        l2645 13E6  
                      l2637 139C                        l2629 1372                        l2741 12F0  
                      l2733 128E                        l3197 1244                        l2717 1208  
                      l2725 1252                        l2709 11EC                        l2813 1D4E  
                      l2911 1A80                        l2831 1EC6                        l2823 1E02  
                      l2903 19A4                        l2591 17DE                        l2583 17BA  
                      l2575 1786                        l2567 1756                        l2559 1738  
                      l2495 18DC                        l2487 1896                        l2663 1480  
                      l2655 1438                        l2647 13EA                        l2639 13A8  
                      l2671 17E8                        l2743 12FA                        l2735 1298  
                      l2727 1262                        l2719 1214                        l2751 131A  
                      l2807 1D16                        l2761 1EE0                        l2921 1ABE  
                      l2913 1A92                        l2825 1EB0                        l2817 1DD6  
                      l2905 19CC                        l2585 17C0                        l2577 178E  
                      l2569 1764                        l2497 190E                        l2489 18A6  
                      l2665 1486                        l2657 1448                        l2649 13F0  
                      l2681 185A                        l2673 17F0                        l2737 12B8  
                      l2729 1276                        l2809 1D1E                        l2841 1E70  
                      l2833 1E48                        l2691 1C0C                        l2763 1EEA  
                      l2923 1AD2                        l2915 1AA0                        l2827 1EB4  
                      l2819 1DE6                        l2771 15AC                        l2907 19D4  
                      l2851 1030                        l2579 179C                        l2587 17C6  
                      l2595 19E2                        l2667 1492                        l2659 1462  
                      l2675 1816                        l2683 1862                        l2747 130E  
                      l2739 12D8                        l2835 1E50                        l2941 1B94  
                      l2845 1FA8                        l2693 1C14                        l2685 1BE8  
                      l2765 1EF2                        l2925 1AE0                        l2917 1AA8  
                      l2909 1A6C                        l2829 1EC4                        l2781 1612  
                      l2773 15BA                        l2933 1FBC                        l2861 1092  
                      l2853 1042                        l2589 17D6                        l2597 19F0  
                      l2677 181E                        l2837 1E58                        ?_pad 0011  
                      l2951 1BCE                        l2943 1B9C                        l2935 1B72  
                      l2847 1FAE                        l2695 1C22                        l2687 1BF6  
                      l2767 1EFA                        l2927 1AE8                        l2919 1AAA  
                      l2783 1628                        l2775 15D0                        l2791 1CB2  
                      l2871 10EE                        l2863 10A6                        l2855 1056  
                      l2599 19FC                        l2679 183A                        l2839 1E60  
                      l2953 1BD0                        l2945 1BAA                        l2937 1B7A  
                      l2961 1F88                        l2849 1FB8                        l2697 1C2A  
                      l2689 1BFE                        l2769 1F00                        l2929 1AEA  
                      l2785 163E                        l2777 15E6                        l2793 1CC4  
                      l2881 1154                        l2873 1102                        l2857 106A  
                      l2865 10BA                        l2955 1BD6                        l2947 1BB0  
                      l2939 1B8C                        l2971 1B1A                        l2963 1F8A  
                      l2699 1C38                        l2787 1654                        l2779 15FC  
                      l2795 1CCC                        l2883 117A                        l2875 1116  
                      l2867 10C6                        l2859 107E                        l2949 1BC6  
                      l2973 1B4C                        l2965 1F8C                        l2957 1F76  
                      l2981 14AA                        l2789 166A                        l2797 1CD4  
                      l2893 1940                        l2885 11A0                        l2877 1122  
                      l2869 10DA                        l2975 1B60                        l2967 1AF4  
                      l2959 1F80                        l2991 1504                        l2983 14C2  
                      l2799 1CE2                        l2895 1948                        l2887 11AC  
                      l2879 1136                        l2977 1B68                        l2969 1B0A  
                      l2993 151A                        l2985 14D8                        l2897 196E  
                      l2889 11B4                        l2995 1520                        l2987 14DE  
                      l2899 1976                        l2997 1530                        l2989 14F4  
                      l2999 153A                        STR_1 0E1A                        STR_2 0E01  
                      STR_3 0E22                        u3000 1BAA                        u2200 1686  
                      u3001 1BA6                        u2201 1682                        u3010 1BC6  
                      u2210 16A0                        u3011 1BC2                        u2211 169C  
                      u3020 1B04                        u2220 16C6                        u2300 17B2  
                      u3100 0F0C                        u3021 1B00                        u2221 16C2  
                      u2301 17AE                        u3101 0F08                        u3030 1B60  
                      u2230 16E4                        u2310 17D6                        u2150 18A6  
                      u3110 0F2A                        u3031 1B5C                        u2231 16E0  
                      u2311 17D2                        u2151 18A2                        u3111 0F26  
                      u2240 1700                        u2160 18B6                        u2320 19F0  
                      u2400 1388                        u3120 0F42                        u3040 0E36  
                      u2241 16FC                        u2161 18B2                        u2321 19EC  
                      u2401 1384                        u3121 0F3E                        u3041 0E32  
                      u2250 1726                        u2170 18DC                        u2330 1A0A  
                      u2410 1426                        u3130 0F60                        u3050 0E4C  
                      u2251 1722                        u2171 18D8                        u2331 1A06  
                      u2411 1422                        u3131 0F5C                        u3051 0E48  
                      u2500 1C0C                        u2260 174A                        u2180 190E  
                      u2340 1A50                        u2420 1438                        u3140 0F74  
                      u3060 0E76                        u2501 1C08                        u2261 1746  
                      u2181 190A                        u2341 1A4C                        u2421 1434  
                      u3141 0F70                        u3061 0E72                        u2510 1C22  
                      u2270 1764                        u2190 1DD2                        u2350 1A5E  
                      u2430 1448                        u3150 0F88                        u3070 0E92  
                      u2511 1C1E                        u2271 1760                        u2191 1DCE  
                      u2351 1A5A                        u2431 1444                        u3151 0F84  
                      u3071 0E8E                        u2520 1C38                        u2600 15D0  
                      u2280 177E                        u2360 1E8A                        u2440 1462  
                      u3160 0F9E                        u3080 0EB8                        u2521 1C34  
                      u2601 15CC                        u2281 177A                        u2361 1E86  
                      u2441 145E                        u3161 0F9A                        u3081 0EB4  
                      u3217 1CA2                        u2610 15E6                        u2290 179C  
                      u2450 1470                        u2370 1356                        u2530 11E4  
                      u3090 0EEA                        u3307 1586                        u3227 14CC  
                      u2611 15E2                        u2291 1798                        u2451 146C  
                      u2371 1350                        u2531 11E0                        u3091 0EE6  
                      u2620 15FC                        u2700 1CF8                        u2460 1480  
                      u2380 1358                        u2540 1262                        u3317 159E  
                      u3237 14E4                        u2621 15F8                        u2701 1CF4  
                      u2461 147C                        u2541 125E                        u2630 1612  
                      u2390 1372                        u2470 1816                        u2550 1284  
                      u2710 1D4E                        u3327 1EF4                        u3247 14FA  
                      u2631 160E                        u2391 136E                        u2471 1812  
                      u2551 1280                        u2711 1D4A                        u2720 1DE6  
                      u2640 1628                        u2800 10A6                        u2480 188C  
                      u2560 12B8                        u3337 1F02                        u3257 1510  
                      u2721 1DE2                        u2641 1624                        u2801 10A2  
                      u2481 1888                        u2561 12B4                        u2490 1BF6  
                      u2730 1E02                        u2650 163E                        u2810 10BA  
                      u2570 12D8                        u3347 1C46                        u2491 1BF2  
                      u3267 1526                        u2731 1DFE                        u2651 163A  
                      u2811 10B6                        u2571 12D4                        u2740 1EDC  
                      u2660 1654                        u2900 196E                        u2820 10DA  
                      u3357 1FE4                        u3277 153C                        u2741 1ED8  
                      u2661 1650                        u2901 196A                        u2821 10D6  
                      u2670 166A                        u2590 15BA                        u2910 199C  
                      u2830 10EE                        u2750 1042                        u3287 1554  
                      u2671 1666                        u2591 15B6                        u2911 1998  
                      u2831 10EA                        u2751 103E                        u2680 1CC4  
                      u2920 19CC                        u2840 1102                        u2760 1056  
                      u2585 1EE8                        u3297 1570                        u2681 1CC0  
                      u2921 19C8                        u2841 10FE                        u2761 1052  
                      u2586 1EEA                        u2930 1A80                        u2690 1CE2  
                      u2850 1116                        u2770 106A                        u2931 1A7C  
                      u2691 1CDE                        u2851 1112                        u2771 1066  
                      u2940 1A92                        u2860 1136                        u2780 107E  
                      u2941 1A8E                        u2861 1132                        u2781 107A  
                      u2950 1AA0                        u2870 1154                        u2790 1092  
                      u2951 1A9C                        u2871 1150                        u2791 108E  
                      u2960 1ABE                        u2880 117A                        u2961 1ABA  
                      u2881 1176                        u2970 1AD2                        u2890 11A0  
                      u2971 1ACE                        u2891 119C                        u2980 1AE0  
                      u2981 1ADC                        u2990 1B8C                        u2991 1B88  
                      abs@a 000A                        _dbuf 0062                        _main 1C4E  
               ?_DST_adjust 0004                        _dtoa 1342                        _hour 0054  
                      _prec 0060                        _year 004C                        pad@i 0016  
                      pad@p 0013                        fsr1h 0FE2                        fsr2h 0FDA  
                      indf2 0FDF                        fsr1l 0FE1                        fsr2l 0FD9  
                      btemp 005B                ?_LCD_setline 0001                        prodh 0FF4  
                      prodl 0FF3                        start 0052            __end_of_ADC_init 1F90  
          __end_of_DAC_init 1FBC             __end_of_HighISR 1FA8                ___param_bank 0000  
                _Comp1_init 1F0A                       ??_abs 000C                       ??_pad 0015  
          __end_of_LCD_Init 15AC                       ?_main 0001                       ?_dtoa 0018  
                     _ADPCH 0F5F             __end_of___awdiv 1738             __end_of___awmod 17E8  
           ___awdiv@divisor 0006             __end_of___lwdiv 1BE6                       i1l262 0042  
           __end_of___lwmod 1D16                       i2l256 1FA4             ___awdiv@counter 0008  
              vfpfcnvrt@fmt 0024                       _TMR0H 0FD4                       _TMR0L 0FD3  
          _LEDarray_control 1940                       _flags 005A         read_prec_or_width@c 0010  
       read_prec_or_width@n 0011                       _fputc 1896                       _fputs 1D98  
                     _month 004E                       pad@fp 0011                       _width 0056  
                     _putch 1FF8                       dtoa@d 0019                       dtoa@i 0021  
                     dtoa@p 001D                       dtoa@s 0020                       dtoa@w 001E  
             ?_LCD_sendbyte 0005                       tablat 0FF5                       ttemp5 005C  
                     ttemp6 005F                       ttemp7 0063                       status 0FD8  
                     wtemp8 005C             __end_of_sprintf 1E7C             __initialization 1D58  
              __end_of_main 1CB2                __end_of_dtoa 14AA           __end_of_LCD_E_TOG 1FEE  
           _get16bitTMR0val 1FBC                      ??_main 004B                      ??_dtoa 001B  
             __activetblptr 0003  __end_of_read_prec_or_width 1896         get16bitTMR0val@time 0006  
                    ?_fputc 0004                      ?_fputs 000C                      _ADRESH 0F64  
            ??_LCD_sendbyte 0006            ___awdiv@dividend 0004                      ?_putch 0001  
                    i1l1761 0036                      i1l1763 003E                      i1l1765 0040  
                    i1l1759 0026                      i2l1755 1F90                      i2l1757 1FA0  
             vfpfcnvrt@done 002C                   ??_HighISR 0001           _LEDarray_disp_bin 15AC  
                    _LowISR 0018          ?_LEDarray_disp_bin 0004                ??_ADC_getval 0017  
             ??_Timer0_init 0004                vfprintf@cfmt 0031                      ___wmul 1F30  
               ?_Comp1_init 0001                   ??___awdiv 0008                   ??___awmod 0008  
                 ??___lwdiv 0012                   ??___lwmod 0008        read_prec_or_width@ap 000F  
       ??_LEDarray_disp_bin 0006                      clear_0 1D7E            ___awdiv@quotient 000A  
                    _minute 0058             ___awmod@divisor 0006                      isa$std 0001  
           ___awmod@counter 0008                      pad@buf 0012                      dtoa@fp 0018  
                    fputc@c 0004                      fputs@c 000E                      fputs@i 000F  
              __pdataCOMRAM 004C                      fputs@s 000C                __mediumconst 0000  
                    tblptrh 0FF7                      tblptrl 0FF6                      tblptru 0FF8  
                 ?_ADC_init 0001                      putch@c 0001                   ?_DAC_init 0001  
          __end_of_vfprintf 1D58                   ??_sprintf 003E          __end_of_ADC_getval 1B72  
 __end_of_LEDarray_disp_bin 1674                  __accesstop 0060     __end_of__initialization 1D8E  
                 ?_LCD_Init 0001               ___rparam_used 0001               _LEDarray_init 1E0E  
           _Interrupts_init 1FCE              __pcstackCOMRAM 0001     __end_of_get16bitTMR0val 1FCE  
             __end_of_fputc 1940               __end_of_fputs 1DD4               __end_of_putch 1FFA  
       __end_of_Timer0_init 1F76                  ??_ADC_init 0004                  ??_DAC_init 0004  
                   ??_fputc 0007                     ??_fputs 000E                     ??_putch 0004  
                __pbssBANK0 0060                  ??_LCD_Init 0007                ??_DST_adjust 0008  
            _LCD_sendnibble 1BE6              ?_LEDarray_init 0001              _LCD_sendstring 1EB0  
                   ?_LowISR 0001    __end_of_LEDarray_control 19E2                     ?___wmul 0008  
      __end_of_LCD_sendbyte 1F0A              month_days@year 000B          __end_of_DST_adjust 1AF4  
    __end_of_LCD_sendnibble 1C4E     __end_of_Interrupts_init 1FE0                     _HighISR 0008  
    __end_of_LCD_sendstring 1EDE                   _ADREFbits 0F58                     __Hparam 0000  
                   __Lparam 0000                 _Timer0_init 1F56         month_days@monthDays 000F  
          ?_get16bitTMR0val 0004           __end_of_disp_time 1030                     ___awdiv 1674  
                   ___awmod 1738                     ___lwdiv 1B72                     ___lwmod 1CB2  
                 ?_vfprintf 002E                __psmallconst 0E00                     __pcinit 1D58  
                   __ramtop 0E00                     __ptext0 1C4E                     __ptext1 0E28  
                   __ptext2 1E48                     __ptext3 1D16                     __ptext4 11BE  
                   __ptext5 17E8                     __ptext6 1342                     __ptext7 19E2  
                   __ptext8 1D98                     __ptext9 1896       read_prec_or_width@fmt 000E  
          ___awmod@dividend 0004                   _LCD_E_TOG 1FE0             LCD_setline@line 0007  
                   _weekday 0050                     _sprintf 1E48              __pintcode_body 1F90  
      end_of_initialization 1D8E             ?_LCD_sendnibble 0001            ADC_getval@tmpval 0017  
                   fputc@fp 0006             ??_LEDarray_init 0004                     int_func 1F90  
                   fputs@fp 000D             ?_LCD_sendstring 0007          _read_prec_or_width 17E8  
                _month_days 1030           __end_of_vfpfcnvrt 1342                     postdec1 0FE5  
                   postdec2 0FDD         ?_read_prec_or_width 000E                ??_Comp1_init 0004  
                   postinc0 0FEE                     postinc1 0FE6                     postinc2 0FDE  
          vfpfcnvrt@convarg 0028                  _timeString 0082                  ??_vfprintf 0031  
                ?_LCD_E_TOG 0001                   _TRISAbits 0F81                   _TRISBbits 0F82  
                 _TRISCbits 0F83                   _TRISDbits 0F84                   _TRISEbits 0F85  
                 _TRISFbits 0F86                   _TRISGbits 0F87                   _TRISHbits 0F88  
      ??_read_prec_or_width 0010          __end_of_Comp1_init 1F30                 _CM1CON0bits 0ED0  
               _CM1CON1bits 0ED1            ?_Interrupts_init 0001              __end_of_LowISR 0052  
               vfpfcnvrt@ap 0025                 vfpfcnvrt@cp 002D                 vfpfcnvrt@fp 0023  
            __end_of___wmul 1F56        LCD_sendnibble@number 0004               __pidataCOMRAM 1FEE  
       start_initialization 1D58                 __end_of_abs 1EB0                 __end_of_pad 1A6C  
              _LCD_sendbyte 1EDE               ??_LCD_setline 0007                 ?_month_days 0009  
                  ??_LowISR 0001                 vfprintf@fmt 002F           ?_LEDarray_control 0001  
      LCD_sendstring@string 0007                    ??___wmul 000C          ??_LEDarray_control 0009  
               __pbssCOMRAM 0056                 ??_LCD_E_TOG 0004               __pcstackBANK0 008C  
                  ?_HighISR 0001            ___lwdiv@dividend 000E                   _dtoa$2117 001B  
              ?_Timer0_init 0001                   __pintcode 0008                    ?___awdiv 0004  
                  ?___awmod 0004         __end_of_LCD_setline 1E0E                    ?___lwdiv 000E  
                  ?___lwmod 0004                 __pintcodelo 0018                   _disp_time 0E28  
               __smallconst 0E00        LEDarray_control@temp 0009            ??_LCD_sendnibble 0004  
                  _ADC_init 1F76                    _DAC_init 1FA8            ___lwdiv@quotient 0013  
          ??_LCD_sendstring 0008                    ?_sprintf 0032            LCD_sendbyte@Byte 0006  
           month_days@month 0009                    _LCD_Init 14AA            LCD_sendbyte@type 0005  
            ___wmul@product 000C                    _LATAbits 0F79                    _LATBbits 0F7A  
                  _LATCbits 0F7B                    _LATDbits 0F7C                    _LATEbits 0F7D  
                  _LATFbits 0F7E                    _LATGbits 0F7F                    _LATHbits 0F80  
                  _IPR0bits 0E1F                    _PIE0bits 0E29                    _IPR2bits 0E21  
                  _PIE2bits 0E2B                    i1u108_20 0036                    i1u108_21 0032  
                  i2u107_40 1FA0                    i2u107_41 1F9C                    _PIR0bits 0E33  
                  _PIR2bits 0E35                   _vfpfcnvrt 11BE             main@lightString 008C  
                ?_disp_time 0001                  _ADCON0bits 0F60           ___wmul@multiplier 0008  
                _CM1NCHbits 0ED2                  _CM1PCHbits 0ED3                   copy_data0 1D6C  
     __end_of_LEDarray_init 1E48                 _LCD_setline 1DD4                    __Hrparam 0000  
                _ADC_getval 1AF4                  vfprintf@ap 0030                    __Lrparam 0000  
                vfprintf@fp 002E                  ?_vfpfcnvrt 0023                  _ANSELAbits 0E92  
                _ANSELBbits 0E9A                  _ANSELFbits 0EB4                  _ANSELGbits 0EBC  
                sprintf@fmt 0033                  _T0CON0bits 0FD5                  _T0CON1bits 0FD6  
           ___lwdiv@divisor 0010             ___lwdiv@counter 0012                    __ptext10 1FF8  
                  __ptext11 1E7C                    __ptext20 1EB0                    __ptext12 1738  
                  __ptext21 1A6C                    __ptext13 1674                    __ptext30 1FA8  
                  __ptext22 1F56                    __ptext14 1030                    __ptext31 1F76  
                  __ptext23 1E0E                    __ptext15 1FBC                    __ptext32 1AF4  
                  __ptext24 14AA                    __ptext16 1940                    __ptext33 1F30  
                  __ptext25 1EDE                    __ptext17 1CB2                    __ptext34 1B72  
                  __ptext26 1BE6                    __ptext18 15AC                    __ptext27 1FE0  
                  __ptext19 1DD4                    __ptext28 1FCE                    __ptext29 1F0A  
   LEDarray_disp_bin@number 0004                ??_month_days 000D                    isa$xinst 0000  
                  int$flags 005B                    _vfprintf 1D16                 ??_disp_time 004B  
                _INTCONbits 0FF2          __end_of_month_days 11BE           ??_get16bitTMR0val 0006  
                  intlevel1 0000                    intlevel2 0000                   sprintf@ap 003E  
              _DAC1CON0bits 0EC6                _DAC1CON1bits 0EC7            ___lwmod@dividend 0004  
                _DST_adjust 1A6C                 ?_ADC_getval 0015                 ??_vfpfcnvrt 0026  
           DST_adjust@month 0004                    sprintf@f 003F                    sprintf@s 0032  
           ___lwmod@divisor 0006             ___lwmod@counter 0008              DST_adjust@hour 0006  
