

Microchip MPLAB XC8 Assembler V2.45 build 20230818022343 
                                                                                               Mon Nov 06 13:32:39 2023

Microchip MPLAB XC8 C Compiler v2.45 (Free license) build 20230818022343 Og1 
     1                           	processor	18F67K40
     2                           	fnconf	rparam,??,?,0
     3                           	pagewidth 120
     4                           	opt	flic
     5                           	psect	idataCOMRAM,global,class=CODE,delta=1,noexec
     6                           	psect	idataBANK0,global,class=CODE,delta=1,noexec
     7                           	psect	smallconst,global,reloc=2,class=SMALLCONST,delta=1,noexec
     8                           	psect	cinit,global,reloc=2,class=CODE,delta=1
     9                           	psect	bssCOMRAM,global,class=COMRAM,space=1,delta=1,lowdata,noexec
    10                           	psect	dataCOMRAM,global,class=COMRAM,space=1,delta=1,lowdata,noexec
    11                           	psect	bssBANK0,global,class=BANK0,space=1,delta=1,lowdata,noexec
    12                           	psect	dataBANK0,global,class=BANK0,space=1,delta=1,lowdata,noexec
    13                           	psect	cstackBANK0,global,class=BANK0,space=1,delta=1,lowdata,noexec
    14                           	psect	cstackCOMRAM,global,class=COMRAM,space=1,delta=1,lowdata,noexec
    15                           	psect	text0,global,reloc=2,class=CODE,delta=1
    16                           	psect	text1,global,reloc=2,class=CODE,delta=1
    17                           	psect	text2,global,reloc=2,class=CODE,delta=1,group=3
    18                           	psect	text3,global,reloc=2,class=CODE,delta=1,group=1
    19                           	psect	text4,global,reloc=2,class=CODE,delta=1,group=1
    20                           	psect	text5,global,reloc=2,class=CODE,delta=1,group=1
    21                           	psect	text6,global,reloc=2,class=CODE,delta=1,group=1
    22                           	psect	text7,global,reloc=2,class=CODE,delta=1,group=1
    23                           	psect	text8,global,reloc=2,class=CODE,delta=1,group=3
    24                           	psect	text9,global,reloc=2,class=CODE,delta=1,group=3
    25                           	psect	text10,global,reloc=2,class=CODE,delta=1,group=3
    26                           	psect	text11,global,reloc=2,class=CODE,delta=1,group=3
    27                           	psect	text12,global,reloc=2,class=CODE,delta=1,group=2
    28                           	psect	text13,global,reloc=2,class=CODE,delta=1,group=2
    29                           	psect	text14,global,reloc=2,class=CODE,delta=1
    30                           	psect	text15,global,reloc=2,class=CODE,delta=1
    31                           	psect	text16,global,reloc=2,class=CODE,delta=1
    32                           	psect	text17,global,reloc=2,class=CODE,delta=1,group=2
    33                           	psect	text18,global,reloc=2,class=CODE,delta=1
    34                           	psect	text19,global,reloc=2,class=CODE,delta=1
    35                           	psect	text20,global,reloc=2,class=CODE,delta=1
    36                           	psect	text21,global,reloc=2,class=CODE,delta=1
    37                           	psect	text22,global,reloc=2,class=CODE,delta=1
    38                           	psect	text23,global,reloc=2,class=CODE,delta=1
    39                           	psect	text24,global,reloc=2,class=CODE,delta=1
    40                           	psect	text25,global,reloc=2,class=CODE,delta=1
    41                           	psect	text26,global,reloc=2,class=CODE,delta=1
    42                           	psect	text27,global,reloc=2,class=CODE,delta=1
    43                           	psect	text28,global,reloc=2,class=CODE,delta=1
    44                           	psect	text29,global,reloc=2,class=CODE,delta=1
    45                           	psect	text30,global,reloc=2,class=CODE,delta=1
    46                           	psect	text31,global,reloc=2,class=CODE,delta=1
    47                           	psect	text32,global,reloc=2,class=CODE,delta=1
    48                           	psect	text33,global,reloc=2,class=CODE,delta=1,group=2
    49                           	psect	text34,global,reloc=2,class=CODE,delta=1,group=2
    50                           	psect	intcodelo,global,reloc=2,class=CODE,delta=1
    51                           	psect	intcode,global,reloc=2,class=CODE,delta=1
    52                           	psect	intcode_body,global,reloc=2,class=CODE,delta=1
    53                           	psect	intsave_regs,global,class=BIGRAM,space=1,delta=1,noexec
    54                           	psect	rparam,global,class=COMRAM,space=1,delta=1,noexec
    55                           	psect	temp,global,ovrld,common,class=COMRAM,space=1,delta=1
    56                           	psect	config,global,abs,ovrld,class=CONFIG,space=4,delta=1,noexec
    57   000000                     
    58                           ; Generated 21/07/2023 GMT
    59                           ; 
    60                           ; Copyright © 2023, Microchip Technology Inc. and its subsidiaries ("Microchip")
    61                           ; All rights reserved.
    62                           ; 
    63                           ; This software is developed by Microchip Technology Inc. and its subsidiaries ("Microch
      +                          ip").
    64                           ; 
    65                           ; Redistribution and use in source and binary forms, with or without modification, are
    66                           ; permitted provided that the following conditions are met:
    67                           ; 
    68                           ;     1. Redistributions of source code must retain the above copyright notice, this lis
      +                          t of
    69                           ;        conditions and the following disclaimer.
    70                           ; 
    71                           ;     2. Redistributions in binary form must reproduce the above copyright notice, this 
      +                          list
    72                           ;        of conditions and the following disclaimer in the documentation and/or other
    73                           ;        materials provided with the distribution. Publication is not required when
    74                           ;        this file is used in an embedded application.
    75                           ; 
    76                           ;     3. Microchip's name may not be used to endorse or promote products derived from th
      +                          is
    77                           ;        software without specific prior written permission.
    78                           ; 
    79                           ; THIS SOFTWARE IS PROVIDED BY MICROCHIP "AS IS" AND ANY EXPRESS OR IMPLIED WARRANTIES,
    80                           ; INCLUDING, BUT NOT LIMITED TO, THE IMPLIED WARRANTIES OF MERCHANTABILITY AND FITNESS F
      +                          OR
    81                           ; PURPOSE ARE DISCLAIMED.  IN NO EVENT SHALL MICROCHIP BE LIABLE FOR ANY DIRECT, INDIREC
      +                          T,
    82                           ; INCIDENTAL, SPECIAL, EXEMPLARY, OR CONSEQUENTIAL DAMAGES (INCLUDING BUT NOT LIMITED TO
    83                           ; PROCUREMENT OF SUBSTITUTE GOODS OR SERVICES; LOSS OF USE, DATA OR PROFITS; OR BUSINESS
    84                           ; INTERRUPTION) HOWSOEVER CAUSED AND ON ANY THEORY OF LIABILITY, WHETHER IN CONTRACT, ST
      +                          RICT
    85                           ; LIABILITY, OR TORT (INCLUDING NEGLIGENCE OR OTHERWISE) ARISING IN ANY WAY OUT OF THE U
      +                          SE OF
    86                           ; THIS SOFTWARE, EVEN IF ADVISED OF THE POSSIBILITY OF SUCH DAMAGE.
    87                           ; 
    88                           ; 
    89                           ; Code-generator required, PIC18F67K40 Definitions
    90                           ; 
    91                           ; SFR Addresses
    92   000000                     
    93                           	psect	idataCOMRAM
    94   002050                     __pidataCOMRAM:
    95                           	callstack 0
    96                           
    97                           ;initializer for _year
    98   002050  07E8               	dw	2024
    99                           
   100                           ;initializer for _month
   101   002052  0003               	dw	3
   102                           
   103                           ;initializer for _weekday
   104   002054  0006               	dw	6
   105                           
   106                           ;initializer for _day
   107   002056  001E               	dw	30
   108                           
   109                           ;initializer for _hour
   110   002058  0010               	dw	16
   111                           
   112                           	psect	idataBANK0
   113   00205A                     __pidataBANK0:
   114                           	callstack 0
   115                           
   116                           ;initializer for _calculatedmidday_hour
   117   00205A  000C               	dw	12
   118                           
   119                           	psect	smallconst
   120   000E00                     __psmallconst:
   121                           	callstack 0
   122   000E00  00                 	db	0
   123   000E01  6C3C               	dw	27708
   124   000E03  3636               	dw	13878
   125   000E05                     __end_of_S4:
   126                           	callstack 0
   127   000E05  07CF               	dw	1999
   128   000E07  B950               	dw	47440
   129   000E09                     __end_of_S3:
   130                           	callstack 0
   131   000E09  8884               	dw	34948
   132   000E0B  3C08               	dw	15368
   133   000E0D                     __end_of_S2:
   134                           	callstack 0
   135   000E0D  AAAB               	dw	43691
   136   000E0F  BE2A               	dw	48682
   137   000E11                     __end_of_S1:
   138                           	callstack 0
   139   000E11  85A3               	dw	34211
   140   000E13  3288               	dw	12936
   141   000E15                     __end_of_pio2_1t:
   142                           	callstack 0
   143   000E15  0FDA               	dw	4058
   144   000E17  3FC9               	dw	16329
   145   000E19                     __end_of_pio2_1:
   146                           	callstack 0
   147   000E19  F983               	dw	63875
   148   000E1B  3F22               	dw	16162
   149   000E1D                     __end_of_invpio2:
   150                           	callstack 0
   151   000E1D  0000               	dw	0
   152   000E1F  3F00               	dw	16128
   153   000E21                     __end_of_half:
   154                           	callstack 0
   155   000E21  9A17               	dw	39447
   156   000E23  37CC               	dw	14284
   157   000E25                     __end_of_C3:
   158                           	callstack 0
   159   000E25  043F               	dw	1087
   160   000E27  BAB6               	dw	47798
   161   000E29                     __end_of_C2:
   162                           	callstack 0
   163   000E29  AA9F               	dw	43679
   164   000E2B  3D2A               	dw	15658
   165   000E2D                     __end_of_C1:
   166                           	callstack 0
   167   000E2D  0000               	dw	0
   168   000E2F  BF00               	dw	48896
   169   000E31                     __end_of_C0:
   170                           	callstack 0
   171   000E31  0FDB               	dw	4059
   172   000E33  40C9               	dw	16585
   173   000E35                     __end_of_s4pio2:
   174                           	callstack 0
   175   000E35  CBE4               	dw	52196
   176   000E37  4096               	dw	16534
   177   000E39                     __end_of_s3pio2:
   178                           	callstack 0
   179   000E39  0FDB               	dw	4059
   180   000E3B  4049               	dw	16457
   181   000E3D                     __end_of_s2pio2:
   182                           	callstack 0
   183   000E3D  0FDB               	dw	4059
   184   000E3F  3FC9               	dw	16329
   185   000E41                     __end_of_s1pio2:
   186                           	callstack 0
   187   000000                     _T0CON0bits	set	4053
   188   000000                     _T0CON1bits	set	4054
   189   000000                     _TRISDbits	set	3972
   190   000000                     _LATHbits	set	3968
   191   000000                     _LATDbits	set	3964
   192   000000                     _CM1CON1bits	set	3793
   193   000000                     _LATFbits	set	3966
   194   000000                     _LATGbits	set	3967
   195   000000                     _TRISFbits	set	3974
   196   000000                     _TRISGbits	set	3975
   197   000000                     _TRISEbits	set	3973
   198   000000                     _TRISBbits	set	3970
   199   000000                     _TRISCbits	set	3971
   200   000000                     _LATEbits	set	3965
   201   000000                     _IPR0bits	set	3615
   202   000000                     _IPR2bits	set	3617
   203   000000                     _PIE0bits	set	3625
   204   000000                     _ANSELAbits	set	3730
   205   000000                     _TRISAbits	set	3969
   206   000000                     _ANSELBbits	set	3738
   207   000000                     _ANSELFbits	set	3764
   208   000000                     _ANSELGbits	set	3772
   209   000000                     _ADREFbits	set	3928
   210   000000                     _ADPCH	set	3935
   211   000000                     _ADRESH	set	3940
   212   000000                     _ADCON0bits	set	3936
   213   000000                     _LATAbits	set	3961
   214   000000                     _LATBbits	set	3962
   215   000000                     _LATCbits	set	3963
   216   000000                     _TRISHbits	set	3976
   217   000000                     _TMR0L	set	4051
   218   000000                     _TMR0H	set	4052
   219   000000                     _INTCONbits	set	4082
   220   000000                     _DAC1CON0bits	set	3782
   221   000000                     _CM1CON0bits	set	3792
   222   000000                     _CM1NCHbits	set	3794
   223   000000                     _DAC1CON1bits	set	3783
   224   000000                     _CM1PCHbits	set	3795
   225   000000                     _PIE2bits	set	3627
   226   000000                     _PIR0bits	set	3635
   227   000000                     _PIR2bits	set	3637
   228   000E41                     STR_3:
   229                           
   230                           ; BSR set to: 14
   231   000E41  25                 	db	37
   232   000E42  30                 	db	48	;'0'
   233   000E43  32                 	db	50	;'2'
   234   000E44  64                 	db	100	;'d'
   235   000E45  20                 	db	32
   236   000E46  25                 	db	37
   237   000E47  30                 	db	48	;'0'
   238   000E48  32                 	db	50	;'2'
   239   000E49  64                 	db	100	;'d'
   240   000E4A  20                 	db	32
   241   000E4B  25                 	db	37
   242   000E4C  30                 	db	48	;'0'
   243   000E4D  32                 	db	50	;'2'
   244   000E4E  64                 	db	100	;'d'
   245   000E4F  20                 	db	32
   246   000E50  25                 	db	37
   247   000E51  30                 	db	48	;'0'
   248   000E52  32                 	db	50	;'2'
   249   000E53  64                 	db	100	;'d'
   250   000E54  20                 	db	32
   251   000E55  25                 	db	37
   252   000E56  30                 	db	48	;'0'
   253   000E57  34                 	db	52	;'4'
   254   000E58  64                 	db	100	;'d'
   255   000E59  00                 	db	0
   256   000E5A                     
   257                           ; BSR set to: 14
   258   000E5A  25                 	db	37
   259   000E5B  30                 	db	48	;'0'
   260   000E5C  32                 	db	50	;'2'
   261   000E5D  64                 	db	100	;'d'
   262   000E5E  20                 	db	32
   263   000E5F  25                 	db	37
   264   000E60  30                 	db	48	;'0'
   265   000E61  32                 	db	50	;'2'
   266   000E62  64                 	db	100	;'d'
   267   000E63  00                 	db	0
   268   000E64                     
   269                           ; BSR set to: 14
   270   000E64  25                 	db	37
   271   000E65  64                 	db	100	;'d'
   272   000E66  2E                 	db	46
   273   000E67  25                 	db	37
   274   000E68  30                 	db	48	;'0'
   275   000E69  32                 	db	50	;'2'
   276   000E6A  64                 	db	100	;'d'
   277   000E6B  00                 	db	0
   278   000E6C                     STR_4:
   279                           
   280                           ; BSR set to: 14
   281   000E6C  25                 	db	37
   282   000E6D  30                 	db	48	;'0'
   283   000E6E  33                 	db	51	;'3'
   284   000E6F  64                 	db	100	;'d'
   285   000E70  00                 	db	0
   286   000E71  00                 	db	0	; dummy byte at the end
   287   000000                     
   288                           ; #config settings
   289                           
   290                           	psect	cinit
   291   001D60                     __pcinit:
   292                           	callstack 0
   293   001D60                     start_initialization:
   294                           	callstack 0
   295   001D60                     __initialization:
   296                           	callstack 0
   297                           
   298                           ; Initialize objects allocated to BANK0 (2 bytes)
   299                           ; load TBLPTR registers with __pidataBANK0
   300   001D60  0E5A               	movlw	low __pidataBANK0
   301   001D62  6EF6               	movwf	tblptrl,c
   302   001D64  0E20               	movlw	high __pidataBANK0
   303   001D66  6EF7               	movwf	tblptrh,c
   304   001D68  0E00               	movlw	low (__pidataBANK0 shr (0+16))
   305   001D6A  6EF8               	movwf	tblptru,c
   306   001D6C  0009               	tblrd		*+	;fetch initializer
   307   001D6E  CFF5 F0B2          	movff	tablat,__pdataBANK0
   308   001D72  0009               	tblrd		*+	;fetch initializer
   309   001D74  CFF5 F0B3          	movff	tablat,__pdataBANK0+1
   310                           
   311                           ; Initialize objects allocated to COMRAM (10 bytes)
   312                           ; load TBLPTR registers with __pidataCOMRAM
   313   001D78  0E50               	movlw	low __pidataCOMRAM
   314   001D7A  6EF6               	movwf	tblptrl,c
   315   001D7C  0E20               	movlw	high __pidataCOMRAM
   316   001D7E  6EF7               	movwf	tblptrh,c
   317   001D80  0E00               	movlw	low (__pidataCOMRAM shr (0+16))
   318   001D82  6EF8               	movwf	tblptru,c
   319   001D84  EE00  F04C         	lfsr	0,__pdataCOMRAM
   320   001D88  EE10 F00A          	lfsr	1,10
   321   001D8C                     copy_data0:
   322   001D8C  0009               	tblrd		*+
   323   001D8E  CFF5 FFEE          	movff	tablat,postinc0
   324   001D92  50E5               	movf	postdec1,w,c
   325   001D94  50E1               	movf	fsr1l,w,c
   326   001D96  E1FA               	bnz	copy_data0
   327                           
   328                           ; Clear objects allocated to BANK0 (78 bytes)
   329   001D98  EE00  F060         	lfsr	0,__pbssBANK0
   330   001D9C  0E4E               	movlw	78
   331   001D9E                     clear_0:
   332   001D9E  6AEE               	clrf	postinc0,c
   333   001DA0  06E8               	decf	wreg,f,c
   334   001DA2  E1FD               	bnz	clear_0
   335                           
   336                           ; Clear objects allocated to COMRAM (5 bytes)
   337   001DA4  6A5A               	clrf	(__pbssCOMRAM+4)& (0+255),c
   338   001DA6  6A59               	clrf	(__pbssCOMRAM+3)& (0+255),c
   339   001DA8  6A58               	clrf	(__pbssCOMRAM+2)& (0+255),c
   340   001DAA  6A57               	clrf	(__pbssCOMRAM+1)& (0+255),c
   341   001DAC  6A56               	clrf	__pbssCOMRAM& (0+255),c
   342   001DAE                     end_of_initialization:
   343                           	callstack 0
   344   001DAE                     __end_of__initialization:
   345                           	callstack 0
   346   001DAE  905B               	bcf	int$flags,0,c	;clear compiler interrupt flag (level 1)
   347   001DB0  925B               	bcf	int$flags,1,c	;clear compiler interrupt flag (level 2)
   348   001DB2  0100               	movlb	0
   349   001DB4  EF4C  F00E         	goto	_main	;jump to C main() function
   350                           
   351                           	psect	bssCOMRAM
   352   000056                     __pbssCOMRAM:
   353                           	callstack 0
   354   000056                     _width:
   355                           	callstack 0
   356   000056                     	ds	2
   357   000058                     _minute:
   358                           	callstack 0
   359   000058                     	ds	2
   360   00005A                     _flags:
   361                           	callstack 0
   362   00005A                     	ds	1
   363                           
   364                           	psect	dataCOMRAM
   365   00004C                     __pdataCOMRAM:
   366                           	callstack 0
   367   00004C                     _year:
   368                           	callstack 0
   369   00004C                     	ds	2
   370   00004E                     _month:
   371                           	callstack 0
   372   00004E                     	ds	2
   373   000050                     _weekday:
   374                           	callstack 0
   375   000050                     	ds	2
   376   000052                     _day:
   377                           	callstack 0
   378   000052                     	ds	2
   379   000054                     _hour:
   380                           	callstack 0
   381   000054                     	ds	2
   382                           
   383                           	psect	bssBANK0
   384   000060                     __pbssBANK0:
   385                           	callstack 0
   386   000060                     fabsf@F465:
   387                           	callstack 0
   388   000060                     	ds	4
   389   000064                     ___rem_pio2f@F526:
   390                           	callstack 0
   391   000064                     	ds	4
   392   000068                     _prec:
   393                           	callstack 0
   394   000068                     	ds	2
   395   00006A                     _longitudestz:
   396                           	callstack 0
   397   00006A                     	ds	2
   398   00006C                     _longitude:
   399                           	callstack 0
   400   00006C                     	ds	2
   401   00006E                     _eot:
   402                           	callstack 0
   403   00006E                     	ds	2
   404   000070                     _solarnoonminutes:
   405                           	callstack 0
   406   000070                     	ds	2
   407   000072                     _difference:
   408                           	callstack 0
   409   000072                     	ds	2
   410   000074                     _calculatedmidday_minute:
   411                           	callstack 0
   412   000074                     	ds	2
   413   000076                     _sunsettime:
   414                           	callstack 0
   415   000076                     	ds	2
   416   000078                     _sunrisetime:
   417                           	callstack 0
   418   000078                     	ds	2
   419   00007A                     _dbuf:
   420                           	callstack 0
   421   00007A                     	ds	32
   422   00009A                     _lightString:
   423                           	callstack 0
   424   00009A                     	ds	10
   425   0000A4                     _timeString:
   426                           	callstack 0
   427   0000A4                     	ds	10
   428                           
   429                           	psect	dataBANK0
   430   0000B2                     __pdataBANK0:
   431                           	callstack 0
   432   0000B2                     _calculatedmidday_hour:
   433                           	callstack 0
   434   0000B2                     	ds	2
   435                           
   436                           	psect	cstackBANK0
   437   0000AE                     __pcstackBANK0:
   438                           	callstack 0
   439   0000AE                     main@lightString:
   440                           	callstack 0
   441                           
   442                           ; 4 bytes @ 0x0
   443   0000AE                     	ds	4
   444                           
   445                           	psect	cstackCOMRAM
   446   000001                     __pcstackCOMRAM:
   447                           	callstack 0
   448   000001                     ??_LowISR:
   449   000001                     
   450                           ; 1 bytes @ 0x0
   451   000001                     	ds	3
   452   000004                     ?_DST_adjust:
   453                           	callstack 0
   454   000004                     ?_get16bitTMR0val:
   455                           	callstack 0
   456   000004                     ?___awdiv:
   457                           	callstack 0
   458   000004                     ?___awmod:
   459                           	callstack 0
   460   000004                     ?___lwmod:
   461                           	callstack 0
   462   000004                     LCD_sendnibble@number:
   463                           	callstack 0
   464   000004                     LEDarray_disp_bin@number:
   465                           	callstack 0
   466   000004                     DST_adjust@month:
   467                           	callstack 0
   468   000004                     ___awdiv@dividend:
   469                           	callstack 0
   470   000004                     ___awmod@dividend:
   471                           	callstack 0
   472   000004                     ___lwmod@dividend:
   473                           	callstack 0
   474   000004                     fputc@c:
   475                           	callstack 0
   476                           
   477                           ; 2 bytes @ 0x3
   478   000004                     	ds	1
   479   000005                     LCD_sendbyte@type:
   480                           	callstack 0
   481                           
   482                           ; 1 bytes @ 0x4
   483   000005                     	ds	1
   484   000006                     LCD_sendbyte@Byte:
   485                           	callstack 0
   486   000006                     fputc@fp:
   487                           	callstack 0
   488   000006                     DST_adjust@hour:
   489                           	callstack 0
   490   000006                     get16bitTMR0val@time:
   491                           	callstack 0
   492   000006                     ___awdiv@divisor:
   493                           	callstack 0
   494   000006                     ___awmod@divisor:
   495                           	callstack 0
   496   000006                     ___lwmod@divisor:
   497                           	callstack 0
   498                           
   499                           ; 2 bytes @ 0x5
   500   000006                     	ds	1
   501   000007                     ??_fputc:
   502   000007                     ??_LCD_Init:
   503   000007                     LCD_setline@line:
   504                           	callstack 0
   505   000007                     LCD_sendstring@string:
   506                           	callstack 0
   507                           
   508                           ; 1 bytes @ 0x6
   509   000007                     	ds	1
   510   000008                     ?___wmul:
   511                           	callstack 0
   512   000008                     ___awdiv@counter:
   513                           	callstack 0
   514   000008                     ___awmod@counter:
   515                           	callstack 0
   516   000008                     ___lwmod@counter:
   517                           	callstack 0
   518   000008                     ___wmul@multiplier:
   519                           	callstack 0
   520                           
   521                           ; 2 bytes @ 0x7
   522   000008                     	ds	1
   523   000009                     ?_month_days:
   524                           	callstack 0
   525   000009                     ___awdiv@sign:
   526                           	callstack 0
   527   000009                     ___awmod@sign:
   528                           	callstack 0
   529   000009                     month_days@month:
   530                           	callstack 0
   531   000009                     LEDarray_control@temp:
   532                           	callstack 0
   533                           
   534                           ; 2 bytes @ 0x8
   535   000009                     	ds	1
   536   00000A                     ?_abs:
   537                           	callstack 0
   538   00000A                     ___wmul@multiplicand:
   539                           	callstack 0
   540   00000A                     ___awdiv@quotient:
   541                           	callstack 0
   542   00000A                     abs@a:
   543                           	callstack 0
   544                           
   545                           ; 2 bytes @ 0x9
   546   00000A                     	ds	1
   547   00000B                     month_days@year:
   548                           	callstack 0
   549                           
   550                           ; 2 bytes @ 0xA
   551   00000B                     	ds	1
   552   00000C                     ??_abs:
   553   00000C                     fputs@s:
   554                           	callstack 0
   555   00000C                     ___wmul@product:
   556                           	callstack 0
   557                           
   558                           ; 2 bytes @ 0xB
   559   00000C                     	ds	1
   560   00000D                     ??_month_days:
   561   00000D                     fputs@fp:
   562                           	callstack 0
   563                           
   564                           ; 1 bytes @ 0xC
   565   00000D                     	ds	1
   566   00000E                     ?___lwdiv:
   567                           	callstack 0
   568   00000E                     ?_read_prec_or_width:
   569                           	callstack 0
   570   00000E                     read_prec_or_width@fmt:
   571                           	callstack 0
   572   00000E                     fputs@c:
   573                           	callstack 0
   574   00000E                     ___lwdiv@dividend:
   575                           	callstack 0
   576                           
   577                           ; 2 bytes @ 0xD
   578   00000E                     	ds	1
   579   00000F                     read_prec_or_width@ap:
   580                           	callstack 0
   581   00000F                     month_days@monthDays:
   582                           	callstack 0
   583   00000F                     fputs@i:
   584                           	callstack 0
   585                           
   586                           ; 2 bytes @ 0xE
   587   00000F                     	ds	1
   588   000010                     read_prec_or_width@c:
   589                           	callstack 0
   590   000010                     ___lwdiv@divisor:
   591                           	callstack 0
   592                           
   593                           ; 2 bytes @ 0xF
   594   000010                     	ds	1
   595   000011                     pad@fp:
   596                           	callstack 0
   597   000011                     read_prec_or_width@n:
   598                           	callstack 0
   599                           
   600                           ; 2 bytes @ 0x10
   601   000011                     	ds	1
   602   000012                     ___lwdiv@counter:
   603                           	callstack 0
   604   000012                     pad@buf:
   605                           	callstack 0
   606                           
   607                           ; 1 bytes @ 0x11
   608   000012                     	ds	1
   609   000013                     ___lwdiv@quotient:
   610                           	callstack 0
   611   000013                     pad@p:
   612                           	callstack 0
   613                           
   614                           ; 2 bytes @ 0x12
   615   000013                     	ds	2
   616   000015                     ??_pad:
   617   000015                     ?_ADC_getval:
   618                           	callstack 0
   619                           
   620                           ; 2 bytes @ 0x14
   621   000015                     	ds	1
   622   000016                     pad@i:
   623                           	callstack 0
   624                           
   625                           ; 2 bytes @ 0x15
   626   000016                     	ds	1
   627   000017                     ADC_getval@tmpval:
   628                           	callstack 0
   629                           
   630                           ; 2 bytes @ 0x16
   631   000017                     	ds	1
   632   000018                     dtoa@fp:
   633                           	callstack 0
   634                           
   635                           ; 1 bytes @ 0x17
   636   000018                     	ds	1
   637   000019                     dtoa@d:
   638                           	callstack 0
   639                           
   640                           ; 2 bytes @ 0x18
   641   000019                     	ds	2
   642   00001B                     _dtoa$2134:
   643                           	callstack 0
   644                           
   645                           ; 2 bytes @ 0x1A
   646   00001B                     	ds	2
   647   00001D                     dtoa@p:
   648                           	callstack 0
   649                           
   650                           ; 1 bytes @ 0x1C
   651   00001D                     	ds	1
   652   00001E                     dtoa@w:
   653                           	callstack 0
   654                           
   655                           ; 2 bytes @ 0x1D
   656   00001E                     	ds	2
   657   000020                     dtoa@s:
   658                           	callstack 0
   659                           
   660                           ; 1 bytes @ 0x1F
   661   000020                     	ds	1
   662   000021                     dtoa@i:
   663                           	callstack 0
   664                           
   665                           ; 2 bytes @ 0x20
   666   000021                     	ds	2
   667   000023                     vfpfcnvrt@fp:
   668                           	callstack 0
   669                           
   670                           ; 1 bytes @ 0x22
   671   000023                     	ds	1
   672   000024                     vfpfcnvrt@fmt:
   673                           	callstack 0
   674                           
   675                           ; 1 bytes @ 0x23
   676   000024                     	ds	1
   677   000025                     vfpfcnvrt@ap:
   678                           	callstack 0
   679                           
   680                           ; 1 bytes @ 0x24
   681   000025                     	ds	1
   682   000026                     ??_vfpfcnvrt:
   683                           
   684                           ; 1 bytes @ 0x25
   685   000026                     	ds	2
   686   000028                     vfpfcnvrt@convarg:
   687                           	callstack 0
   688                           
   689                           ; 4 bytes @ 0x27
   690   000028                     	ds	4
   691   00002C                     vfpfcnvrt@done:
   692                           	callstack 0
   693                           
   694                           ; 1 bytes @ 0x2B
   695   00002C                     	ds	1
   696   00002D                     vfpfcnvrt@cp:
   697                           	callstack 0
   698                           
   699                           ; 1 bytes @ 0x2C
   700   00002D                     	ds	1
   701   00002E                     ?_vfprintf:
   702                           	callstack 0
   703   00002E                     vfprintf@fp:
   704                           	callstack 0
   705                           
   706                           ; 1 bytes @ 0x2D
   707   00002E                     	ds	1
   708   00002F                     vfprintf@fmt:
   709                           	callstack 0
   710                           
   711                           ; 1 bytes @ 0x2E
   712   00002F                     	ds	1
   713   000030                     vfprintf@ap:
   714                           	callstack 0
   715                           
   716                           ; 1 bytes @ 0x2F
   717   000030                     	ds	1
   718   000031                     vfprintf@cfmt:
   719                           	callstack 0
   720                           
   721                           ; 1 bytes @ 0x30
   722   000031                     	ds	1
   723   000032                     ?_sprintf:
   724                           	callstack 0
   725   000032                     sprintf@s:
   726                           	callstack 0
   727                           
   728                           ; 1 bytes @ 0x31
   729   000032                     	ds	1
   730   000033                     sprintf@fmt:
   731                           	callstack 0
   732                           
   733                           ; 1 bytes @ 0x32
   734   000033                     	ds	11
   735   00003E                     sprintf@ap:
   736                           	callstack 0
   737                           
   738                           ; 1 bytes @ 0x3D
   739   00003E                     	ds	1
   740   00003F                     sprintf@f:
   741                           	callstack 0
   742                           
   743                           ; 12 bytes @ 0x3E
   744   00003F                     	ds	12
   745   00004B                     ??_main:
   746                           
   747                           ; 1 bytes @ 0x4A
   748   00004B                     	ds	1
   749                           
   750 ;;
   751 ;;Main: autosize = 0, tempsize = 1, incstack = 0, save=0
   752 ;;
   753 ;; *************** function _main *****************
   754 ;; Defined at:
   755 ;;		line 20 in file "main.c"
   756 ;; Parameters:    Size  Location     Type
   757 ;;		None
   758 ;; Auto vars:     Size  Location     Type
   759 ;;  lightString     4    0[BANK0 ] unsigned char [4]
   760 ;; Return value:  Size  Location     Type
   761 ;;                  1    wreg      void 
   762 ;; Registers used:
   763 ;;		wreg, fsr1l, fsr1h, fsr2l, fsr2h, status,2, status,0, tblptrl, tblptrh, tblptru, prodl, prodh, cstack
   764 ;; Tracked objects:
   765 ;;		On entry : 0/0
   766 ;;		On exit  : 0/0
   767 ;;		Unchanged: 0/0
   768 ;; Data sizes:     COMRAM   BANK0   BANK1   BANK2   BANK3   BANK4   BANK5   BANK6   BANK7   BANK8   BANK9  BANK10  BANK1
      +1  BANK12  BANK13
   769 ;;      Params:         0       0       0       0       0       0       0       0       0       0       0       0       
      +0       0       0
   770 ;;      Locals:         0       4       0       0       0       0       0       0       0       0       0       0       
      +0       0       0
   771 ;;      Temps:          1       0       0       0       0       0       0       0       0       0       0       0       
      +0       0       0
   772 ;;      Totals:         1       4       0       0       0       0       0       0       0       0       0       0       
      +0       0       0
   773 ;;Total ram usage:        5 bytes
   774 ;; Hardware stack levels required when called: 11
   775 ;; This function calls:
   776 ;;		_ADC_getval
   777 ;;		_ADC_init
   778 ;;		_Comp1_init
   779 ;;		_Interrupts_init
   780 ;;		_LCD_Init
   781 ;;		_LCD_sendstring
   782 ;;		_LCD_setline
   783 ;;		_LEDarray_init
   784 ;;		_Timer0_init
   785 ;;		_disp_time
   786 ;;		_sprintf
   787 ;; This function is called by:
   788 ;;		Startup code after reset
   789 ;; This function uses a non-reentrant model
   790 ;;
   791                           
   792                           	psect	text0
   793   001C98                     __ptext0:
   794                           	callstack 0
   795   001C98                     _main:
   796                           	callstack 20
   797   001C98                     
   798                           ;main.c: 22:     LCD_Init();
   799   001C98  EC7A  F00A         	call	_LCD_Init	;wreg free
   800   001C9C                     
   801                           ;main.c: 23:     Comp1_init();
   802   001C9C  ECB6  F00F         	call	_Comp1_init	;wreg free
   803   001CA0                     
   804                           ;main.c: 24:  ADC_init();
   805   001CA0  ECEC  F00F         	call	_ADC_init	;wreg free
   806   001CA4                     
   807                           ;main.c: 25:     Timer0_init();
   808   001CA4  ECDC  F00F         	call	_Timer0_init	;wreg free
   809   001CA8                     
   810                           ;main.c: 26:     LEDarray_init();
   811   001CA8  EC38  F00F         	call	_LEDarray_init	;wreg free
   812   001CAC                     
   813                           ;main.c: 27:     Interrupts_init();
   814   001CAC  EC18  F010         	call	_Interrupts_init	;wreg free
   815   001CB0                     
   816                           ;main.c: 30:     char lightString[4];;main.c: 32:     LATHbits.LATH3=0;
   817   001CB0  9680               	bcf	128,3,c	;volatile
   818   001CB2                     
   819                           ;main.c: 33:     TRISHbits.TRISH3=0;
   820   001CB2  9688               	bcf	136,3,c	;volatile
   821   001CB4                     
   822                           ;main.c: 35:     LATDbits.LATD7=0;
   823   001CB4  9E7C               	bcf	124,7,c	;volatile
   824   001CB6                     
   825                           ;main.c: 36:     TRISDbits.TRISD7=0;
   826   001CB6  9E84               	bcf	132,7,c	;volatile
   827   001CB8                     
   828                           ;main.c: 37:     LATDbits.LATD4=0;
   829   001CB8  987C               	bcf	124,4,c	;volatile
   830   001CBA                     
   831                           ;main.c: 38:     TRISDbits.TRISD4=0;
   832   001CBA  9884               	bcf	132,4,c	;volatile
   833   001CBC                     l4130:
   834                           
   835                           ;main.c: 41:     {;main.c: 42:         LCD_setline(1);
   836   001CBC  0E01               	movlw	1
   837   001CBE  EC1B  F00F         	call	_LCD_setline
   838   001CC2                     
   839                           ;main.c: 43:         sprintf(lightString,"%03d",ADC_getval());
   840   001CC2  0EAE               	movlw	low main@lightString
   841   001CC4  6E32               	movwf	sprintf@s^0,c
   842   001CC6  0E6C               	movlw	low STR_4
   843   001CC8  6E33               	movwf	sprintf@fmt^0,c
   844   001CCA  EC9F  F00D         	call	_ADC_getval	;wreg free
   845   001CCE  C015  F034         	movff	?_ADC_getval,?_sprintf+2
   846   001CD2  C016  F035         	movff	?_ADC_getval+1,?_sprintf+3
   847   001CD6  EC55  F00F         	call	_sprintf	;wreg free
   848   001CDA                     
   849                           ;main.c: 44:         LCD_sendstring(lightString);
   850   001CDA  0EAE               	movlw	low main@lightString
   851   001CDC  6E07               	movwf	LCD_sendstring@string^0,c
   852   001CDE  EC89  F00F         	call	_LCD_sendstring	;wreg free
   853   001CE2                     
   854                           ;main.c: 46:         disp_time();
   855   001CE2  EC39  F007         	call	_disp_time	;wreg free
   856   001CE6                     
   857                           ;main.c: 48:         _delay((unsigned long)((10)*(64000000/4000.0)));
   858   001CE6  0ED0               	movlw	208
   859   001CE8  6E4B               	movwf	??_main^0,c
   860   001CEA  0ECA               	movlw	202
   861   001CEC                     u4477:
   862   001CEC  2EE8               	decfsz	wreg,f,c
   863   001CEE  D7FE               	bra	u4477
   864   001CF0  2E4B               	decfsz	??_main^0,f,c
   865   001CF2  D7FC               	bra	u4477
   866   001CF4  EF5E  F00E         	goto	l4130
   867   001CF8  EF29  F000         	goto	start
   868   001CFC                     __end_of_main:
   869                           	callstack 0
   870                           
   871 ;; *************** function _disp_time *****************
   872 ;; Defined at:
   873 ;;		line 70 in file "datetime.c"
   874 ;; Parameters:    Size  Location     Type
   875 ;;		None
   876 ;; Auto vars:     Size  Location     Type
   877 ;;		None
   878 ;; Return value:  Size  Location     Type
   879 ;;                  1    wreg      void 
   880 ;; Registers used:
   881 ;;		wreg, fsr1l, fsr1h, fsr2l, fsr2h, status,2, status,0, tblptrl, tblptrh, tblptru, prodl, prodh, cstack
   882 ;; Tracked objects:
   883 ;;		On entry : 0/0
   884 ;;		On exit  : 0/0
   885 ;;		Unchanged: 0/0
   886 ;; Data sizes:     COMRAM   BANK0   BANK1   BANK2   BANK3   BANK4   BANK5   BANK6   BANK7   BANK8   BANK9  BANK10  BANK1
      +1  BANK12  BANK13
   887 ;;      Params:         0       0       0       0       0       0       0       0       0       0       0       0       
      +0       0       0
   888 ;;      Locals:         0       0       0       0       0       0       0       0       0       0       0       0       
      +0       0       0
   889 ;;      Temps:          0       0       0       0       0       0       0       0       0       0       0       0       
      +0       0       0
   890 ;;      Totals:         0       0       0       0       0       0       0       0       0       0       0       0       
      +0       0       0
   891 ;;Total ram usage:        0 bytes
   892 ;; Hardware stack levels used: 1
   893 ;; Hardware stack levels required when called: 10
   894 ;; This function calls:
   895 ;;		_DST_adjust
   896 ;;		_LCD_sendstring
   897 ;;		_LCD_setline
   898 ;;		_LEDarray_control
   899 ;;		_LEDarray_disp_bin
   900 ;;		___lwdiv
   901 ;;		___wmul
   902 ;;		_get16bitTMR0val
   903 ;;		_month_days
   904 ;;		_sprintf
   905 ;; This function is called by:
   906 ;;		_main
   907 ;; This function uses a non-reentrant model
   908 ;;
   909                           
   910                           	psect	text1
   911   000E72                     __ptext1:
   912                           	callstack 0
   913   000E72                     _disp_time:
   914                           	callstack 20
   915   000E72                     
   916                           ;datetime.c: 71:     if (LATDbits.LATD7)
   917   000E72  AE7C               	btfss	124,7,c	;volatile
   918   000E74  EF3E  F007         	goto	u4271
   919   000E78  EF40  F007         	goto	u4270
   920   000E7C                     u4271:
   921   000E7C  EF59  F007         	goto	l3976
   922   000E80                     u4270:
   923   000E80                     
   924                           ;datetime.c: 72:     {;datetime.c: 73:         if (hour > 12) {LEDarray_disp_bin(0b11111
      +                          1111);}
   925   000E80  5055               	movf	(_hour+1)^0,w,c
   926   000E82  E109               	bnz	u4280
   927   000E84  0E0D               	movlw	13
   928   000E86  5C54               	subwf	_hour^0,w,c
   929   000E88  A0D8               	btfss	status,0,c
   930   000E8A  EF49  F007         	goto	u4281
   931   000E8E  EF4B  F007         	goto	u4280
   932   000E92                     u4281:
   933   000E92  EF52  F007         	goto	l3972
   934   000E96                     u4280:
   935   000E96  0E01               	movlw	1
   936   000E98  6E05               	movwf	(LEDarray_disp_bin@number+1)^0,c
   937   000E9A  6804               	setf	LEDarray_disp_bin@number^0,c
   938   000E9C  ECFB  F00A         	call	_LEDarray_disp_bin	;wreg free
   939   000EA0  EF58  F007         	goto	l3974
   940   000EA4                     l3972:
   941   000EA4  0E00               	movlw	0
   942   000EA6  6E05               	movwf	(LEDarray_disp_bin@number+1)^0,c
   943   000EA8  0E00               	movlw	0
   944   000EAA  6E04               	movwf	LEDarray_disp_bin@number^0,c
   945   000EAC  ECFB  F00A         	call	_LEDarray_disp_bin	;wreg free
   946   000EB0                     l3974:
   947                           
   948                           ;datetime.c: 75:         LATDbits.LATD7 = 0;
   949   000EB0  9E7C               	bcf	124,7,c	;volatile
   950   000EB2                     l3976:
   951                           
   952                           ;datetime.c: 78:     if (LATDbits.LATD4) {hour++; LATDbits.LATD4 = 0;}
   953   000EB2  A87C               	btfss	124,4,c	;volatile
   954   000EB4  EF5E  F007         	goto	u4291
   955   000EB8  EF60  F007         	goto	u4290
   956   000EBC                     u4291:
   957   000EBC  EF63  F007         	goto	l3982
   958   000EC0                     u4290:
   959   000EC0  4A54               	infsnz	_hour^0,f,c
   960   000EC2  2A55               	incf	(_hour+1)^0,f,c
   961   000EC4  987C               	bcf	124,4,c	;volatile
   962   000EC6                     l3982:
   963                           
   964                           ;datetime.c: 79:     if (hour > 23) {hour = 0; day++; weekday++;}
   965   000EC6  5055               	movf	(_hour+1)^0,w,c
   966   000EC8  E109               	bnz	u4300
   967   000ECA  0E18               	movlw	24
   968   000ECC  5C54               	subwf	_hour^0,w,c
   969   000ECE  A0D8               	btfss	status,0,c
   970   000ED0  EF6C  F007         	goto	u4301
   971   000ED4  EF6E  F007         	goto	u4300
   972   000ED8                     u4301:
   973   000ED8  EF76  F007         	goto	l3990
   974   000EDC                     u4300:
   975   000EDC  0E00               	movlw	0
   976   000EDE  6E55               	movwf	(_hour+1)^0,c
   977   000EE0  0E00               	movlw	0
   978   000EE2  6E54               	movwf	_hour^0,c
   979   000EE4  4A52               	infsnz	_day^0,f,c
   980   000EE6  2A53               	incf	(_day+1)^0,f,c
   981   000EE8  4A50               	infsnz	_weekday^0,f,c
   982   000EEA  2A51               	incf	(_weekday+1)^0,f,c
   983   000EEC                     l3990:
   984                           
   985                           ;datetime.c: 80:     if (weekday > 7) {weekday = 1;}
   986   000EEC  5051               	movf	(_weekday+1)^0,w,c
   987   000EEE  E109               	bnz	u4310
   988   000EF0  0E08               	movlw	8
   989   000EF2  5C50               	subwf	_weekday^0,w,c
   990   000EF4  A0D8               	btfss	status,0,c
   991   000EF6  EF7F  F007         	goto	u4311
   992   000EFA  EF81  F007         	goto	u4310
   993   000EFE                     u4311:
   994   000EFE  EF85  F007         	goto	l3994
   995   000F02                     u4310:
   996   000F02  0E00               	movlw	0
   997   000F04  6E51               	movwf	(_weekday+1)^0,c
   998   000F06  0E01               	movlw	1
   999   000F08  6E50               	movwf	_weekday^0,c
  1000   000F0A                     l3994:
  1001                           
  1002                           ;datetime.c: 81:     if (day > month_days(month,year)) {day = 1; month++;}
  1003   000F0A  C04E  F009         	movff	_month,month_days@month
  1004   000F0E  C04F  F00A         	movff	_month+1,month_days@month+1
  1005   000F12  C04C  F00B         	movff	_year,month_days@year
  1006   000F16  C04D  F00C         	movff	_year+1,month_days@year+1
  1007   000F1A  EC3D  F008         	call	_month_days	;wreg free
  1008   000F1E  5052               	movf	_day^0,w,c
  1009   000F20  5C09               	subwf	?_month_days^0,w,c
  1010   000F22  5053               	movf	(_day+1)^0,w,c
  1011   000F24  580A               	subwfb	(?_month_days+1)^0,w,c
  1012   000F26  B0D8               	btfsc	status,0,c
  1013   000F28  EF98  F007         	goto	u4321
  1014   000F2C  EF9A  F007         	goto	u4320
  1015   000F30                     u4321:
  1016   000F30  EFA0  F007         	goto	l4000
  1017   000F34                     u4320:
  1018   000F34  0E00               	movlw	0
  1019   000F36  6E53               	movwf	(_day+1)^0,c
  1020   000F38  0E01               	movlw	1
  1021   000F3A  6E52               	movwf	_day^0,c
  1022   000F3C  4A4E               	infsnz	_month^0,f,c
  1023   000F3E  2A4F               	incf	(_month+1)^0,f,c
  1024   000F40                     l4000:
  1025                           
  1026                           ;datetime.c: 82:     if (month > 12) {month = 1; year++;}
  1027   000F40  504F               	movf	(_month+1)^0,w,c
  1028   000F42  E109               	bnz	u4330
  1029   000F44  0E0D               	movlw	13
  1030   000F46  5C4E               	subwf	_month^0,w,c
  1031   000F48  A0D8               	btfss	status,0,c
  1032   000F4A  EFA9  F007         	goto	u4331
  1033   000F4E  EFAB  F007         	goto	u4330
  1034   000F52                     u4331:
  1035   000F52  EFB1  F007         	goto	l4006
  1036   000F56                     u4330:
  1037   000F56  0E00               	movlw	0
  1038   000F58  6E4F               	movwf	(_month+1)^0,c
  1039   000F5A  0E01               	movlw	1
  1040   000F5C  6E4E               	movwf	_month^0,c
  1041   000F5E  4A4C               	infsnz	_year^0,f,c
  1042   000F60  2A4D               	incf	(_year+1)^0,f,c
  1043   000F62                     l4006:
  1044                           
  1045                           ;datetime.c: 84:     if (hour == 1) {LEDarray_control();}
  1046   000F62  0454               	decf	_hour^0,w,c
  1047   000F64  1055               	iorwf	(_hour+1)^0,w,c
  1048   000F66  A4D8               	btfss	status,2,c
  1049   000F68  EFB8  F007         	goto	u4341
  1050   000F6C  EFBA  F007         	goto	u4340
  1051   000F70                     u4341:
  1052   000F70  EFBC  F007         	goto	l4010
  1053   000F74                     u4340:
  1054   000F74  ECC5  F00C         	call	_LEDarray_control	;wreg free
  1055   000F78                     l4010:
  1056                           
  1057                           ;datetime.c: 85:     if (hour == 5) {LEDarray_disp_bin(0b111111111);}
  1058   000F78  0E05               	movlw	5
  1059   000F7A  1854               	xorwf	_hour^0,w,c
  1060   000F7C  1055               	iorwf	(_hour+1)^0,w,c
  1061   000F7E  A4D8               	btfss	status,2,c
  1062   000F80  EFC4  F007         	goto	u4351
  1063   000F84  EFC6  F007         	goto	u4350
  1064   000F88                     u4351:
  1065   000F88  EFCB  F007         	goto	l4014
  1066   000F8C                     u4350:
  1067   000F8C  0E01               	movlw	1
  1068   000F8E  6E05               	movwf	(LEDarray_disp_bin@number+1)^0,c
  1069   000F90  6804               	setf	LEDarray_disp_bin@number^0,c
  1070   000F92  ECFB  F00A         	call	_LEDarray_disp_bin	;wreg free
  1071   000F96                     l4014:
  1072                           
  1073                           ;datetime.c: 87:     if ((month == 3 || month == 10) && weekday == 7 && day > 24) {hour 
      +                          = DST_adjust(month,hour);}
  1074   000F96  0E03               	movlw	3
  1075   000F98  184E               	xorwf	_month^0,w,c
  1076   000F9A  104F               	iorwf	(_month+1)^0,w,c
  1077   000F9C  B4D8               	btfsc	status,2,c
  1078   000F9E  EFD3  F007         	goto	u4361
  1079   000FA2  EFD5  F007         	goto	u4360
  1080   000FA6                     u4361:
  1081   000FA6  EFDF  F007         	goto	l4018
  1082   000FAA                     u4360:
  1083   000FAA  0E0A               	movlw	10
  1084   000FAC  184E               	xorwf	_month^0,w,c
  1085   000FAE  104F               	iorwf	(_month+1)^0,w,c
  1086   000FB0  A4D8               	btfss	status,2,c
  1087   000FB2  EFDD  F007         	goto	u4371
  1088   000FB6  EFDF  F007         	goto	u4370
  1089   000FBA                     u4371:
  1090   000FBA  EF02  F008         	goto	l4024
  1091   000FBE                     u4370:
  1092   000FBE                     l4018:
  1093   000FBE  0E07               	movlw	7
  1094   000FC0  1850               	xorwf	_weekday^0,w,c
  1095   000FC2  1051               	iorwf	(_weekday+1)^0,w,c
  1096   000FC4  A4D8               	btfss	status,2,c
  1097   000FC6  EFE7  F007         	goto	u4381
  1098   000FCA  EFE9  F007         	goto	u4380
  1099   000FCE                     u4381:
  1100   000FCE  EF02  F008         	goto	l4024
  1101   000FD2                     u4380:
  1102   000FD2  5053               	movf	(_day+1)^0,w,c
  1103   000FD4  E109               	bnz	u4390
  1104   000FD6  0E19               	movlw	25
  1105   000FD8  5C52               	subwf	_day^0,w,c
  1106   000FDA  A0D8               	btfss	status,0,c
  1107   000FDC  EFF2  F007         	goto	u4391
  1108   000FE0  EFF4  F007         	goto	u4390
  1109   000FE4                     u4391:
  1110   000FE4  EF02  F008         	goto	l4024
  1111   000FE8                     u4390:
  1112   000FE8  C04E  F004         	movff	_month,DST_adjust@month
  1113   000FEC  C04F  F005         	movff	_month+1,DST_adjust@month+1
  1114   000FF0  C054  F006         	movff	_hour,DST_adjust@hour
  1115   000FF4  C055  F007         	movff	_hour+1,DST_adjust@hour+1
  1116   000FF8  EC5B  F00D         	call	_DST_adjust	;wreg free
  1117   000FFC  C004  F054         	movff	?_DST_adjust,_hour
  1118   001000  C005  F055         	movff	?_DST_adjust+1,_hour+1
  1119   001004                     l4024:
  1120                           
  1121                           ;datetime.c: 89:     minute = (get16bitTMR0val()*60)/255;
  1122   001004  EC0F  F010         	call	_get16bitTMR0val	;wreg free
  1123   001008  C004  F008         	movff	?_get16bitTMR0val,___wmul@multiplier
  1124   00100C  C005  F009         	movff	?_get16bitTMR0val+1,___wmul@multiplier+1
  1125   001010  0E00               	movlw	0
  1126   001012  6E0B               	movwf	(___wmul@multiplicand+1)^0,c
  1127   001014  0E3C               	movlw	60
  1128   001016  6E0A               	movwf	___wmul@multiplicand^0,c
  1129   001018  ECC9  F00F         	call	___wmul	;wreg free
  1130   00101C  C008  F00E         	movff	?___wmul,___lwdiv@dividend
  1131   001020  C009  F00F         	movff	?___wmul+1,___lwdiv@dividend+1
  1132   001024  0E00               	movlw	0
  1133   001026  6E11               	movwf	(___lwdiv@divisor+1)^0,c
  1134   001028  6810               	setf	___lwdiv@divisor^0,c
  1135   00102A  ECDE  F00D         	call	___lwdiv	;wreg free
  1136   00102E  C00E  F058         	movff	?___lwdiv,_minute
  1137   001032  C00F  F059         	movff	?___lwdiv+1,_minute+1
  1138   001036                     
  1139                           ;datetime.c: 91:     LCD_setline(2);
  1140   001036  0E02               	movlw	2
  1141   001038  EC1B  F00F         	call	_LCD_setline
  1142   00103C                     
  1143                           ;datetime.c: 92:     sprintf(timeString,"%02d %02d %02d %02d %04d",minute,hour,day,month
      +                          ,year);
  1144   00103C  0EA4               	movlw	low _timeString
  1145   00103E  6E32               	movwf	sprintf@s^0,c
  1146   001040  0E41               	movlw	low STR_3
  1147   001042  6E33               	movwf	sprintf@fmt^0,c
  1148   001044  C058  F034         	movff	_minute,?_sprintf+2
  1149   001048  C059  F035         	movff	_minute+1,?_sprintf+3
  1150   00104C  C054  F036         	movff	_hour,?_sprintf+4
  1151   001050  C055  F037         	movff	_hour+1,?_sprintf+5
  1152   001054  C052  F038         	movff	_day,?_sprintf+6
  1153   001058  C053  F039         	movff	_day+1,?_sprintf+7
  1154   00105C  C04E  F03A         	movff	_month,?_sprintf+8
  1155   001060  C04F  F03B         	movff	_month+1,?_sprintf+9
  1156   001064  C04C  F03C         	movff	_year,?_sprintf+10
  1157   001068  C04D  F03D         	movff	_year+1,?_sprintf+11
  1158   00106C  EC55  F00F         	call	_sprintf	;wreg free
  1159   001070                     
  1160                           ;datetime.c: 93:     LCD_sendstring(timeString);
  1161   001070  0EA4               	movlw	low _timeString
  1162   001072  6E07               	movwf	LCD_sendstring@string^0,c
  1163   001074  EC89  F00F         	call	_LCD_sendstring	;wreg free
  1164   001078  0012               	return		;funcret
  1165   00107A                     __end_of_disp_time:
  1166                           	callstack 0
  1167                           
  1168 ;; *************** function _sprintf *****************
  1169 ;; Defined at:
  1170 ;;		line 9 in file "C:\Program Files\Microchip\xc8\v2.45\pic\sources\c99\common\nf_sprintf.c"
  1171 ;; Parameters:    Size  Location     Type
  1172 ;;  s               1   49[COMRAM] PTR unsigned char 
  1173 ;;		 -> main@lightString(4), timeString(10), lightString(10), 
  1174 ;;  fmt             1   50[COMRAM] PTR const unsigned char 
  1175 ;;		 -> STR_4(5), STR_3(25), STR_2(10), STR_1(8), 
  1176 ;; Auto vars:     Size  Location     Type
  1177 ;;  f              12   62[COMRAM] struct _IO_FILE
  1178 ;;  ret             2    0        int 
  1179 ;;  ap              1   61[COMRAM] PTR void [1]
  1180 ;;		 -> ?_sprintf(2), 
  1181 ;; Return value:  Size  Location     Type
  1182 ;;                  2   49[COMRAM] int 
  1183 ;; Registers used:
  1184 ;;		wreg, fsr1l, fsr1h, fsr2l, fsr2h, status,2, status,0, tblptrl, tblptrh, tblptru, prodl, prodh, cstack
  1185 ;; Tracked objects:
  1186 ;;		On entry : 0/0
  1187 ;;		On exit  : 0/0
  1188 ;;		Unchanged: 0/0
  1189 ;; Data sizes:     COMRAM   BANK0   BANK1   BANK2   BANK3   BANK4   BANK5   BANK6   BANK7   BANK8   BANK9  BANK10  BANK1
      +1  BANK12  BANK13
  1190 ;;      Params:        12       0       0       0       0       0       0       0       0       0       0       0       
      +0       0       0
  1191 ;;      Locals:        13       0       0       0       0       0       0       0       0       0       0       0       
      +0       0       0
  1192 ;;      Temps:          0       0       0       0       0       0       0       0       0       0       0       0       
      +0       0       0
  1193 ;;      Totals:        25       0       0       0       0       0       0       0       0       0       0       0       
      +0       0       0
  1194 ;;Total ram usage:       25 bytes
  1195 ;; Hardware stack levels used: 1
  1196 ;; Hardware stack levels required when called: 9
  1197 ;; This function calls:
  1198 ;;		_vfprintf
  1199 ;; This function is called by:
  1200 ;;		_disp_time
  1201 ;;		_main
  1202 ;;		_ADC2String
  1203 ;;		_Callibrate
  1204 ;; This function uses a non-reentrant model
  1205 ;;
  1206                           
  1207                           	psect	text2
  1208   001EAA                     __ptext2:
  1209                           	callstack 0
  1210   001EAA                     _sprintf:
  1211                           	callstack 21
  1212   001EAA  0E34               	movlw	low (?_sprintf+2)
  1213   001EAC  6E3E               	movwf	sprintf@ap^0,c
  1214   001EAE  C032  F03F         	movff	sprintf@s,sprintf@f
  1215   001EB2  0E00               	movlw	0
  1216   001EB4  6E43               	movwf	(sprintf@f+4)^0,c
  1217   001EB6  0E00               	movlw	0
  1218   001EB8  6E42               	movwf	(sprintf@f+3)^0,c
  1219   001EBA  0E00               	movlw	0
  1220   001EBC  6E4A               	movwf	(sprintf@f+11)^0,c
  1221   001EBE  0E00               	movlw	0
  1222   001EC0  6E49               	movwf	(sprintf@f+10)^0,c
  1223   001EC2  0E3F               	movlw	low sprintf@f
  1224   001EC4  6E2E               	movwf	vfprintf@fp^0,c
  1225   001EC6  C033  F02F         	movff	sprintf@fmt,vfprintf@fmt
  1226   001ECA  0E3E               	movlw	low sprintf@ap
  1227   001ECC  6E30               	movwf	vfprintf@ap^0,c
  1228   001ECE  ECDC  F00E         	call	_vfprintf	;wreg free
  1229   001ED2  5032               	movf	sprintf@s^0,w,c
  1230   001ED4  2442               	addwf	(sprintf@f+3)^0,w,c
  1231   001ED6  6ED9               	movwf	fsr2l,c
  1232   001ED8  6ADA               	clrf	fsr2h,c
  1233   001EDA  6ADF               	clrf	indf2,c
  1234   001EDC  0012               	return		;funcret
  1235   001EDE                     __end_of_sprintf:
  1236                           	callstack 0
  1237                           
  1238 ;; *************** function _vfprintf *****************
  1239 ;; Defined at:
  1240 ;;		line 1817 in file "C:\Program Files\Microchip\xc8\v2.45\pic\sources\c99\common\doprnt.c"
  1241 ;; Parameters:    Size  Location     Type
  1242 ;;  fp              1   45[COMRAM] PTR struct _IO_FILE
  1243 ;;		 -> sprintf@f(12), 
  1244 ;;  fmt             1   46[COMRAM] PTR const unsigned char 
  1245 ;;		 -> STR_4(5), STR_3(25), STR_2(10), STR_1(8), 
  1246 ;;  ap              1   47[COMRAM] PTR PTR void 
  1247 ;;		 -> sprintf@ap(1), 
  1248 ;; Auto vars:     Size  Location     Type
  1249 ;;  cfmt            1   48[COMRAM] PTR unsigned char 
  1250 ;;		 -> STR_4(5), STR_3(25), STR_2(10), STR_1(8), 
  1251 ;; Return value:  Size  Location     Type
  1252 ;;                  2   45[COMRAM] int 
  1253 ;; Registers used:
  1254 ;;		wreg, fsr1l, fsr1h, fsr2l, fsr2h, status,2, status,0, tblptrl, tblptrh, tblptru, prodl, prodh, cstack
  1255 ;; Tracked objects:
  1256 ;;		On entry : 0/0
  1257 ;;		On exit  : 0/0
  1258 ;;		Unchanged: 0/0
  1259 ;; Data sizes:     COMRAM   BANK0   BANK1   BANK2   BANK3   BANK4   BANK5   BANK6   BANK7   BANK8   BANK9  BANK10  BANK1
      +1  BANK12  BANK13
  1260 ;;      Params:         3       0       0       0       0       0       0       0       0       0       0       0       
      +0       0       0
  1261 ;;      Locals:         1       0       0       0       0       0       0       0       0       0       0       0       
      +0       0       0
  1262 ;;      Temps:          0       0       0       0       0       0       0       0       0       0       0       0       
      +0       0       0
  1263 ;;      Totals:         4       0       0       0       0       0       0       0       0       0       0       0       
      +0       0       0
  1264 ;;Total ram usage:        4 bytes
  1265 ;; Hardware stack levels used: 1
  1266 ;; Hardware stack levels required when called: 8
  1267 ;; This function calls:
  1268 ;;		_vfpfcnvrt
  1269 ;; This function is called by:
  1270 ;;		_sprintf
  1271 ;; This function uses a non-reentrant model
  1272 ;;
  1273                           
  1274                           	psect	text3
  1275   001DB8                     __ptext3:
  1276                           	callstack 0
  1277   001DB8                     _vfprintf:
  1278                           	callstack 21
  1279   001DB8                     
  1280                           ;C:\Program Files\Microchip\xc8\v2.45\pic\sources\c99\common\doprnt.c: 1817: int vfprint
      +                          f(FILE *fp, const char *fmt, va_list ap);C:\Program Files\Microchip\xc8\v2.45\pic\source
      +                          s\c99\common\doprnt.c: 1818: {;C:\Program Files\Microchip\xc8\v2.45\pic\sources\c99\comm
      +                          on\doprnt.c: 1820:     char *cfmt;;C:\Program Files\Microchip\xc8\v2.45\pic\sources\c99\
      +                          common\doprnt.c: 1822:     cfmt = (char *)fmt;
  1281   001DB8  C02F  F031         	movff	vfprintf@fmt,vfprintf@cfmt
  1282                           
  1283                           ;C:\Program Files\Microchip\xc8\v2.45\pic\sources\c99\common\doprnt.c: 1826:     while (
      +                          *cfmt) {
  1284   001DBC  EFE8  F00E         	goto	l3742
  1285   001DC0                     l3740:
  1286                           
  1287                           ;C:\Program Files\Microchip\xc8\v2.45\pic\sources\c99\common\doprnt.c: 1830:    vfpfcnvr
      +                          t(fp, &cfmt, ap);
  1288   001DC0  C02E  F023         	movff	vfprintf@fp,vfpfcnvrt@fp
  1289   001DC4  0E31               	movlw	low vfprintf@cfmt
  1290   001DC6  6E24               	movwf	vfpfcnvrt@fmt^0,c
  1291   001DC8  C030  F025         	movff	vfprintf@ap,vfpfcnvrt@ap
  1292   001DCC  EC04  F009         	call	_vfpfcnvrt	;wreg free
  1293   001DD0                     l3742:
  1294                           
  1295                           ;C:\Program Files\Microchip\xc8\v2.45\pic\sources\c99\common\doprnt.c: 1826:     while (
      +                          *cfmt) {
  1296   001DD0  C031  FFF6         	movff	vfprintf@cfmt,tblptrl
  1297   001DD4                     	if	1	;There is more than 1 active tblptr byte
  1298   001DD4  0E0E               	movlw	high __smallconst
  1299   001DD6  6EF7               	movwf	tblptrh,c
  1300   001DD8                     	endif
  1301   001DD8                     	if	0	;tblptru may be non-zero
  1302   001DD8                     	endif
  1303   001DD8                     	if	1	;Program memory is > 0xFFFF, there are 3 active tblptr bytes
  1304   001DD8  0E00               	movlw	low (__smallconst shr (0+16))
  1305   001DDA  6EF8               	movwf	tblptru,c
  1306   001DDC                     	endif
  1307   001DDC  0008               	tblrd		*
  1308   001DDE  50F5               	movf	tablat,w,c
  1309   001DE0  0900               	iorlw	0
  1310   001DE2  A4D8               	btfss	status,2,c
  1311   001DE4  EFF6  F00E         	goto	u3941
  1312   001DE8  EFF8  F00E         	goto	u3940
  1313   001DEC                     u3941:
  1314   001DEC  EFE0  F00E         	goto	l3740
  1315   001DF0                     u3940:
  1316   001DF0                     
  1317                           ;C:\Program Files\Microchip\xc8\v2.45\pic\sources\c99\common\doprnt.c: 1835:  return 0;
  1318   001DF0  0E00               	movlw	0
  1319   001DF2  6E2F               	movwf	(?_vfprintf+1)^0,c
  1320   001DF4  0E00               	movlw	0
  1321   001DF6  6E2E               	movwf	?_vfprintf^0,c
  1322   001DF8  0012               	return		;funcret
  1323   001DFA                     __end_of_vfprintf:
  1324                           	callstack 0
  1325                           
  1326 ;; *************** function _vfpfcnvrt *****************
  1327 ;; Defined at:
  1328 ;;		line 1177 in file "C:\Program Files\Microchip\xc8\v2.45\pic\sources\c99\common\doprnt.c"
  1329 ;; Parameters:    Size  Location     Type
  1330 ;;  fp              1   34[COMRAM] PTR struct _IO_FILE
  1331 ;;		 -> sprintf@f(12), 
  1332 ;;  fmt             1   35[COMRAM] PTR PTR unsigned char 
  1333 ;;		 -> vfprintf@cfmt(1), 
  1334 ;;  ap              1   36[COMRAM] PTR PTR void 
  1335 ;;		 -> sprintf@ap(1), 
  1336 ;; Auto vars:     Size  Location     Type
  1337 ;;  convarg         4   39[COMRAM] struct .
  1338 ;;  cp              1   44[COMRAM] PTR unsigned char 
  1339 ;;		 -> STR_4(5), STR_3(25), STR_2(10), STR_1(8), 
  1340 ;;  done            1   43[COMRAM] _Bool 
  1341 ;;  c               1    0        unsigned char 
  1342 ;; Return value:  Size  Location     Type
  1343 ;;                  1    wreg      void 
  1344 ;; Registers used:
  1345 ;;		wreg, fsr1l, fsr1h, fsr2l, fsr2h, status,2, status,0, tblptrl, tblptrh, tblptru, prodl, prodh, cstack
  1346 ;; Tracked objects:
  1347 ;;		On entry : 0/0
  1348 ;;		On exit  : 0/0
  1349 ;;		Unchanged: 0/0
  1350 ;; Data sizes:     COMRAM   BANK0   BANK1   BANK2   BANK3   BANK4   BANK5   BANK6   BANK7   BANK8   BANK9  BANK10  BANK1
      +1  BANK12  BANK13
  1351 ;;      Params:         3       0       0       0       0       0       0       0       0       0       0       0       
      +0       0       0
  1352 ;;      Locals:         6       0       0       0       0       0       0       0       0       0       0       0       
      +0       0       0
  1353 ;;      Temps:          2       0       0       0       0       0       0       0       0       0       0       0       
      +0       0       0
  1354 ;;      Totals:        11       0       0       0       0       0       0       0       0       0       0       0       
      +0       0       0
  1355 ;;Total ram usage:       11 bytes
  1356 ;; Hardware stack levels used: 1
  1357 ;; Hardware stack levels required when called: 7
  1358 ;; This function calls:
  1359 ;;		_dtoa
  1360 ;;		_fputc
  1361 ;;		_read_prec_or_width
  1362 ;; This function is called by:
  1363 ;;		_vfprintf
  1364 ;; This function uses a non-reentrant model
  1365 ;;
  1366                           
  1367                           	psect	text4
  1368   001208                     __ptext4:
  1369                           	callstack 0
  1370   001208                     _vfpfcnvrt:
  1371                           	callstack 21
  1372   001208                     
  1373                           ;C:\Program Files\Microchip\xc8\v2.45\pic\sources\c99\common\doprnt.c: 1177: vfpfcnvrt(F
      +                          ILE *fp, char *fmt[], va_list ap);C:\Program Files\Microchip\xc8\v2.45\pic\sources\c99\c
      +                          ommon\doprnt.c: 1178: {;C:\Program Files\Microchip\xc8\v2.45\pic\sources\c99\common\dopr
      +                          nt.c: 1179:     char c, *cp;;C:\Program Files\Microchip\xc8\v2.45\pic\sources\c99\common
      +                          \doprnt.c: 1180:     _Bool done;;C:\Program Files\Microchip\xc8\v2.45\pic\sources\c99\co
      +                          mmon\doprnt.c: 1188:  } convarg;;C:\Program Files\Microchip\xc8\v2.45\pic\sources\c99\co
      +                          mmon\doprnt.c: 1201:     if ((*fmt)[0] == '%') {
  1374   001208  5024               	movf	vfpfcnvrt@fmt^0,w,c
  1375   00120A  6ED9               	movwf	fsr2l,c
  1376   00120C  6ADA               	clrf	fsr2h,c
  1377   00120E  CFDF FFF6          	movff	indf2,tblptrl
  1378   001212                     	if	1	;There is more than 1 active tblptr byte
  1379   001212  0E0E               	movlw	high __smallconst
  1380   001214  6EF7               	movwf	tblptrh,c
  1381   001216                     	endif
  1382   001216                     	if	0	;tblptru may be non-zero
  1383   001216                     	endif
  1384   001216                     	if	1	;Program memory is > 0xFFFF, there are 3 active tblptr bytes
  1385   001216  0E00               	movlw	low (__smallconst shr (0+16))
  1386   001218  6EF8               	movwf	tblptru,c
  1387   00121A                     	endif
  1388   00121A  0008               	tblrd		*
  1389   00121C  50F5               	movf	tablat,w,c
  1390   00121E  0A25               	xorlw	37
  1391   001220  A4D8               	btfss	status,2,c
  1392   001222  EF15  F009         	goto	u3761
  1393   001226  EF17  F009         	goto	u3760
  1394   00122A                     u3761:
  1395   00122A  EFB2  F009         	goto	l3682
  1396   00122E                     u3760:
  1397   00122E                     
  1398                           ;C:\Program Files\Microchip\xc8\v2.45\pic\sources\c99\common\doprnt.c: 1202:         ++*
      +                          fmt;
  1399   00122E  5024               	movf	vfpfcnvrt@fmt^0,w,c
  1400   001230  6ED9               	movwf	fsr2l,c
  1401   001232  6ADA               	clrf	fsr2h,c
  1402   001234  2ADF               	incf	indf2,f,c
  1403   001236                     
  1404                           ;C:\Program Files\Microchip\xc8\v2.45\pic\sources\c99\common\doprnt.c: 1204:         fla
      +                          gs = width = 0;
  1405   001236  0E00               	movlw	0
  1406   001238  6E57               	movwf	(_width+1)^0,c
  1407   00123A  0E00               	movlw	0
  1408   00123C  6E56               	movwf	_width^0,c
  1409   00123E  C056  F05A         	movff	_width,_flags
  1410   001242                     
  1411                           ;C:\Program Files\Microchip\xc8\v2.45\pic\sources\c99\common\doprnt.c: 1205:         pre
      +                          c = -1;
  1412   001242  0100               	movlb	0	; () banked
  1413   001244  6968               	setf	_prec& (0+255),b
  1414   001246  6969               	setf	(_prec+1)& (0+255),b
  1415   001248                     
  1416                           ; BSR set to: 0
  1417                           ;C:\Program Files\Microchip\xc8\v2.45\pic\sources\c99\common\doprnt.c: 1209:         don
      +                          e = 0;
  1418   001248  0E00               	movlw	0
  1419   00124A  6E2C               	movwf	vfpfcnvrt@done^0,c
  1420                           
  1421                           ;C:\Program Files\Microchip\xc8\v2.45\pic\sources\c99\common\doprnt.c: 1210:         whi
      +                          le (!done) {
  1422   00124C  EF4E  F009         	goto	l3656
  1423   001250                     l3646:
  1424                           
  1425                           ;C:\Program Files\Microchip\xc8\v2.45\pic\sources\c99\common\doprnt.c: 1220:            
      +                                   flags |= (1 << 1);
  1426   001250  825A               	bsf	_flags^0,1,c
  1427   001252                     
  1428                           ;C:\Program Files\Microchip\xc8\v2.45\pic\sources\c99\common\doprnt.c: 1221:            
      +                                   ++*fmt;
  1429   001252  5024               	movf	vfpfcnvrt@fmt^0,w,c
  1430   001254  6ED9               	movwf	fsr2l,c
  1431   001256  6ADA               	clrf	fsr2h,c
  1432   001258  2ADF               	incf	indf2,f,c
  1433                           
  1434                           ;C:\Program Files\Microchip\xc8\v2.45\pic\sources\c99\common\doprnt.c: 1222:            
      +                                   break;
  1435   00125A  EF4E  F009         	goto	l3656
  1436   00125E                     l3650:
  1437                           
  1438                           ;C:\Program Files\Microchip\xc8\v2.45\pic\sources\c99\common\doprnt.c: 1243:            
      +                                   done = 1;
  1439   00125E  0E01               	movlw	1
  1440   001260  6E2C               	movwf	vfpfcnvrt@done^0,c
  1441                           
  1442                           ;C:\Program Files\Microchip\xc8\v2.45\pic\sources\c99\common\doprnt.c: 1244:            
      +                                   break;
  1443   001262  EF4E  F009         	goto	l3656
  1444   001266                     l3654:
  1445   001266  5024               	movf	vfpfcnvrt@fmt^0,w,c
  1446   001268  6ED9               	movwf	fsr2l,c
  1447   00126A  6ADA               	clrf	fsr2h,c
  1448   00126C  CFDF FFF6          	movff	indf2,tblptrl
  1449   001270                     	if	1	;There is more than 1 active tblptr byte
  1450   001270  0E0E               	movlw	high __smallconst
  1451   001272  6EF7               	movwf	tblptrh,c
  1452   001274                     	endif
  1453   001274                     	if	0	;tblptru may be non-zero
  1454   001274                     	endif
  1455   001274                     	if	1	;Program memory is > 0xFFFF, there are 3 active tblptr bytes
  1456   001274  0E00               	movlw	low (__smallconst shr (0+16))
  1457   001276  6EF8               	movwf	tblptru,c
  1458   001278                     	endif
  1459   001278  0008               	tblrd		*
  1460   00127A  50F5               	movf	tablat,w,c
  1461   00127C  6E26               	movwf	??_vfpfcnvrt^0,c
  1462   00127E  6A27               	clrf	(??_vfpfcnvrt+1)^0,c
  1463                           
  1464                           ; Switch on 2 bytes has been partitioned into a top level switch of size 1, and 1 sub-sw
      +                          itches
  1465                           ; Switch size 1, requested type "simple"
  1466                           ; Number of cases is 1, Range of values is 0 to 0
  1467                           ; switch strategies available:
  1468                           ; Name         Instructions Cycles
  1469                           ; simple_byte            4     3 (average)
  1470                           ;	Chosen strategy is simple_byte
  1471   001280  5027               	movf	(??_vfpfcnvrt+1)^0,w,c
  1472   001282  0A00               	xorlw	0	; case 0
  1473   001284  B4D8               	btfsc	status,2,c
  1474   001286  EF47  F009         	goto	l4160
  1475   00128A  EF2F  F009         	goto	l3650
  1476   00128E                     l4160:
  1477                           
  1478                           ; Switch size 1, requested type "simple"
  1479                           ; Number of cases is 1, Range of values is 48 to 48
  1480                           ; switch strategies available:
  1481                           ; Name         Instructions Cycles
  1482                           ; simple_byte            4     3 (average)
  1483                           ;	Chosen strategy is simple_byte
  1484   00128E  5026               	movf	??_vfpfcnvrt^0,w,c
  1485   001290  0A30               	xorlw	48	; case 48
  1486   001292  B4D8               	btfsc	status,2,c
  1487   001294  EF28  F009         	goto	l3646
  1488   001298  EF2F  F009         	goto	l3650
  1489   00129C                     l3656:
  1490                           
  1491                           ;C:\Program Files\Microchip\xc8\v2.45\pic\sources\c99\common\doprnt.c: 1210:         whi
      +                          le (!done) {
  1492   00129C  502C               	movf	vfpfcnvrt@done^0,w,c
  1493   00129E  B4D8               	btfsc	status,2,c
  1494   0012A0  EF54  F009         	goto	u3771
  1495   0012A4  EF56  F009         	goto	u3770
  1496   0012A8                     u3771:
  1497   0012A8  EF33  F009         	goto	l3654
  1498   0012AC                     u3770:
  1499   0012AC                     
  1500                           ;C:\Program Files\Microchip\xc8\v2.45\pic\sources\c99\common\doprnt.c: 1256:   width = r
      +                          ead_prec_or_width(fmt, ap);
  1501   0012AC  C024  F00E         	movff	vfpfcnvrt@fmt,read_prec_or_width@fmt
  1502   0012B0  C025  F00F         	movff	vfpfcnvrt@ap,read_prec_or_width@ap
  1503   0012B4  EC19  F00C         	call	_read_prec_or_width	;wreg free
  1504   0012B8  C00E  F056         	movff	?_read_prec_or_width,_width
  1505   0012BC  C00F  F057         	movff	?_read_prec_or_width+1,_width+1
  1506   0012C0                     
  1507                           ;C:\Program Files\Microchip\xc8\v2.45\pic\sources\c99\common\doprnt.c: 1257:   if (width
      +                           < 0) {
  1508   0012C0  BE57               	btfsc	(_width+1)^0,7,c
  1509   0012C2  EF67  F009         	goto	u3780
  1510   0012C6  EF65  F009         	goto	u3781
  1511   0012CA                     u3781:
  1512   0012CA  EF6C  F009         	goto	l3664
  1513   0012CE                     u3780:
  1514   0012CE                     
  1515                           ;C:\Program Files\Microchip\xc8\v2.45\pic\sources\c99\common\doprnt.c: 1258:    flags |=
      +                           (1 << 0);
  1516   0012CE  805A               	bsf	_flags^0,0,c
  1517                           
  1518                           ;C:\Program Files\Microchip\xc8\v2.45\pic\sources\c99\common\doprnt.c: 1259:    width = 
      +                          -width;
  1519   0012D0  6C56               	negf	_width^0,c
  1520   0012D2  1E57               	comf	(_width+1)^0,f,c
  1521   0012D4  B0D8               	btfsc	status,0,c
  1522   0012D6  2A57               	incf	(_width+1)^0,f,c
  1523   0012D8                     l3664:
  1524                           
  1525                           ;C:\Program Files\Microchip\xc8\v2.45\pic\sources\c99\common\doprnt.c: 1291:   cp = *fmt
      +                          ;
  1526   0012D8  5024               	movf	vfpfcnvrt@fmt^0,w,c
  1527   0012DA  6ED9               	movwf	fsr2l,c
  1528   0012DC  6ADA               	clrf	fsr2h,c
  1529   0012DE  50DF               	movf	indf2,w,c
  1530   0012E0  6E2D               	movwf	vfpfcnvrt@cp^0,c
  1531   0012E2                     
  1532                           ;C:\Program Files\Microchip\xc8\v2.45\pic\sources\c99\common\doprnt.c: 1361:   if (*cp =
      +                          = 'd' || *cp == 'i') {
  1533   0012E2  C02D  FFF6         	movff	vfpfcnvrt@cp,tblptrl
  1534   0012E6                     	if	1	;There is more than 1 active tblptr byte
  1535   0012E6  0E0E               	movlw	high __smallconst
  1536   0012E8  6EF7               	movwf	tblptrh,c
  1537   0012EA                     	endif
  1538   0012EA                     	if	0	;tblptru may be non-zero
  1539   0012EA                     	endif
  1540   0012EA                     	if	1	;Program memory is > 0xFFFF, there are 3 active tblptr bytes
  1541   0012EA  0E00               	movlw	low (__smallconst shr (0+16))
  1542   0012EC  6EF8               	movwf	tblptru,c
  1543   0012EE                     	endif
  1544   0012EE  0008               	tblrd		*
  1545   0012F0  50F5               	movf	tablat,w,c
  1546   0012F2  0A64               	xorlw	100
  1547   0012F4  B4D8               	btfsc	status,2,c
  1548   0012F6  EF7F  F009         	goto	u3791
  1549   0012FA  EF81  F009         	goto	u3790
  1550   0012FE                     u3791:
  1551   0012FE  EF91  F009         	goto	l3670
  1552   001302                     u3790:
  1553   001302  C02D  FFF6         	movff	vfpfcnvrt@cp,tblptrl
  1554   001306                     	if	1	;There is more than 1 active tblptr byte
  1555   001306  0E0E               	movlw	high __smallconst
  1556   001308  6EF7               	movwf	tblptrh,c
  1557   00130A                     	endif
  1558   00130A                     	if	0	;tblptru may be non-zero
  1559   00130A                     	endif
  1560   00130A                     	if	1	;Program memory is > 0xFFFF, there are 3 active tblptr bytes
  1561   00130A  0E00               	movlw	low (__smallconst shr (0+16))
  1562   00130C  6EF8               	movwf	tblptru,c
  1563   00130E                     	endif
  1564   00130E  0008               	tblrd		*
  1565   001310  50F5               	movf	tablat,w,c
  1566   001312  0A69               	xorlw	105
  1567   001314  A4D8               	btfss	status,2,c
  1568   001316  EF8F  F009         	goto	u3801
  1569   00131A  EF91  F009         	goto	u3800
  1570   00131E                     u3801:
  1571   00131E  EFAC  F009         	goto	l3678
  1572   001322                     u3800:
  1573   001322                     l3670:
  1574                           
  1575                           ;C:\Program Files\Microchip\xc8\v2.45\pic\sources\c99\common\doprnt.c: 1404:    convarg.
      +                          sint = (vfpf_sint_t)(int)(*(int *)__va_arg(*(int **)ap, (int)0));
  1576   001322  5025               	movf	vfpfcnvrt@ap^0,w,c
  1577   001324  6ED9               	movwf	fsr2l,c
  1578   001326  6ADA               	clrf	fsr2h,c
  1579   001328  0E02               	movlw	2
  1580   00132A  26DF               	addwf	indf2,f,c
  1581   00132C  5CDF               	subwf	indf2,w,c
  1582   00132E  6ED9               	movwf	fsr2l,c
  1583   001330  6ADA               	clrf	fsr2h,c
  1584   001332  CFDE F028          	movff	postinc2,vfpfcnvrt@convarg
  1585   001336  CFDE F029          	movff	postinc2,vfpfcnvrt@convarg+1
  1586   00133A                     
  1587                           ;C:\Program Files\Microchip\xc8\v2.45\pic\sources\c99\common\doprnt.c: 1406:    *fmt = c
      +                          p+1;
  1588   00133A  5024               	movf	vfpfcnvrt@fmt^0,w,c
  1589   00133C  6ED9               	movwf	fsr2l,c
  1590   00133E  6ADA               	clrf	fsr2h,c
  1591   001340  282D               	incf	vfpfcnvrt@cp^0,w,c
  1592   001342  6EDF               	movwf	indf2,c
  1593   001344                     
  1594                           ;C:\Program Files\Microchip\xc8\v2.45\pic\sources\c99\common\doprnt.c: 1432:    return (
      +                          void) dtoa(fp, convarg.sint);;	Return value of _vfpfcnvrt is never used
  1595   001344  C023  F018         	movff	vfpfcnvrt@fp,dtoa@fp
  1596   001348  C028  F019         	movff	vfpfcnvrt@convarg,dtoa@d
  1597   00134C  C029  F01A         	movff	vfpfcnvrt@convarg+1,dtoa@d+1
  1598   001350  ECC6  F009         	call	_dtoa	;wreg free
  1599   001354  EFC5  F009         	goto	l1089
  1600   001358                     l3678:
  1601                           
  1602                           ;C:\Program Files\Microchip\xc8\v2.45\pic\sources\c99\common\doprnt.c: 1806:         ++*
      +                          fmt;
  1603   001358  5024               	movf	vfpfcnvrt@fmt^0,w,c
  1604   00135A  6ED9               	movwf	fsr2l,c
  1605   00135C  6ADA               	clrf	fsr2h,c
  1606   00135E  2ADF               	incf	indf2,f,c
  1607   001360  EFC5  F009         	goto	l1089
  1608   001364                     l3682:
  1609                           
  1610                           ;C:\Program Files\Microchip\xc8\v2.45\pic\sources\c99\common\doprnt.c: 1811:     fputc((
      +                          int)(*fmt)[0], fp);
  1611   001364  5024               	movf	vfpfcnvrt@fmt^0,w,c
  1612   001366  6ED9               	movwf	fsr2l,c
  1613   001368  6ADA               	clrf	fsr2h,c
  1614   00136A  CFDF FFF6          	movff	indf2,tblptrl
  1615   00136E                     	if	1	;There is more than 1 active tblptr byte
  1616   00136E  0E0E               	movlw	high __smallconst
  1617   001370  6EF7               	movwf	tblptrh,c
  1618   001372                     	endif
  1619   001372                     	if	0	;tblptru may be non-zero
  1620   001372                     	endif
  1621   001372                     	if	1	;Program memory is > 0xFFFF, there are 3 active tblptr bytes
  1622   001372  0E00               	movlw	low (__smallconst shr (0+16))
  1623   001374  6EF8               	movwf	tblptru,c
  1624   001376                     	endif
  1625   001376  0008               	tblrd		*
  1626   001378  50F5               	movf	tablat,w,c
  1627   00137A  6E04               	movwf	fputc@c^0,c
  1628   00137C  6A05               	clrf	(fputc@c+1)^0,c
  1629   00137E  C023  F006         	movff	vfpfcnvrt@fp,fputc@fp
  1630   001382  EC70  F00C         	call	_fputc	;wreg free
  1631   001386  EFAC  F009         	goto	l3678
  1632   00138A                     l1089:
  1633   00138A  0012               	return		;funcret
  1634   00138C                     __end_of_vfpfcnvrt:
  1635                           	callstack 0
  1636                           
  1637 ;; *************** function _read_prec_or_width *****************
  1638 ;; Defined at:
  1639 ;;		line 1158 in file "C:\Program Files\Microchip\xc8\v2.45\pic\sources\c99\common\doprnt.c"
  1640 ;; Parameters:    Size  Location     Type
  1641 ;;  fmt             1   13[COMRAM] PTR PTR const unsigned c
  1642 ;;		 -> vfprintf@cfmt(1), 
  1643 ;;  ap              1   14[COMRAM] PTR PTR void [1]
  1644 ;;		 -> sprintf@ap(1), 
  1645 ;; Auto vars:     Size  Location     Type
  1646 ;;  c               1   15[COMRAM] unsigned char 
  1647 ;;  n               2   16[COMRAM] int 
  1648 ;; Return value:  Size  Location     Type
  1649 ;;                  2   13[COMRAM] int 
  1650 ;; Registers used:
  1651 ;;		wreg, fsr2l, fsr2h, status,2, status,0, tblptrl, tblptrh, tblptru, prodl, prodh, cstack
  1652 ;; Tracked objects:
  1653 ;;		On entry : 0/0
  1654 ;;		On exit  : 0/0
  1655 ;;		Unchanged: 0/0
  1656 ;; Data sizes:     COMRAM   BANK0   BANK1   BANK2   BANK3   BANK4   BANK5   BANK6   BANK7   BANK8   BANK9  BANK10  BANK1
      +1  BANK12  BANK13
  1657 ;;      Params:         2       0       0       0       0       0       0       0       0       0       0       0       
      +0       0       0
  1658 ;;      Locals:         3       0       0       0       0       0       0       0       0       0       0       0       
      +0       0       0
  1659 ;;      Temps:          0       0       0       0       0       0       0       0       0       0       0       0       
      +0       0       0
  1660 ;;      Totals:         5       0       0       0       0       0       0       0       0       0       0       0       
      +0       0       0
  1661 ;;Total ram usage:        5 bytes
  1662 ;; Hardware stack levels used: 1
  1663 ;; Hardware stack levels required when called: 3
  1664 ;; This function calls:
  1665 ;;		___wmul
  1666 ;; This function is called by:
  1667 ;;		_vfpfcnvrt
  1668 ;; This function uses a non-reentrant model
  1669 ;;
  1670                           
  1671                           	psect	text5
  1672   001832                     __ptext5:
  1673                           	callstack 0
  1674   001832                     _read_prec_or_width:
  1675                           	callstack 24
  1676   001832                     
  1677                           ;C:\Program Files\Microchip\xc8\v2.45\pic\sources\c99\common\doprnt.c: 1159:     int n =
      +                           0;
  1678   001832  0E00               	movlw	0
  1679   001834  6E12               	movwf	(read_prec_or_width@n+1)^0,c
  1680   001836  0E00               	movlw	0
  1681   001838  6E11               	movwf	read_prec_or_width@n^0,c
  1682   00183A                     
  1683                           ;C:\Program Files\Microchip\xc8\v2.45\pic\sources\c99\common\doprnt.c: 1160:     if ((*f
      +                          mt)[0] == '*') {
  1684   00183A  500E               	movf	read_prec_or_width@fmt^0,w,c
  1685   00183C  6ED9               	movwf	fsr2l,c
  1686   00183E  6ADA               	clrf	fsr2h,c
  1687   001840  CFDF FFF6          	movff	indf2,tblptrl
  1688   001844                     	if	1	;There is more than 1 active tblptr byte
  1689   001844  0E0E               	movlw	high __smallconst
  1690   001846  6EF7               	movwf	tblptrh,c
  1691   001848                     	endif
  1692   001848                     	if	0	;tblptru may be non-zero
  1693   001848                     	endif
  1694   001848                     	if	1	;Program memory is > 0xFFFF, there are 3 active tblptr bytes
  1695   001848  0E00               	movlw	low (__smallconst shr (0+16))
  1696   00184A  6EF8               	movwf	tblptru,c
  1697   00184C                     	endif
  1698   00184C  0008               	tblrd		*
  1699   00184E  50F5               	movf	tablat,w,c
  1700   001850  0A2A               	xorlw	42
  1701   001852  A4D8               	btfss	status,2,c
  1702   001854  EF2E  F00C         	goto	u3701
  1703   001858  EF30  F00C         	goto	u3700
  1704   00185C                     u3701:
  1705   00185C  EF56  F00C         	goto	l3614
  1706   001860                     u3700:
  1707   001860                     
  1708                           ;C:\Program Files\Microchip\xc8\v2.45\pic\sources\c99\common\doprnt.c: 1161:         ++*
      +                          fmt;
  1709   001860  500E               	movf	read_prec_or_width@fmt^0,w,c
  1710   001862  6ED9               	movwf	fsr2l,c
  1711   001864  6ADA               	clrf	fsr2h,c
  1712   001866  2ADF               	incf	indf2,f,c
  1713   001868                     
  1714                           ;C:\Program Files\Microchip\xc8\v2.45\pic\sources\c99\common\doprnt.c: 1162:         n =
      +                           (*(int *)__va_arg(*(int **)*ap, (int)0));
  1715   001868  500F               	movf	read_prec_or_width@ap^0,w,c
  1716   00186A  6ED9               	movwf	fsr2l,c
  1717   00186C  6ADA               	clrf	fsr2h,c
  1718   00186E  0E02               	movlw	2
  1719   001870  26DF               	addwf	indf2,f,c
  1720   001872  5CDF               	subwf	indf2,w,c
  1721   001874  6ED9               	movwf	fsr2l,c
  1722   001876  6ADA               	clrf	fsr2h,c
  1723   001878  CFDE F011          	movff	postinc2,read_prec_or_width@n
  1724   00187C  CFDE F012          	movff	postinc2,read_prec_or_width@n+1
  1725                           
  1726                           ;C:\Program Files\Microchip\xc8\v2.45\pic\sources\c99\common\doprnt.c: 1163:     } else 
      +                          {
  1727   001880  EF6B  F00C         	goto	l1070
  1728   001884                     l3610:
  1729                           
  1730                           ;C:\Program Files\Microchip\xc8\v2.45\pic\sources\c99\common\doprnt.c: 1166:            
      +                           n = n * 10 + c;
  1731   001884  C011  F008         	movff	read_prec_or_width@n,___wmul@multiplier
  1732   001888  C012  F009         	movff	read_prec_or_width@n+1,___wmul@multiplier+1
  1733   00188C  0E00               	movlw	0
  1734   00188E  6E0B               	movwf	(___wmul@multiplicand+1)^0,c
  1735   001890  0E0A               	movlw	10
  1736   001892  6E0A               	movwf	___wmul@multiplicand^0,c
  1737   001894  ECC9  F00F         	call	___wmul	;wreg free
  1738   001898  5010               	movf	read_prec_or_width@c^0,w,c
  1739   00189A  2408               	addwf	?___wmul^0,w,c
  1740   00189C  6E11               	movwf	read_prec_or_width@n^0,c
  1741   00189E  0E00               	movlw	0
  1742   0018A0  2009               	addwfc	(?___wmul+1)^0,w,c
  1743   0018A2  6E12               	movwf	(read_prec_or_width@n+1)^0,c
  1744   0018A4                     
  1745                           ;C:\Program Files\Microchip\xc8\v2.45\pic\sources\c99\common\doprnt.c: 1167:            
      +                           ++*fmt;
  1746   0018A4  500E               	movf	read_prec_or_width@fmt^0,w,c
  1747   0018A6  6ED9               	movwf	fsr2l,c
  1748   0018A8  6ADA               	clrf	fsr2h,c
  1749   0018AA  2ADF               	incf	indf2,f,c
  1750   0018AC                     l3614:
  1751                           
  1752                           ;C:\Program Files\Microchip\xc8\v2.45\pic\sources\c99\common\doprnt.c: 1165:         whi
      +                          le ((c = ((unsigned)(*fmt)[0]) - '0') < 10) {
  1753   0018AC  500E               	movf	read_prec_or_width@fmt^0,w,c
  1754   0018AE  6ED9               	movwf	fsr2l,c
  1755   0018B0  6ADA               	clrf	fsr2h,c
  1756   0018B2  CFDF FFF6          	movff	indf2,tblptrl
  1757   0018B6                     	if	1	;There is more than 1 active tblptr byte
  1758   0018B6  0E0E               	movlw	high __smallconst
  1759   0018B8  6EF7               	movwf	tblptrh,c
  1760   0018BA                     	endif
  1761   0018BA                     	if	0	;tblptru may be non-zero
  1762   0018BA                     	endif
  1763   0018BA                     	if	1	;Program memory is > 0xFFFF, there are 3 active tblptr bytes
  1764   0018BA  0E00               	movlw	low (__smallconst shr (0+16))
  1765   0018BC  6EF8               	movwf	tblptru,c
  1766   0018BE                     	endif
  1767   0018BE  0008               	tblrd		*
  1768   0018C0  50F5               	movf	tablat,w,c
  1769   0018C2  0FD0               	addlw	208
  1770   0018C4  6E10               	movwf	read_prec_or_width@c^0,c
  1771   0018C6  0E09               	movlw	9
  1772   0018C8  6410               	cpfsgt	read_prec_or_width@c^0,c
  1773   0018CA  EF69  F00C         	goto	u3711
  1774   0018CE  EF6B  F00C         	goto	u3710
  1775   0018D2                     u3711:
  1776   0018D2  EF42  F00C         	goto	l3610
  1777   0018D6                     u3710:
  1778   0018D6                     l1070:
  1779                           
  1780                           ;C:\Program Files\Microchip\xc8\v2.45\pic\sources\c99\common\doprnt.c: 1170:     return 
      +                          n;
  1781   0018D6  C011  F00E         	movff	read_prec_or_width@n,?_read_prec_or_width
  1782   0018DA  C012  F00F         	movff	read_prec_or_width@n+1,?_read_prec_or_width+1
  1783   0018DE  0012               	return		;funcret
  1784   0018E0                     __end_of_read_prec_or_width:
  1785                           	callstack 0
  1786                           
  1787 ;; *************** function _dtoa *****************
  1788 ;; Defined at:
  1789 ;;		line 513 in file "C:\Program Files\Microchip\xc8\v2.45\pic\sources\c99\common\doprnt.c"
  1790 ;; Parameters:    Size  Location     Type
  1791 ;;  fp              1   23[COMRAM] PTR struct _IO_FILE
  1792 ;;		 -> sprintf@f(12), 
  1793 ;;  d               2   24[COMRAM] int 
  1794 ;; Auto vars:     Size  Location     Type
  1795 ;;  i               2   32[COMRAM] int 
  1796 ;;  w               2   29[COMRAM] int 
  1797 ;;  s               1   31[COMRAM] unsigned char 
  1798 ;;  p               1   28[COMRAM] _Bool 
  1799 ;; Return value:  Size  Location     Type
  1800 ;;                  1    wreg      void 
  1801 ;; Registers used:
  1802 ;;		wreg, fsr1l, fsr1h, fsr2l, fsr2h, status,2, status,0, cstack
  1803 ;; Tracked objects:
  1804 ;;		On entry : 0/0
  1805 ;;		On exit  : 0/0
  1806 ;;		Unchanged: 0/0
  1807 ;; Data sizes:     COMRAM   BANK0   BANK1   BANK2   BANK3   BANK4   BANK5   BANK6   BANK7   BANK8   BANK9  BANK10  BANK1
      +1  BANK12  BANK13
  1808 ;;      Params:         3       0       0       0       0       0       0       0       0       0       0       0       
      +0       0       0
  1809 ;;      Locals:         8       0       0       0       0       0       0       0       0       0       0       0       
      +0       0       0
  1810 ;;      Temps:          0       0       0       0       0       0       0       0       0       0       0       0       
      +0       0       0
  1811 ;;      Totals:        11       0       0       0       0       0       0       0       0       0       0       0       
      +0       0       0
  1812 ;;Total ram usage:       11 bytes
  1813 ;; Hardware stack levels used: 1
  1814 ;; Hardware stack levels required when called: 6
  1815 ;; This function calls:
  1816 ;;		___awdiv
  1817 ;;		___awmod
  1818 ;;		_abs
  1819 ;;		_pad
  1820 ;; This function is called by:
  1821 ;;		_vfpfcnvrt
  1822 ;; This function uses a non-reentrant model
  1823 ;;
  1824                           
  1825                           	psect	text6
  1826   00138C                     __ptext6:
  1827                           	callstack 0
  1828   00138C                     _dtoa:
  1829                           	callstack 21
  1830   00138C                     
  1831                           ;C:\Program Files\Microchip\xc8\v2.45\pic\sources\c99\common\doprnt.c: 513: static void 
      +                          dtoa(FILE *fp, vfpf_sint_t d);C:\Program Files\Microchip\xc8\v2.45\pic\sources\c99\commo
      +                          n\doprnt.c: 514: {;C:\Program Files\Microchip\xc8\v2.45\pic\sources\c99\common\doprnt.c:
      +                           515:  char s;;C:\Program Files\Microchip\xc8\v2.45\pic\sources\c99\common\doprnt.c: 516
      +                          :     int i, w;;C:\Program Files\Microchip\xc8\v2.45\pic\sources\c99\common\doprnt.c: 52
      +                          0:  _Bool p = 1;
  1832   00138C  0E01               	movlw	1
  1833   00138E  6E1D               	movwf	dtoa@p^0,c
  1834   001390                     
  1835                           ;C:\Program Files\Microchip\xc8\v2.45\pic\sources\c99\common\doprnt.c: 524:     s = d < 
      +                          0 ? 1 : 0;
  1836   001390  BE1A               	btfsc	(dtoa@d+1)^0,7,c
  1837   001392  EFCD  F009         	goto	u3601
  1838   001396  EFD0  F009         	goto	u3600
  1839   00139A                     u3601:
  1840   00139A  0E01               	movlw	1
  1841   00139C  EFD1  F009         	goto	u3610
  1842   0013A0                     u3600:
  1843   0013A0  0E00               	movlw	0
  1844   0013A2                     u3610:
  1845   0013A2  6E20               	movwf	dtoa@s^0,c
  1846   0013A4                     
  1847                           ;C:\Program Files\Microchip\xc8\v2.45\pic\sources\c99\common\doprnt.c: 535:     w = widt
      +                          h;
  1848   0013A4  C056  F01E         	movff	_width,dtoa@w
  1849   0013A8  C057  F01F         	movff	_width+1,dtoa@w+1
  1850   0013AC                     
  1851                           ;C:\Program Files\Microchip\xc8\v2.45\pic\sources\c99\common\doprnt.c: 536:     if (s
  1852   0013AC  5020               	movf	dtoa@s^0,w,c
  1853   0013AE  B4D8               	btfsc	status,2,c
  1854   0013B0  EFDC  F009         	goto	u3621
  1855   0013B4  EFDE  F009         	goto	u3620
  1856   0013B8                     u3621:
  1857   0013B8  EFF5  F009         	goto	l1053
  1858   0013BC                     u3620:
  1859   0013BC                     
  1860                           ;C:\Program Files\Microchip\xc8\v2.45\pic\sources\c99\common\doprnt.c: 540:     ) {;C:\P
      +                          rogram Files\Microchip\xc8\v2.45\pic\sources\c99\common\doprnt.c: 541:         --w;
  1861   0013BC  061E               	decf	dtoa@w^0,f,c
  1862   0013BE  A0D8               	btfss	status,0,c
  1863   0013C0  061F               	decf	(dtoa@w+1)^0,f,c
  1864   0013C2                     
  1865                           ;C:\Program Files\Microchip\xc8\v2.45\pic\sources\c99\common\doprnt.c: 542:   s = s ? '-
      +                          ' : '+';
  1866   0013C2  5020               	movf	dtoa@s^0,w,c
  1867   0013C4  A4D8               	btfss	status,2,c
  1868   0013C6  EFE7  F009         	goto	u3631
  1869   0013CA  EFE9  F009         	goto	u3630
  1870   0013CE                     u3631:
  1871   0013CE  EFEF  F009         	goto	l3566
  1872   0013D2                     u3630:
  1873   0013D2  0E00               	movlw	0
  1874   0013D4  6E1C               	movwf	(_dtoa$2134+1)^0,c
  1875   0013D6  0E2B               	movlw	43
  1876   0013D8  6E1B               	movwf	_dtoa$2134^0,c
  1877   0013DA  EFF3  F009         	goto	l3568
  1878   0013DE                     l3566:
  1879   0013DE  0E00               	movlw	0
  1880   0013E0  6E1C               	movwf	(_dtoa$2134+1)^0,c
  1881   0013E2  0E2D               	movlw	45
  1882   0013E4  6E1B               	movwf	_dtoa$2134^0,c
  1883   0013E6                     l3568:
  1884   0013E6  C01B  F020         	movff	_dtoa$2134,dtoa@s
  1885   0013EA                     l1053:
  1886                           
  1887                           ;C:\Program Files\Microchip\xc8\v2.45\pic\sources\c99\common\doprnt.c: 552:     i = size
      +                          of(dbuf) - 1;
  1888   0013EA  0E00               	movlw	0
  1889   0013EC  6E22               	movwf	(dtoa@i+1)^0,c
  1890   0013EE  0E1F               	movlw	31
  1891   0013F0  6E21               	movwf	dtoa@i^0,c
  1892   0013F2                     
  1893                           ;C:\Program Files\Microchip\xc8\v2.45\pic\sources\c99\common\doprnt.c: 553:     dbuf[i] 
      +                          = '\0';
  1894   0013F2  0E00               	movlw	0
  1895   0013F4  0100               	movlb	0	; () banked
  1896   0013F6  6F99               	movwf	(_dbuf+31)& (0+255),b
  1897                           
  1898                           ;C:\Program Files\Microchip\xc8\v2.45\pic\sources\c99\common\doprnt.c: 554:     while (!
      +                          (i < 1) && (d != 0
  1899   0013F8  EF2B  F00A         	goto	l3582
  1900   0013FC                     l3572:
  1901                           
  1902                           ;C:\Program Files\Microchip\xc8\v2.45\pic\sources\c99\common\doprnt.c: 563:     )) {;C:\
      +                          Program Files\Microchip\xc8\v2.45\pic\sources\c99\common\doprnt.c: 564:         --i;
  1903   0013FC  0621               	decf	dtoa@i^0,f,c
  1904   0013FE  A0D8               	btfss	status,0,c
  1905   001400  0622               	decf	(dtoa@i+1)^0,f,c
  1906   001402                     
  1907                           ;C:\Program Files\Microchip\xc8\v2.45\pic\sources\c99\common\doprnt.c: 565:         dbuf
      +                          [i] = (char)((int)'0' + abs(d % 10));
  1908   001402  5021               	movf	dtoa@i^0,w,c
  1909   001404  0F7A               	addlw	low _dbuf
  1910   001406  6ED9               	movwf	fsr2l,c
  1911   001408  6ADA               	clrf	fsr2h,c
  1912   00140A  C019  F004         	movff	dtoa@d,___awmod@dividend
  1913   00140E  C01A  F005         	movff	dtoa@d+1,___awmod@dividend+1
  1914   001412  0E00               	movlw	0
  1915   001414  6E07               	movwf	(___awmod@divisor+1)^0,c
  1916   001416  0E0A               	movlw	10
  1917   001418  6E06               	movwf	___awmod@divisor^0,c
  1918   00141A  ECC1  F00B         	call	___awmod	;wreg free
  1919   00141E  C004  F00A         	movff	?___awmod,abs@a
  1920   001422  C005  F00B         	movff	?___awmod+1,abs@a+1
  1921   001426  EC6F  F00F         	call	_abs	;wreg free
  1922   00142A  500A               	movf	?_abs^0,w,c
  1923   00142C  0F30               	addlw	48
  1924   00142E  6EDF               	movwf	indf2,c
  1925   001430                     
  1926                           ;C:\Program Files\Microchip\xc8\v2.45\pic\sources\c99\common\doprnt.c: 569:   p = 0;
  1927   001430  0E00               	movlw	0
  1928   001432  6E1D               	movwf	dtoa@p^0,c
  1929   001434                     
  1930                           ;C:\Program Files\Microchip\xc8\v2.45\pic\sources\c99\common\doprnt.c: 571:         --w;
  1931   001434  061E               	decf	dtoa@w^0,f,c
  1932   001436  A0D8               	btfss	status,0,c
  1933   001438  061F               	decf	(dtoa@w+1)^0,f,c
  1934   00143A                     
  1935                           ;C:\Program Files\Microchip\xc8\v2.45\pic\sources\c99\common\doprnt.c: 572:         d = 
      +                          d / 10;
  1936   00143A  C019  F004         	movff	dtoa@d,___awdiv@dividend
  1937   00143E  C01A  F005         	movff	dtoa@d+1,___awdiv@dividend+1
  1938   001442  0E00               	movlw	0
  1939   001444  6E07               	movwf	(___awdiv@divisor+1)^0,c
  1940   001446  0E0A               	movlw	10
  1941   001448  6E06               	movwf	___awdiv@divisor^0,c
  1942   00144A  EC5F  F00B         	call	___awdiv	;wreg free
  1943   00144E  C004  F019         	movff	?___awdiv,dtoa@d
  1944   001452  C005  F01A         	movff	?___awdiv+1,dtoa@d+1
  1945   001456                     l3582:
  1946                           
  1947                           ;C:\Program Files\Microchip\xc8\v2.45\pic\sources\c99\common\doprnt.c: 554:     while (!
      +                          (i < 1) && (d != 0
  1948   001456  BE22               	btfsc	(dtoa@i+1)^0,7,c
  1949   001458  EF36  F00A         	goto	u3641
  1950   00145C  5022               	movf	(dtoa@i+1)^0,w,c
  1951   00145E  E108               	bnz	u3640
  1952   001460  0421               	decf	dtoa@i^0,w,c
  1953   001462  A0D8               	btfss	status,0,c
  1954   001464  EF36  F00A         	goto	u3641
  1955   001468  EF38  F00A         	goto	u3640
  1956   00146C                     u3641:
  1957   00146C  EF5D  F00A         	goto	l3592
  1958   001470                     u3640:
  1959   001470  5019               	movf	dtoa@d^0,w,c
  1960   001472  101A               	iorwf	(dtoa@d+1)^0,w,c
  1961   001474  A4D8               	btfss	status,2,c
  1962   001476  EF3F  F00A         	goto	u3651
  1963   00147A  EF41  F00A         	goto	u3650
  1964   00147E                     u3651:
  1965   00147E  EFFE  F009         	goto	l3572
  1966   001482                     u3650:
  1967   001482  501D               	movf	dtoa@p^0,w,c
  1968   001484  A4D8               	btfss	status,2,c
  1969   001486  EF47  F00A         	goto	u3661
  1970   00148A  EF49  F00A         	goto	u3660
  1971   00148E                     u3661:
  1972   00148E  EFFE  F009         	goto	l3572
  1973   001492                     u3660:
  1974   001492  BE1F               	btfsc	(dtoa@w+1)^0,7,c
  1975   001494  EF54  F00A         	goto	u3671
  1976   001498  501F               	movf	(dtoa@w+1)^0,w,c
  1977   00149A  E108               	bnz	u3670
  1978   00149C  041E               	decf	dtoa@w^0,w,c
  1979   00149E  A0D8               	btfss	status,0,c
  1980   0014A0  EF54  F00A         	goto	u3671
  1981   0014A4  EF56  F00A         	goto	u3670
  1982   0014A8                     u3671:
  1983   0014A8  EF5D  F00A         	goto	l3592
  1984   0014AC                     u3670:
  1985   0014AC  B25A               	btfsc	_flags^0,1,c
  1986   0014AE  EF5B  F00A         	goto	u3681
  1987   0014B2  EF5D  F00A         	goto	u3680
  1988   0014B6                     u3681:
  1989   0014B6  EFFE  F009         	goto	l3572
  1990   0014BA                     u3680:
  1991   0014BA                     l3592:
  1992                           
  1993                           ;C:\Program Files\Microchip\xc8\v2.45\pic\sources\c99\common\doprnt.c: 576:     if (s !=
      +                           0) {
  1994   0014BA  5020               	movf	dtoa@s^0,w,c
  1995   0014BC  B4D8               	btfsc	status,2,c
  1996   0014BE  EF63  F00A         	goto	u3691
  1997   0014C2  EF65  F00A         	goto	u3690
  1998   0014C6                     u3691:
  1999   0014C6  EF6E  F00A         	goto	l3598
  2000   0014CA                     u3690:
  2001   0014CA                     
  2002                           ;C:\Program Files\Microchip\xc8\v2.45\pic\sources\c99\common\doprnt.c: 577:         --i;
  2003   0014CA  0621               	decf	dtoa@i^0,f,c
  2004   0014CC  A0D8               	btfss	status,0,c
  2005   0014CE  0622               	decf	(dtoa@i+1)^0,f,c
  2006   0014D0                     
  2007                           ;C:\Program Files\Microchip\xc8\v2.45\pic\sources\c99\common\doprnt.c: 578:         dbuf
      +                          [i] = s;
  2008   0014D0  5021               	movf	dtoa@i^0,w,c
  2009   0014D2  0F7A               	addlw	low _dbuf
  2010   0014D4  6ED9               	movwf	fsr2l,c
  2011   0014D6  6ADA               	clrf	fsr2h,c
  2012   0014D8  C020  FFDF         	movff	dtoa@s,indf2
  2013   0014DC                     l3598:
  2014                           
  2015                           ;C:\Program Files\Microchip\xc8\v2.45\pic\sources\c99\common\doprnt.c: 582:     return (
      +                          void) pad(fp, &dbuf[i], w);
  2016   0014DC  C018  F011         	movff	dtoa@fp,pad@fp
  2017   0014E0  5021               	movf	dtoa@i^0,w,c
  2018   0014E2  0F7A               	addlw	low _dbuf
  2019   0014E4  6E12               	movwf	pad@buf^0,c
  2020   0014E6  C01E  F013         	movff	dtoa@w,pad@p
  2021   0014EA  C01F  F014         	movff	dtoa@w+1,pad@p+1
  2022   0014EE  EC16  F00D         	call	_pad	;wreg free
  2023   0014F2  0012               	return		;funcret
  2024   0014F4                     __end_of_dtoa:
  2025                           	callstack 0
  2026                           
  2027 ;; *************** function _pad *****************
  2028 ;; Defined at:
  2029 ;;		line 193 in file "C:\Program Files\Microchip\xc8\v2.45\pic\sources\c99\common\doprnt.c"
  2030 ;; Parameters:    Size  Location     Type
  2031 ;;  fp              1   16[COMRAM] PTR struct _IO_FILE
  2032 ;;		 -> sprintf@f(12), 
  2033 ;;  buf             1   17[COMRAM] PTR unsigned char 
  2034 ;;		 -> dbuf(32), 
  2035 ;;  p               2   18[COMRAM] int 
  2036 ;; Auto vars:     Size  Location     Type
  2037 ;;  i               2   21[COMRAM] int 
  2038 ;; Return value:  Size  Location     Type
  2039 ;;                  1    wreg      void 
  2040 ;; Registers used:
  2041 ;;		wreg, fsr1l, fsr1h, fsr2l, fsr2h, status,2, status,0, cstack
  2042 ;; Tracked objects:
  2043 ;;		On entry : 0/0
  2044 ;;		On exit  : 0/0
  2045 ;;		Unchanged: 0/0
  2046 ;; Data sizes:     COMRAM   BANK0   BANK1   BANK2   BANK3   BANK4   BANK5   BANK6   BANK7   BANK8   BANK9  BANK10  BANK1
      +1  BANK12  BANK13
  2047 ;;      Params:         4       0       0       0       0       0       0       0       0       0       0       0       
      +0       0       0
  2048 ;;      Locals:         2       0       0       0       0       0       0       0       0       0       0       0       
      +0       0       0
  2049 ;;      Temps:          1       0       0       0       0       0       0       0       0       0       0       0       
      +0       0       0
  2050 ;;      Totals:         7       0       0       0       0       0       0       0       0       0       0       0       
      +0       0       0
  2051 ;;Total ram usage:        7 bytes
  2052 ;; Hardware stack levels used: 1
  2053 ;; Hardware stack levels required when called: 5
  2054 ;; This function calls:
  2055 ;;		_fputc
  2056 ;;		_fputs
  2057 ;; This function is called by:
  2058 ;;		_dtoa
  2059 ;; This function uses a non-reentrant model
  2060 ;;
  2061                           
  2062                           	psect	text7
  2063   001A2C                     __ptext7:
  2064                           	callstack 0
  2065   001A2C                     _pad:
  2066                           	callstack 21
  2067   001A2C                     
  2068                           ;C:\Program Files\Microchip\xc8\v2.45\pic\sources\c99\common\doprnt.c: 193: static void 
      +                          pad(FILE *fp, char *buf, int p);C:\Program Files\Microchip\xc8\v2.45\pic\sources\c99\com
      +                          mon\doprnt.c: 194: {;C:\Program Files\Microchip\xc8\v2.45\pic\sources\c99\common\doprnt.
      +                          c: 195:     int i;;C:\Program Files\Microchip\xc8\v2.45\pic\sources\c99\common\doprnt.c:
      +                           199:     if (flags & (1 << 0)) {
  2069   001A2C  A05A               	btfss	_flags^0,0,c
  2070   001A2E  EF1B  F00D         	goto	u3551
  2071   001A32  EF1D  F00D         	goto	u3550
  2072   001A36                     u3551:
  2073   001A36  EF23  F00D         	goto	l3530
  2074   001A3A                     u3550:
  2075   001A3A                     
  2076                           ;C:\Program Files\Microchip\xc8\v2.45\pic\sources\c99\common\doprnt.c: 200:         fput
      +                          s((const char *)buf, fp);
  2077   001A3A  C012  F00C         	movff	pad@buf,fputs@s
  2078   001A3E  C011  F00D         	movff	pad@fp,fputs@fp
  2079   001A42  ECFD  F00E         	call	_fputs	;wreg free
  2080   001A46                     l3530:
  2081                           
  2082                           ;C:\Program Files\Microchip\xc8\v2.45\pic\sources\c99\common\doprnt.c: 205:  if (p < 0) 
      +                          {
  2083   001A46  BE14               	btfsc	(pad@p+1)^0,7,c
  2084   001A48  EF2A  F00D         	goto	u3560
  2085   001A4C  EF28  F00D         	goto	u3561
  2086   001A50                     u3561:
  2087   001A50  EF2E  F00D         	goto	l1045
  2088   001A54                     u3560:
  2089   001A54                     
  2090                           ;C:\Program Files\Microchip\xc8\v2.45\pic\sources\c99\common\doprnt.c: 206:   p = 0;
  2091   001A54  0E00               	movlw	0
  2092   001A56  6E14               	movwf	(pad@p+1)^0,c
  2093   001A58  0E00               	movlw	0
  2094   001A5A  6E13               	movwf	pad@p^0,c
  2095   001A5C                     l1045:
  2096                           
  2097                           ;C:\Program Files\Microchip\xc8\v2.45\pic\sources\c99\common\doprnt.c: 208:     i = 0;
  2098   001A5C  0E00               	movlw	0
  2099   001A5E  6E17               	movwf	(pad@i+1)^0,c
  2100   001A60  0E00               	movlw	0
  2101   001A62  6E16               	movwf	pad@i^0,c
  2102                           
  2103                           ;C:\Program Files\Microchip\xc8\v2.45\pic\sources\c99\common\doprnt.c: 209:     while (i
      +                           < p) {
  2104   001A64  EF3E  F00D         	goto	l3538
  2105   001A68                     l3534:
  2106                           
  2107                           ;C:\Program Files\Microchip\xc8\v2.45\pic\sources\c99\common\doprnt.c: 210:         fput
      +                          c(' ', fp);
  2108   001A68  0E00               	movlw	0
  2109   001A6A  6E05               	movwf	(fputc@c+1)^0,c
  2110   001A6C  0E20               	movlw	32
  2111   001A6E  6E04               	movwf	fputc@c^0,c
  2112   001A70  C011  F006         	movff	pad@fp,fputc@fp
  2113   001A74  EC70  F00C         	call	_fputc	;wreg free
  2114   001A78                     
  2115                           ;C:\Program Files\Microchip\xc8\v2.45\pic\sources\c99\common\doprnt.c: 211:         ++i;
  2116   001A78  4A16               	infsnz	pad@i^0,f,c
  2117   001A7A  2A17               	incf	(pad@i+1)^0,f,c
  2118   001A7C                     l3538:
  2119                           
  2120                           ;C:\Program Files\Microchip\xc8\v2.45\pic\sources\c99\common\doprnt.c: 209:     while (i
      +                           < p) {
  2121   001A7C  5013               	movf	pad@p^0,w,c
  2122   001A7E  5C16               	subwf	pad@i^0,w,c
  2123   001A80  5017               	movf	(pad@i+1)^0,w,c
  2124   001A82  0A80               	xorlw	128
  2125   001A84  6E15               	movwf	??_pad^0,c
  2126   001A86  5014               	movf	(pad@p+1)^0,w,c
  2127   001A88  0A80               	xorlw	128
  2128   001A8A  5815               	subwfb	??_pad^0,w,c
  2129   001A8C  A0D8               	btfss	status,0,c
  2130   001A8E  EF4B  F00D         	goto	u3571
  2131   001A92  EF4D  F00D         	goto	u3570
  2132   001A96                     u3571:
  2133   001A96  EF34  F00D         	goto	l3534
  2134   001A9A                     u3570:
  2135   001A9A                     
  2136                           ;C:\Program Files\Microchip\xc8\v2.45\pic\sources\c99\common\doprnt.c: 216:     if (!(fl
      +                          ags & (1 << 0))) {
  2137   001A9A  B05A               	btfsc	_flags^0,0,c
  2138   001A9C  EF52  F00D         	goto	u3581
  2139   001AA0  EF54  F00D         	goto	u3580
  2140   001AA4                     u3581:
  2141   001AA4  EF5A  F00D         	goto	l1050
  2142   001AA8                     u3580:
  2143   001AA8                     
  2144                           ;C:\Program Files\Microchip\xc8\v2.45\pic\sources\c99\common\doprnt.c: 218:         fput
      +                          s((const char *)buf, fp);
  2145   001AA8  C012  F00C         	movff	pad@buf,fputs@s
  2146   001AAC  C011  F00D         	movff	pad@fp,fputs@fp
  2147   001AB0  ECFD  F00E         	call	_fputs	;wreg free
  2148   001AB4                     l1050:
  2149   001AB4  0012               	return		;funcret
  2150   001AB6                     __end_of_pad:
  2151                           	callstack 0
  2152                           
  2153 ;; *************** function _fputs *****************
  2154 ;; Defined at:
  2155 ;;		line 8 in file "C:\Program Files\Microchip\xc8\v2.45\pic\sources\c99\common\nf_fputs.c"
  2156 ;; Parameters:    Size  Location     Type
  2157 ;;  s               1   11[COMRAM] PTR const unsigned char 
  2158 ;;		 -> dbuf(32), 
  2159 ;;  fp              1   12[COMRAM] PTR struct _IO_FILE
  2160 ;;		 -> sprintf@f(12), 
  2161 ;; Auto vars:     Size  Location     Type
  2162 ;;  i               2   14[COMRAM] int 
  2163 ;;  c               1   13[COMRAM] unsigned char 
  2164 ;; Return value:  Size  Location     Type
  2165 ;;                  2   11[COMRAM] int 
  2166 ;; Registers used:
  2167 ;;		wreg, fsr1l, fsr1h, fsr2l, fsr2h, status,2, status,0, cstack
  2168 ;; Tracked objects:
  2169 ;;		On entry : 0/0
  2170 ;;		On exit  : 0/0
  2171 ;;		Unchanged: 0/0
  2172 ;; Data sizes:     COMRAM   BANK0   BANK1   BANK2   BANK3   BANK4   BANK5   BANK6   BANK7   BANK8   BANK9  BANK10  BANK1
      +1  BANK12  BANK13
  2173 ;;      Params:         2       0       0       0       0       0       0       0       0       0       0       0       
      +0       0       0
  2174 ;;      Locals:         3       0       0       0       0       0       0       0       0       0       0       0       
      +0       0       0
  2175 ;;      Temps:          0       0       0       0       0       0       0       0       0       0       0       0       
      +0       0       0
  2176 ;;      Totals:         5       0       0       0       0       0       0       0       0       0       0       0       
      +0       0       0
  2177 ;;Total ram usage:        5 bytes
  2178 ;; Hardware stack levels used: 1
  2179 ;; Hardware stack levels required when called: 4
  2180 ;; This function calls:
  2181 ;;		_fputc
  2182 ;; This function is called by:
  2183 ;;		_pad
  2184 ;; This function uses a non-reentrant model
  2185 ;;
  2186                           
  2187                           	psect	text8
  2188   001DFA                     __ptext8:
  2189                           	callstack 0
  2190   001DFA                     _fputs:
  2191                           	callstack 21
  2192   001DFA  0E00               	movlw	0
  2193   001DFC  6E10               	movwf	(fputs@i+1)^0,c
  2194   001DFE  0E00               	movlw	0
  2195   001E00  6E0F               	movwf	fputs@i^0,c
  2196   001E02  EF0C  F00F         	goto	l3438
  2197   001E06                     l3434:
  2198   001E06  C00E  F004         	movff	fputs@c,fputc@c
  2199   001E0A  6A05               	clrf	(fputc@c+1)^0,c
  2200   001E0C  C00D  F006         	movff	fputs@fp,fputc@fp
  2201   001E10  EC70  F00C         	call	_fputc	;wreg free
  2202   001E14  4A0F               	infsnz	fputs@i^0,f,c
  2203   001E16  2A10               	incf	(fputs@i+1)^0,f,c
  2204   001E18                     l3438:
  2205   001E18  500C               	movf	fputs@s^0,w,c
  2206   001E1A  240F               	addwf	fputs@i^0,w,c
  2207   001E1C  6ED9               	movwf	fsr2l,c
  2208   001E1E  6ADA               	clrf	fsr2h,c
  2209   001E20  50DF               	movf	indf2,w,c
  2210   001E22  6E0E               	movwf	fputs@c^0,c
  2211   001E24  500E               	movf	fputs@c^0,w,c
  2212   001E26  A4D8               	btfss	status,2,c
  2213   001E28  EF18  F00F         	goto	u3421
  2214   001E2C  EF1A  F00F         	goto	u3420
  2215   001E30                     u3421:
  2216   001E30  EF03  F00F         	goto	l3434
  2217   001E34                     u3420:
  2218   001E34  0012               	return		;funcret
  2219   001E36                     __end_of_fputs:
  2220                           	callstack 0
  2221                           
  2222 ;; *************** function _fputc *****************
  2223 ;; Defined at:
  2224 ;;		line 8 in file "C:\Program Files\Microchip\xc8\v2.45\pic\sources\c99\common\nf_fputc.c"
  2225 ;; Parameters:    Size  Location     Type
  2226 ;;  c               2    3[COMRAM] int 
  2227 ;;  fp              1    5[COMRAM] PTR struct _IO_FILE
  2228 ;;		 -> sprintf@f(12), 
  2229 ;; Auto vars:     Size  Location     Type
  2230 ;;		None
  2231 ;; Return value:  Size  Location     Type
  2232 ;;                  2    3[COMRAM] int 
  2233 ;; Registers used:
  2234 ;;		wreg, fsr1l, fsr1h, fsr2l, fsr2h, status,2, status,0, cstack
  2235 ;; Tracked objects:
  2236 ;;		On entry : 0/0
  2237 ;;		On exit  : 0/0
  2238 ;;		Unchanged: 0/0
  2239 ;; Data sizes:     COMRAM   BANK0   BANK1   BANK2   BANK3   BANK4   BANK5   BANK6   BANK7   BANK8   BANK9  BANK10  BANK1
      +1  BANK12  BANK13
  2240 ;;      Params:         3       0       0       0       0       0       0       0       0       0       0       0       
      +0       0       0
  2241 ;;      Locals:         0       0       0       0       0       0       0       0       0       0       0       0       
      +0       0       0
  2242 ;;      Temps:          5       0       0       0       0       0       0       0       0       0       0       0       
      +0       0       0
  2243 ;;      Totals:         8       0       0       0       0       0       0       0       0       0       0       0       
      +0       0       0
  2244 ;;Total ram usage:        8 bytes
  2245 ;; Hardware stack levels used: 1
  2246 ;; Hardware stack levels required when called: 3
  2247 ;; This function calls:
  2248 ;;		_putch
  2249 ;; This function is called by:
  2250 ;;		_pad
  2251 ;;		_vfpfcnvrt
  2252 ;;		_fputs
  2253 ;; This function uses a non-reentrant model
  2254 ;;
  2255                           
  2256                           	psect	text9
  2257   0018E0                     __ptext9:
  2258                           	callstack 0
  2259   0018E0                     _fputc:
  2260                           	callstack 24
  2261   0018E0  5006               	movf	fputc@fp^0,w,c
  2262   0018E2  B4D8               	btfsc	status,2,c
  2263   0018E4  EF76  F00C         	goto	u3381
  2264   0018E8  EF78  F00C         	goto	u3380
  2265   0018EC                     u3381:
  2266   0018EC  EF80  F00C         	goto	l3422
  2267   0018F0                     u3380:
  2268   0018F0  5006               	movf	fputc@fp^0,w,c
  2269   0018F2  A4D8               	btfss	status,2,c
  2270   0018F4  EF7E  F00C         	goto	u3391
  2271   0018F8  EF80  F00C         	goto	u3390
  2272   0018FC                     u3391:
  2273   0018FC  EF85  F00C         	goto	l3424
  2274   001900                     u3390:
  2275   001900                     l3422:
  2276   001900  5004               	movf	fputc@c^0,w,c
  2277   001902  EC2E  F010         	call	_putch
  2278   001906  EFC4  F00C         	goto	l1114
  2279   00190A                     l3424:
  2280   00190A  5006               	movf	fputc@fp^0,w,c
  2281   00190C  6ED9               	movwf	fsr2l,c
  2282   00190E  6ADA               	clrf	fsr2h,c
  2283   001910  0E0A               	movlw	10
  2284   001912  26D9               	addwf	fsr2l,f,c
  2285   001914  50DE               	movf	postinc2,w,c
  2286   001916  10DE               	iorwf	postinc2,w,c
  2287   001918  B4D8               	btfsc	status,2,c
  2288   00191A  EF91  F00C         	goto	u3401
  2289   00191E  EF93  F00C         	goto	u3400
  2290   001922                     u3401:
  2291   001922  EFAC  F00C         	goto	l3428
  2292   001926                     u3400:
  2293   001926  5006               	movf	fputc@fp^0,w,c
  2294   001928  6ED9               	movwf	fsr2l,c
  2295   00192A  6ADA               	clrf	fsr2h,c
  2296   00192C  0E0A               	movlw	10
  2297   00192E  26D9               	addwf	fsr2l,f,c
  2298   001930  5006               	movf	fputc@fp^0,w,c
  2299   001932  6EE1               	movwf	fsr1l,c
  2300   001934  6AE2               	clrf	fsr1h,c
  2301   001936  0E03               	movlw	3
  2302   001938  26E1               	addwf	fsr1l,f,c
  2303   00193A  50DE               	movf	postinc2,w,c
  2304   00193C  5CE6               	subwf	postinc1,w,c
  2305   00193E  50E6               	movf	postinc1,w,c
  2306   001940  0A80               	xorlw	128
  2307   001942  6E0B               	movwf	(??_fputc+4)^0,c
  2308   001944  50DE               	movf	postinc2,w,c
  2309   001946  0A80               	xorlw	128
  2310   001948  580B               	subwfb	(??_fputc+4)^0,w,c
  2311   00194A  B0D8               	btfsc	status,0,c
  2312   00194C  EFAA  F00C         	goto	u3411
  2313   001950  EFAC  F00C         	goto	u3410
  2314   001954                     u3411:
  2315   001954  EFC4  F00C         	goto	l1114
  2316   001958                     u3410:
  2317   001958                     l3428:
  2318   001958  5006               	movf	fputc@fp^0,w,c
  2319   00195A  6ED9               	movwf	fsr2l,c
  2320   00195C  6ADA               	clrf	fsr2h,c
  2321   00195E  0E03               	movlw	3
  2322   001960  26D9               	addwf	fsr2l,f,c
  2323   001962  50DF               	movf	indf2,w,c
  2324   001964  6E07               	movwf	??_fputc^0,c
  2325   001966  5006               	movf	fputc@fp^0,w,c
  2326   001968  6ED9               	movwf	fsr2l,c
  2327   00196A  6ADA               	clrf	fsr2h,c
  2328   00196C  50DF               	movf	indf2,w,c
  2329   00196E  2407               	addwf	??_fputc^0,w,c
  2330   001970  6ED9               	movwf	fsr2l,c
  2331   001972  6ADA               	clrf	fsr2h,c
  2332   001974  C004  FFDF         	movff	fputc@c,indf2
  2333   001978  5006               	movf	fputc@fp^0,w,c
  2334   00197A  6ED9               	movwf	fsr2l,c
  2335   00197C  6ADA               	clrf	fsr2h,c
  2336   00197E  0E03               	movlw	3
  2337   001980  26D9               	addwf	fsr2l,f,c
  2338   001982  2ADE               	incf	postinc2,f,c
  2339   001984  0E00               	movlw	0
  2340   001986  22DD               	addwfc	postdec2,f,c
  2341   001988                     l1114:
  2342   001988  0012               	return		;funcret
  2343   00198A                     __end_of_fputc:
  2344                           	callstack 0
  2345                           
  2346 ;; *************** function _putch *****************
  2347 ;; Defined at:
  2348 ;;		line 7 in file "C:\Program Files\Microchip\xc8\v2.45\pic\sources\c99\common\putch.c"
  2349 ;; Parameters:    Size  Location     Type
  2350 ;;  c               1    wreg     unsigned char 
  2351 ;; Auto vars:     Size  Location     Type
  2352 ;;  c               1    0[COMRAM] unsigned char 
  2353 ;; Return value:  Size  Location     Type
  2354 ;;                  1    wreg      void 
  2355 ;; Registers used:
  2356 ;;		wreg
  2357 ;; Tracked objects:
  2358 ;;		On entry : 0/0
  2359 ;;		On exit  : 0/0
  2360 ;;		Unchanged: 0/0
  2361 ;; Data sizes:     COMRAM   BANK0   BANK1   BANK2   BANK3   BANK4   BANK5   BANK6   BANK7   BANK8   BANK9  BANK10  BANK1
      +1  BANK12  BANK13
  2362 ;;      Params:         0       0       0       0       0       0       0       0       0       0       0       0       
      +0       0       0
  2363 ;;      Locals:         0       0       0       0       0       0       0       0       0       0       0       0       
      +0       0       0
  2364 ;;      Temps:          0       0       0       0       0       0       0       0       0       0       0       0       
      +0       0       0
  2365 ;;      Totals:         0       0       0       0       0       0       0       0       0       0       0       0       
      +0       0       0
  2366 ;;Total ram usage:        0 bytes
  2367 ;; Hardware stack levels used: 1
  2368 ;; Hardware stack levels required when called: 2
  2369 ;; This function calls:
  2370 ;;		Nothing
  2371 ;; This function is called by:
  2372 ;;		_fputc
  2373 ;; This function uses a non-reentrant model
  2374 ;;
  2375                           
  2376                           	psect	text10
  2377   00205C                     __ptext10:
  2378                           	callstack 0
  2379   00205C                     _putch:
  2380                           	callstack 24
  2381   00205C  0012               	return		;funcret
  2382   00205E                     __end_of_putch:
  2383                           	callstack 0
  2384                           
  2385 ;; *************** function _abs *****************
  2386 ;; Defined at:
  2387 ;;		line 1 in file "C:\Program Files\Microchip\xc8\v2.45\pic\sources\c99\common\abs.c"
  2388 ;; Parameters:    Size  Location     Type
  2389 ;;  a               2    9[COMRAM] int 
  2390 ;; Auto vars:     Size  Location     Type
  2391 ;;		None
  2392 ;; Return value:  Size  Location     Type
  2393 ;;                  2    9[COMRAM] int 
  2394 ;; Registers used:
  2395 ;;		wreg, status,2, status,0
  2396 ;; Tracked objects:
  2397 ;;		On entry : 0/0
  2398 ;;		On exit  : 0/0
  2399 ;;		Unchanged: 0/0
  2400 ;; Data sizes:     COMRAM   BANK0   BANK1   BANK2   BANK3   BANK4   BANK5   BANK6   BANK7   BANK8   BANK9  BANK10  BANK1
      +1  BANK12  BANK13
  2401 ;;      Params:         2       0       0       0       0       0       0       0       0       0       0       0       
      +0       0       0
  2402 ;;      Locals:         0       0       0       0       0       0       0       0       0       0       0       0       
      +0       0       0
  2403 ;;      Temps:          2       0       0       0       0       0       0       0       0       0       0       0       
      +0       0       0
  2404 ;;      Totals:         4       0       0       0       0       0       0       0       0       0       0       0       
      +0       0       0
  2405 ;;Total ram usage:        4 bytes
  2406 ;; Hardware stack levels used: 1
  2407 ;; Hardware stack levels required when called: 2
  2408 ;; This function calls:
  2409 ;;		Nothing
  2410 ;; This function is called by:
  2411 ;;		_dtoa
  2412 ;; This function uses a non-reentrant model
  2413 ;;
  2414                           
  2415                           	psect	text11
  2416   001EDE                     __ptext11:
  2417                           	callstack 0
  2418   001EDE                     _abs:
  2419                           	callstack 24
  2420   001EDE  BE0B               	btfsc	(abs@a+1)^0,7,c
  2421   001EE0  EF74  F00F         	goto	u3591
  2422   001EE4  EF76  F00F         	goto	u3590
  2423   001EE8                     u3591:
  2424   001EE8  EF7C  F00F         	goto	l1099
  2425   001EEC                     u3590:
  2426   001EEC  C00A  F00A         	movff	abs@a,?_abs
  2427   001EF0  C00B  F00B         	movff	abs@a+1,?_abs+1
  2428   001EF4  EF88  F00F         	goto	l1102
  2429   001EF8                     l1099:
  2430   001EF8  C00A  F00C         	movff	abs@a,??_abs
  2431   001EFC  C00B  F00D         	movff	abs@a+1,??_abs+1
  2432   001F00  1E0C               	comf	??_abs^0,f,c
  2433   001F02  1E0D               	comf	(??_abs+1)^0,f,c
  2434   001F04  4A0C               	infsnz	??_abs^0,f,c
  2435   001F06  2A0D               	incf	(??_abs+1)^0,f,c
  2436   001F08  C00C  F00A         	movff	??_abs,?_abs
  2437   001F0C  C00D  F00B         	movff	??_abs+1,?_abs+1
  2438   001F10                     l1102:
  2439   001F10  0012               	return		;funcret
  2440   001F12                     __end_of_abs:
  2441                           	callstack 0
  2442                           
  2443 ;; *************** function ___awmod *****************
  2444 ;; Defined at:
  2445 ;;		line 7 in file "C:\Program Files\Microchip\xc8\v2.45\pic\sources\c99\common\awmod.c"
  2446 ;; Parameters:    Size  Location     Type
  2447 ;;  dividend        2    3[COMRAM] int 
  2448 ;;  divisor         2    5[COMRAM] int 
  2449 ;; Auto vars:     Size  Location     Type
  2450 ;;  sign            1    8[COMRAM] unsigned char 
  2451 ;;  counter         1    7[COMRAM] unsigned char 
  2452 ;; Return value:  Size  Location     Type
  2453 ;;                  2    3[COMRAM] int 
  2454 ;; Registers used:
  2455 ;;		wreg, status,2, status,0
  2456 ;; Tracked objects:
  2457 ;;		On entry : 0/0
  2458 ;;		On exit  : 0/0
  2459 ;;		Unchanged: 0/0
  2460 ;; Data sizes:     COMRAM   BANK0   BANK1   BANK2   BANK3   BANK4   BANK5   BANK6   BANK7   BANK8   BANK9  BANK10  BANK1
      +1  BANK12  BANK13
  2461 ;;      Params:         4       0       0       0       0       0       0       0       0       0       0       0       
      +0       0       0
  2462 ;;      Locals:         2       0       0       0       0       0       0       0       0       0       0       0       
      +0       0       0
  2463 ;;      Temps:          0       0       0       0       0       0       0       0       0       0       0       0       
      +0       0       0
  2464 ;;      Totals:         6       0       0       0       0       0       0       0       0       0       0       0       
      +0       0       0
  2465 ;;Total ram usage:        6 bytes
  2466 ;; Hardware stack levels used: 1
  2467 ;; Hardware stack levels required when called: 2
  2468 ;; This function calls:
  2469 ;;		Nothing
  2470 ;; This function is called by:
  2471 ;;		_dtoa
  2472 ;; This function uses a non-reentrant model
  2473 ;;
  2474                           
  2475                           	psect	text12
  2476   001782                     __ptext12:
  2477                           	callstack 0
  2478   001782                     ___awmod:
  2479                           	callstack 24
  2480   001782  0E00               	movlw	0
  2481   001784  6E09               	movwf	___awmod@sign^0,c
  2482   001786  BE05               	btfsc	(___awmod@dividend+1)^0,7,c
  2483   001788  EFCA  F00B         	goto	u3490
  2484   00178C  EFC8  F00B         	goto	u3491
  2485   001790                     u3491:
  2486   001790  EFD0  F00B         	goto	l3498
  2487   001794                     u3490:
  2488   001794  6C04               	negf	___awmod@dividend^0,c
  2489   001796  1E05               	comf	(___awmod@dividend+1)^0,f,c
  2490   001798  B0D8               	btfsc	status,0,c
  2491   00179A  2A05               	incf	(___awmod@dividend+1)^0,f,c
  2492   00179C  0E01               	movlw	1
  2493   00179E  6E09               	movwf	___awmod@sign^0,c
  2494   0017A0                     l3498:
  2495   0017A0  BE07               	btfsc	(___awmod@divisor+1)^0,7,c
  2496   0017A2  EFD7  F00B         	goto	u3500
  2497   0017A6  EFD5  F00B         	goto	u3501
  2498   0017AA                     u3501:
  2499   0017AA  EFDB  F00B         	goto	l3502
  2500   0017AE                     u3500:
  2501   0017AE  6C06               	negf	___awmod@divisor^0,c
  2502   0017B0  1E07               	comf	(___awmod@divisor+1)^0,f,c
  2503   0017B2  B0D8               	btfsc	status,0,c
  2504   0017B4  2A07               	incf	(___awmod@divisor+1)^0,f,c
  2505   0017B6                     l3502:
  2506   0017B6  5006               	movf	___awmod@divisor^0,w,c
  2507   0017B8  1007               	iorwf	(___awmod@divisor+1)^0,w,c
  2508   0017BA  B4D8               	btfsc	status,2,c
  2509   0017BC  EFE2  F00B         	goto	u3511
  2510   0017C0  EFE4  F00B         	goto	u3510
  2511   0017C4                     u3511:
  2512   0017C4  EF08  F00C         	goto	l3518
  2513   0017C8                     u3510:
  2514   0017C8  0E01               	movlw	1
  2515   0017CA  6E08               	movwf	___awmod@counter^0,c
  2516   0017CC  EFEC  F00B         	goto	l3508
  2517   0017D0                     l3506:
  2518   0017D0  90D8               	bcf	status,0,c
  2519   0017D2  3606               	rlcf	___awmod@divisor^0,f,c
  2520   0017D4  3607               	rlcf	(___awmod@divisor+1)^0,f,c
  2521   0017D6  2A08               	incf	___awmod@counter^0,f,c
  2522   0017D8                     l3508:
  2523   0017D8  AE07               	btfss	(___awmod@divisor+1)^0,7,c
  2524   0017DA  EFF1  F00B         	goto	u3521
  2525   0017DE  EFF3  F00B         	goto	u3520
  2526   0017E2                     u3521:
  2527   0017E2  EFE8  F00B         	goto	l3506
  2528   0017E6                     u3520:
  2529   0017E6                     l3510:
  2530   0017E6  5006               	movf	___awmod@divisor^0,w,c
  2531   0017E8  5C04               	subwf	___awmod@dividend^0,w,c
  2532   0017EA  5007               	movf	(___awmod@divisor+1)^0,w,c
  2533   0017EC  5805               	subwfb	(___awmod@dividend+1)^0,w,c
  2534   0017EE  A0D8               	btfss	status,0,c
  2535   0017F0  EFFC  F00B         	goto	u3531
  2536   0017F4  EFFE  F00B         	goto	u3530
  2537   0017F8                     u3531:
  2538   0017F8  EF02  F00C         	goto	l3514
  2539   0017FC                     u3530:
  2540   0017FC  5006               	movf	___awmod@divisor^0,w,c
  2541   0017FE  5E04               	subwf	___awmod@dividend^0,f,c
  2542   001800  5007               	movf	(___awmod@divisor+1)^0,w,c
  2543   001802  5A05               	subwfb	(___awmod@dividend+1)^0,f,c
  2544   001804                     l3514:
  2545   001804  90D8               	bcf	status,0,c
  2546   001806  3207               	rrcf	(___awmod@divisor+1)^0,f,c
  2547   001808  3206               	rrcf	___awmod@divisor^0,f,c
  2548   00180A  2E08               	decfsz	___awmod@counter^0,f,c
  2549   00180C  EFF3  F00B         	goto	l3510
  2550   001810                     l3518:
  2551   001810  5009               	movf	___awmod@sign^0,w,c
  2552   001812  B4D8               	btfsc	status,2,c
  2553   001814  EF0E  F00C         	goto	u3541
  2554   001818  EF10  F00C         	goto	u3540
  2555   00181C                     u3541:
  2556   00181C  EF14  F00C         	goto	l3522
  2557   001820                     u3540:
  2558   001820  6C04               	negf	___awmod@dividend^0,c
  2559   001822  1E05               	comf	(___awmod@dividend+1)^0,f,c
  2560   001824  B0D8               	btfsc	status,0,c
  2561   001826  2A05               	incf	(___awmod@dividend+1)^0,f,c
  2562   001828                     l3522:
  2563   001828  C004  F004         	movff	___awmod@dividend,?___awmod
  2564   00182C  C005  F005         	movff	___awmod@dividend+1,?___awmod+1
  2565   001830  0012               	return		;funcret
  2566   001832                     __end_of___awmod:
  2567                           	callstack 0
  2568                           
  2569 ;; *************** function ___awdiv *****************
  2570 ;; Defined at:
  2571 ;;		line 7 in file "C:\Program Files\Microchip\xc8\v2.45\pic\sources\c99\common\awdiv.c"
  2572 ;; Parameters:    Size  Location     Type
  2573 ;;  dividend        2    3[COMRAM] int 
  2574 ;;  divisor         2    5[COMRAM] int 
  2575 ;; Auto vars:     Size  Location     Type
  2576 ;;  quotient        2    9[COMRAM] int 
  2577 ;;  sign            1    8[COMRAM] unsigned char 
  2578 ;;  counter         1    7[COMRAM] unsigned char 
  2579 ;; Return value:  Size  Location     Type
  2580 ;;                  2    3[COMRAM] int 
  2581 ;; Registers used:
  2582 ;;		wreg, status,2, status,0
  2583 ;; Tracked objects:
  2584 ;;		On entry : 0/0
  2585 ;;		On exit  : 0/0
  2586 ;;		Unchanged: 0/0
  2587 ;; Data sizes:     COMRAM   BANK0   BANK1   BANK2   BANK3   BANK4   BANK5   BANK6   BANK7   BANK8   BANK9  BANK10  BANK1
      +1  BANK12  BANK13
  2588 ;;      Params:         4       0       0       0       0       0       0       0       0       0       0       0       
      +0       0       0
  2589 ;;      Locals:         4       0       0       0       0       0       0       0       0       0       0       0       
      +0       0       0
  2590 ;;      Temps:          0       0       0       0       0       0       0       0       0       0       0       0       
      +0       0       0
  2591 ;;      Totals:         8       0       0       0       0       0       0       0       0       0       0       0       
      +0       0       0
  2592 ;;Total ram usage:        8 bytes
  2593 ;; Hardware stack levels used: 1
  2594 ;; Hardware stack levels required when called: 2
  2595 ;; This function calls:
  2596 ;;		Nothing
  2597 ;; This function is called by:
  2598 ;;		_dtoa
  2599 ;; This function uses a non-reentrant model
  2600 ;;
  2601                           
  2602                           	psect	text13
  2603   0016BE                     __ptext13:
  2604                           	callstack 0
  2605   0016BE                     ___awdiv:
  2606                           	callstack 24
  2607   0016BE  0E00               	movlw	0
  2608   0016C0  6E09               	movwf	___awdiv@sign^0,c
  2609   0016C2  BE07               	btfsc	(___awdiv@divisor+1)^0,7,c
  2610   0016C4  EF68  F00B         	goto	u3430
  2611   0016C8  EF66  F00B         	goto	u3431
  2612   0016CC                     u3431:
  2613   0016CC  EF6E  F00B         	goto	l3454
  2614   0016D0                     u3430:
  2615   0016D0  6C06               	negf	___awdiv@divisor^0,c
  2616   0016D2  1E07               	comf	(___awdiv@divisor+1)^0,f,c
  2617   0016D4  B0D8               	btfsc	status,0,c
  2618   0016D6  2A07               	incf	(___awdiv@divisor+1)^0,f,c
  2619   0016D8  0E01               	movlw	1
  2620   0016DA  6E09               	movwf	___awdiv@sign^0,c
  2621   0016DC                     l3454:
  2622   0016DC  BE05               	btfsc	(___awdiv@dividend+1)^0,7,c
  2623   0016DE  EF75  F00B         	goto	u3440
  2624   0016E2  EF73  F00B         	goto	u3441
  2625   0016E6                     u3441:
  2626   0016E6  EF7B  F00B         	goto	l3460
  2627   0016EA                     u3440:
  2628   0016EA  6C04               	negf	___awdiv@dividend^0,c
  2629   0016EC  1E05               	comf	(___awdiv@dividend+1)^0,f,c
  2630   0016EE  B0D8               	btfsc	status,0,c
  2631   0016F0  2A05               	incf	(___awdiv@dividend+1)^0,f,c
  2632   0016F2  0E01               	movlw	1
  2633   0016F4  1A09               	xorwf	___awdiv@sign^0,f,c
  2634   0016F6                     l3460:
  2635   0016F6  0E00               	movlw	0
  2636   0016F8  6E0B               	movwf	(___awdiv@quotient+1)^0,c
  2637   0016FA  0E00               	movlw	0
  2638   0016FC  6E0A               	movwf	___awdiv@quotient^0,c
  2639   0016FE  5006               	movf	___awdiv@divisor^0,w,c
  2640   001700  1007               	iorwf	(___awdiv@divisor+1)^0,w,c
  2641   001702  B4D8               	btfsc	status,2,c
  2642   001704  EF86  F00B         	goto	u3451
  2643   001708  EF88  F00B         	goto	u3450
  2644   00170C                     u3451:
  2645   00170C  EFB0  F00B         	goto	l3482
  2646   001710                     u3450:
  2647   001710  0E01               	movlw	1
  2648   001712  6E08               	movwf	___awdiv@counter^0,c
  2649   001714  EF90  F00B         	goto	l3468
  2650   001718                     l3466:
  2651   001718  90D8               	bcf	status,0,c
  2652   00171A  3606               	rlcf	___awdiv@divisor^0,f,c
  2653   00171C  3607               	rlcf	(___awdiv@divisor+1)^0,f,c
  2654   00171E  2A08               	incf	___awdiv@counter^0,f,c
  2655   001720                     l3468:
  2656   001720  AE07               	btfss	(___awdiv@divisor+1)^0,7,c
  2657   001722  EF95  F00B         	goto	u3461
  2658   001726  EF97  F00B         	goto	u3460
  2659   00172A                     u3461:
  2660   00172A  EF8C  F00B         	goto	l3466
  2661   00172E                     u3460:
  2662   00172E                     l3470:
  2663   00172E  90D8               	bcf	status,0,c
  2664   001730  360A               	rlcf	___awdiv@quotient^0,f,c
  2665   001732  360B               	rlcf	(___awdiv@quotient+1)^0,f,c
  2666   001734  5006               	movf	___awdiv@divisor^0,w,c
  2667   001736  5C04               	subwf	___awdiv@dividend^0,w,c
  2668   001738  5007               	movf	(___awdiv@divisor+1)^0,w,c
  2669   00173A  5805               	subwfb	(___awdiv@dividend+1)^0,w,c
  2670   00173C  A0D8               	btfss	status,0,c
  2671   00173E  EFA3  F00B         	goto	u3471
  2672   001742  EFA5  F00B         	goto	u3470
  2673   001746                     u3471:
  2674   001746  EFAA  F00B         	goto	l3478
  2675   00174A                     u3470:
  2676   00174A  5006               	movf	___awdiv@divisor^0,w,c
  2677   00174C  5E04               	subwf	___awdiv@dividend^0,f,c
  2678   00174E  5007               	movf	(___awdiv@divisor+1)^0,w,c
  2679   001750  5A05               	subwfb	(___awdiv@dividend+1)^0,f,c
  2680   001752  800A               	bsf	___awdiv@quotient^0,0,c
  2681   001754                     l3478:
  2682   001754  90D8               	bcf	status,0,c
  2683   001756  3207               	rrcf	(___awdiv@divisor+1)^0,f,c
  2684   001758  3206               	rrcf	___awdiv@divisor^0,f,c
  2685   00175A  2E08               	decfsz	___awdiv@counter^0,f,c
  2686   00175C  EF97  F00B         	goto	l3470
  2687   001760                     l3482:
  2688   001760  5009               	movf	___awdiv@sign^0,w,c
  2689   001762  B4D8               	btfsc	status,2,c
  2690   001764  EFB6  F00B         	goto	u3481
  2691   001768  EFB8  F00B         	goto	u3480
  2692   00176C                     u3481:
  2693   00176C  EFBC  F00B         	goto	l3486
  2694   001770                     u3480:
  2695   001770  6C0A               	negf	___awdiv@quotient^0,c
  2696   001772  1E0B               	comf	(___awdiv@quotient+1)^0,f,c
  2697   001774  B0D8               	btfsc	status,0,c
  2698   001776  2A0B               	incf	(___awdiv@quotient+1)^0,f,c
  2699   001778                     l3486:
  2700   001778  C00A  F004         	movff	___awdiv@quotient,?___awdiv
  2701   00177C  C00B  F005         	movff	___awdiv@quotient+1,?___awdiv+1
  2702   001780  0012               	return		;funcret
  2703   001782                     __end_of___awdiv:
  2704                           	callstack 0
  2705                           
  2706 ;; *************** function _month_days *****************
  2707 ;; Defined at:
  2708 ;;		line 47 in file "datetime.c"
  2709 ;; Parameters:    Size  Location     Type
  2710 ;;  month           2    8[COMRAM] unsigned int 
  2711 ;;  year            2   10[COMRAM] unsigned int 
  2712 ;; Auto vars:     Size  Location     Type
  2713 ;;  monthDays       2   14[COMRAM] unsigned int 
  2714 ;; Return value:  Size  Location     Type
  2715 ;;                  2    8[COMRAM] unsigned int 
  2716 ;; Registers used:
  2717 ;;		wreg, status,2, status,0, cstack
  2718 ;; Tracked objects:
  2719 ;;		On entry : 0/0
  2720 ;;		On exit  : 0/0
  2721 ;;		Unchanged: 0/0
  2722 ;; Data sizes:     COMRAM   BANK0   BANK1   BANK2   BANK3   BANK4   BANK5   BANK6   BANK7   BANK8   BANK9  BANK10  BANK1
      +1  BANK12  BANK13
  2723 ;;      Params:         4       0       0       0       0       0       0       0       0       0       0       0       
      +0       0       0
  2724 ;;      Locals:         2       0       0       0       0       0       0       0       0       0       0       0       
      +0       0       0
  2725 ;;      Temps:          2       0       0       0       0       0       0       0       0       0       0       0       
      +0       0       0
  2726 ;;      Totals:         8       0       0       0       0       0       0       0       0       0       0       0       
      +0       0       0
  2727 ;;Total ram usage:        8 bytes
  2728 ;; Hardware stack levels used: 1
  2729 ;; Hardware stack levels required when called: 3
  2730 ;; This function calls:
  2731 ;;		___lwmod
  2732 ;; This function is called by:
  2733 ;;		_disp_time
  2734 ;; This function uses a non-reentrant model
  2735 ;;
  2736                           
  2737                           	psect	text14
  2738   00107A                     __ptext14:
  2739                           	callstack 0
  2740   00107A                     _month_days:
  2741                           	callstack 26
  2742   00107A                     
  2743                           ;datetime.c: 47: unsigned int month_days(unsigned int month, unsigned int year);datetime
      +                          .c: 48: {;datetime.c: 49:     unsigned int monthDays;;datetime.c: 51:     if (month == 1
      +                           || month == 3 || month == 5 || month == 7 || month == 8 || month == 10 || month == 12)
  2744   00107A  0409               	decf	month_days@month^0,w,c
  2745   00107C  100A               	iorwf	(month_days@month+1)^0,w,c
  2746   00107E  B4D8               	btfsc	status,2,c
  2747   001080  EF44  F008         	goto	u3981
  2748   001084  EF46  F008         	goto	u3980
  2749   001088                     u3981:
  2750   001088  EF82  F008         	goto	l3796
  2751   00108C                     u3980:
  2752   00108C  0E03               	movlw	3
  2753   00108E  1809               	xorwf	month_days@month^0,w,c
  2754   001090  100A               	iorwf	(month_days@month+1)^0,w,c
  2755   001092  B4D8               	btfsc	status,2,c
  2756   001094  EF4E  F008         	goto	u3991
  2757   001098  EF50  F008         	goto	u3990
  2758   00109C                     u3991:
  2759   00109C  EF82  F008         	goto	l3796
  2760   0010A0                     u3990:
  2761   0010A0  0E05               	movlw	5
  2762   0010A2  1809               	xorwf	month_days@month^0,w,c
  2763   0010A4  100A               	iorwf	(month_days@month+1)^0,w,c
  2764   0010A6  B4D8               	btfsc	status,2,c
  2765   0010A8  EF58  F008         	goto	u4001
  2766   0010AC  EF5A  F008         	goto	u4000
  2767   0010B0                     u4001:
  2768   0010B0  EF82  F008         	goto	l3796
  2769   0010B4                     u4000:
  2770   0010B4  0E07               	movlw	7
  2771   0010B6  1809               	xorwf	month_days@month^0,w,c
  2772   0010B8  100A               	iorwf	(month_days@month+1)^0,w,c
  2773   0010BA  B4D8               	btfsc	status,2,c
  2774   0010BC  EF62  F008         	goto	u4011
  2775   0010C0  EF64  F008         	goto	u4010
  2776   0010C4                     u4011:
  2777   0010C4  EF82  F008         	goto	l3796
  2778   0010C8                     u4010:
  2779   0010C8  0E08               	movlw	8
  2780   0010CA  1809               	xorwf	month_days@month^0,w,c
  2781   0010CC  100A               	iorwf	(month_days@month+1)^0,w,c
  2782   0010CE  B4D8               	btfsc	status,2,c
  2783   0010D0  EF6C  F008         	goto	u4021
  2784   0010D4  EF6E  F008         	goto	u4020
  2785   0010D8                     u4021:
  2786   0010D8  EF82  F008         	goto	l3796
  2787   0010DC                     u4020:
  2788   0010DC  0E0A               	movlw	10
  2789   0010DE  1809               	xorwf	month_days@month^0,w,c
  2790   0010E0  100A               	iorwf	(month_days@month+1)^0,w,c
  2791   0010E2  B4D8               	btfsc	status,2,c
  2792   0010E4  EF76  F008         	goto	u4031
  2793   0010E8  EF78  F008         	goto	u4030
  2794   0010EC                     u4031:
  2795   0010EC  EF82  F008         	goto	l3796
  2796   0010F0                     u4030:
  2797   0010F0  0E0C               	movlw	12
  2798   0010F2  1809               	xorwf	month_days@month^0,w,c
  2799   0010F4  100A               	iorwf	(month_days@month+1)^0,w,c
  2800   0010F6  A4D8               	btfss	status,2,c
  2801   0010F8  EF80  F008         	goto	u4041
  2802   0010FC  EF82  F008         	goto	u4040
  2803   001100                     u4041:
  2804   001100  EF88  F008         	goto	l3798
  2805   001104                     u4040:
  2806   001104                     l3796:
  2807                           
  2808                           ;datetime.c: 52:     {;datetime.c: 53:         monthDays = 31;
  2809   001104  0E00               	movlw	0
  2810   001106  6E10               	movwf	(month_days@monthDays+1)^0,c
  2811   001108  0E1F               	movlw	31
  2812   00110A  6E0F               	movwf	month_days@monthDays^0,c
  2813                           
  2814                           ;datetime.c: 54:     }
  2815   00110C  EFFF  F008         	goto	l3820
  2816   001110                     l3798:
  2817   001110  0E04               	movlw	4
  2818   001112  1809               	xorwf	month_days@month^0,w,c
  2819   001114  100A               	iorwf	(month_days@month+1)^0,w,c
  2820   001116  B4D8               	btfsc	status,2,c
  2821   001118  EF90  F008         	goto	u4051
  2822   00111C  EF92  F008         	goto	u4050
  2823   001120                     u4051:
  2824   001120  EFB0  F008         	goto	l3806
  2825   001124                     u4050:
  2826   001124  0E06               	movlw	6
  2827   001126  1809               	xorwf	month_days@month^0,w,c
  2828   001128  100A               	iorwf	(month_days@month+1)^0,w,c
  2829   00112A  B4D8               	btfsc	status,2,c
  2830   00112C  EF9A  F008         	goto	u4061
  2831   001130  EF9C  F008         	goto	u4060
  2832   001134                     u4061:
  2833   001134  EFB0  F008         	goto	l3806
  2834   001138                     u4060:
  2835   001138  0E09               	movlw	9
  2836   00113A  1809               	xorwf	month_days@month^0,w,c
  2837   00113C  100A               	iorwf	(month_days@month+1)^0,w,c
  2838   00113E  B4D8               	btfsc	status,2,c
  2839   001140  EFA4  F008         	goto	u4071
  2840   001144  EFA6  F008         	goto	u4070
  2841   001148                     u4071:
  2842   001148  EFB0  F008         	goto	l3806
  2843   00114C                     u4070:
  2844   00114C  0E0B               	movlw	11
  2845   00114E  1809               	xorwf	month_days@month^0,w,c
  2846   001150  100A               	iorwf	(month_days@month+1)^0,w,c
  2847   001152  A4D8               	btfss	status,2,c
  2848   001154  EFAE  F008         	goto	u4081
  2849   001158  EFB0  F008         	goto	u4080
  2850   00115C                     u4081:
  2851   00115C  EFB6  F008         	goto	l3808
  2852   001160                     u4080:
  2853   001160                     l3806:
  2854                           
  2855                           ;datetime.c: 56:     {;datetime.c: 57:         monthDays = 30;
  2856   001160  0E00               	movlw	0
  2857   001162  6E10               	movwf	(month_days@monthDays+1)^0,c
  2858   001164  0E1E               	movlw	30
  2859   001166  6E0F               	movwf	month_days@monthDays^0,c
  2860                           
  2861                           ;datetime.c: 58:     }
  2862   001168  EFFF  F008         	goto	l3820
  2863   00116C                     l3808:
  2864   00116C  0E02               	movlw	2
  2865   00116E  1809               	xorwf	month_days@month^0,w,c
  2866   001170  100A               	iorwf	(month_days@month+1)^0,w,c
  2867   001172  A4D8               	btfss	status,2,c
  2868   001174  EFBE  F008         	goto	u4091
  2869   001178  EFC0  F008         	goto	u4090
  2870   00117C                     u4091:
  2871   00117C  EFFF  F008         	goto	l3820
  2872   001180                     u4090:
  2873   001180                     
  2874                           ;datetime.c: 60:     {;datetime.c: 61:         if ((year % 4 == 0 && year % 100 != 0) ||
      +                           (year % 400 == 0))
  2875   001180  0E03               	movlw	3
  2876   001182  140B               	andwf	month_days@year^0,w,c
  2877   001184  6E0D               	movwf	??_month_days^0,c
  2878   001186  0E00               	movlw	0
  2879   001188  140C               	andwf	(month_days@year+1)^0,w,c
  2880   00118A  6E0E               	movwf	(??_month_days+1)^0,c
  2881   00118C  500D               	movf	??_month_days^0,w,c
  2882   00118E  100E               	iorwf	(??_month_days+1)^0,w,c
  2883   001190  A4D8               	btfss	status,2,c
  2884   001192  EFCD  F008         	goto	u4101
  2885   001196  EFCF  F008         	goto	u4100
  2886   00119A                     u4101:
  2887   00119A  EFE2  F008         	goto	l3814
  2888   00119E                     u4100:
  2889   00119E  C00B  F004         	movff	month_days@year,___lwmod@dividend
  2890   0011A2  C00C  F005         	movff	month_days@year+1,___lwmod@dividend+1
  2891   0011A6  0E00               	movlw	0
  2892   0011A8  6E07               	movwf	(___lwmod@divisor+1)^0,c
  2893   0011AA  0E64               	movlw	100
  2894   0011AC  6E06               	movwf	___lwmod@divisor^0,c
  2895   0011AE  EC7E  F00E         	call	___lwmod	;wreg free
  2896   0011B2  5004               	movf	?___lwmod^0,w,c
  2897   0011B4  1005               	iorwf	(?___lwmod+1)^0,w,c
  2898   0011B6  A4D8               	btfss	status,2,c
  2899   0011B8  EFE0  F008         	goto	u4111
  2900   0011BC  EFE2  F008         	goto	u4110
  2901   0011C0                     u4111:
  2902   0011C0  EFF5  F008         	goto	l3816
  2903   0011C4                     u4110:
  2904   0011C4                     l3814:
  2905   0011C4  C00B  F004         	movff	month_days@year,___lwmod@dividend
  2906   0011C8  C00C  F005         	movff	month_days@year+1,___lwmod@dividend+1
  2907   0011CC  0E01               	movlw	1
  2908   0011CE  6E07               	movwf	(___lwmod@divisor+1)^0,c
  2909   0011D0  0E90               	movlw	144
  2910   0011D2  6E06               	movwf	___lwmod@divisor^0,c
  2911   0011D4  EC7E  F00E         	call	___lwmod	;wreg free
  2912   0011D8  5004               	movf	?___lwmod^0,w,c
  2913   0011DA  1005               	iorwf	(?___lwmod+1)^0,w,c
  2914   0011DC  A4D8               	btfss	status,2,c
  2915   0011DE  EFF3  F008         	goto	u4121
  2916   0011E2  EFF5  F008         	goto	u4120
  2917   0011E6                     u4121:
  2918   0011E6  EFFB  F008         	goto	l3818
  2919   0011EA                     u4120:
  2920   0011EA                     l3816:
  2921                           
  2922                           ;datetime.c: 62:         {;datetime.c: 63:             monthDays = 29;
  2923   0011EA  0E00               	movlw	0
  2924   0011EC  6E10               	movwf	(month_days@monthDays+1)^0,c
  2925   0011EE  0E1D               	movlw	29
  2926   0011F0  6E0F               	movwf	month_days@monthDays^0,c
  2927                           
  2928                           ;datetime.c: 64:         }
  2929   0011F2  EFFF  F008         	goto	l3820
  2930   0011F6                     l3818:
  2931   0011F6  0E00               	movlw	0
  2932   0011F8  6E10               	movwf	(month_days@monthDays+1)^0,c
  2933   0011FA  0E1C               	movlw	28
  2934   0011FC  6E0F               	movwf	month_days@monthDays^0,c
  2935   0011FE                     l3820:
  2936                           
  2937                           ;datetime.c: 67:     return monthDays;
  2938   0011FE  C00F  F009         	movff	month_days@monthDays,?_month_days
  2939   001202  C010  F00A         	movff	month_days@monthDays+1,?_month_days+1
  2940   001206  0012               	return		;funcret
  2941   001208                     __end_of_month_days:
  2942                           	callstack 0
  2943                           
  2944 ;; *************** function _get16bitTMR0val *****************
  2945 ;; Defined at:
  2946 ;;		line 25 in file "timers.c"
  2947 ;; Parameters:    Size  Location     Type
  2948 ;;		None
  2949 ;; Auto vars:     Size  Location     Type
  2950 ;;  time            2    5[COMRAM] unsigned int 
  2951 ;;  temp            2    0        unsigned int 
  2952 ;; Return value:  Size  Location     Type
  2953 ;;                  2    3[COMRAM] unsigned int 
  2954 ;; Registers used:
  2955 ;;		wreg
  2956 ;; Tracked objects:
  2957 ;;		On entry : 0/0
  2958 ;;		On exit  : 0/0
  2959 ;;		Unchanged: 0/0
  2960 ;; Data sizes:     COMRAM   BANK0   BANK1   BANK2   BANK3   BANK4   BANK5   BANK6   BANK7   BANK8   BANK9  BANK10  BANK1
      +1  BANK12  BANK13
  2961 ;;      Params:         2       0       0       0       0       0       0       0       0       0       0       0       
      +0       0       0
  2962 ;;      Locals:         2       0       0       0       0       0       0       0       0       0       0       0       
      +0       0       0
  2963 ;;      Temps:          0       0       0       0       0       0       0       0       0       0       0       0       
      +0       0       0
  2964 ;;      Totals:         4       0       0       0       0       0       0       0       0       0       0       0       
      +0       0       0
  2965 ;;Total ram usage:        4 bytes
  2966 ;; Hardware stack levels used: 1
  2967 ;; Hardware stack levels required when called: 2
  2968 ;; This function calls:
  2969 ;;		Nothing
  2970 ;; This function is called by:
  2971 ;;		_disp_time
  2972 ;; This function uses a non-reentrant model
  2973 ;;
  2974                           
  2975                           	psect	text15
  2976   00201E                     __ptext15:
  2977                           	callstack 0
  2978   00201E                     _get16bitTMR0val:
  2979                           	callstack 27
  2980   00201E  50D3               	movf	211,w,c	;volatile
  2981                           
  2982                           ;timers.c: 29:     unsigned int time = TMR0H;
  2983   002020  CFD4 F006          	movff	4052,get16bitTMR0val@time	;volatile
  2984   002024  6A07               	clrf	(get16bitTMR0val@time+1)^0,c
  2985                           
  2986                           ;timers.c: 30:     return time;
  2987   002026  C006  F004         	movff	get16bitTMR0val@time,?_get16bitTMR0val
  2988   00202A  C007  F005         	movff	get16bitTMR0val@time+1,?_get16bitTMR0val+1
  2989   00202E  0012               	return		;funcret
  2990   002030                     __end_of_get16bitTMR0val:
  2991                           	callstack 0
  2992                           
  2993 ;; *************** function _LEDarray_control *****************
  2994 ;; Defined at:
  2995 ;;		line 113 in file "datetime.c"
  2996 ;; Parameters:    Size  Location     Type
  2997 ;;		None
  2998 ;; Auto vars:     Size  Location     Type
  2999 ;;  temp            2    8[COMRAM] unsigned int 
  3000 ;; Return value:  Size  Location     Type
  3001 ;;                  1    wreg      void 
  3002 ;; Registers used:
  3003 ;;		wreg, status,2, status,0, cstack
  3004 ;; Tracked objects:
  3005 ;;		On entry : 0/0
  3006 ;;		On exit  : 0/0
  3007 ;;		Unchanged: 0/0
  3008 ;; Data sizes:     COMRAM   BANK0   BANK1   BANK2   BANK3   BANK4   BANK5   BANK6   BANK7   BANK8   BANK9  BANK10  BANK1
      +1  BANK12  BANK13
  3009 ;;      Params:         0       0       0       0       0       0       0       0       0       0       0       0       
      +0       0       0
  3010 ;;      Locals:         2       0       0       0       0       0       0       0       0       0       0       0       
      +0       0       0
  3011 ;;      Temps:          0       0       0       0       0       0       0       0       0       0       0       0       
      +0       0       0
  3012 ;;      Totals:         2       0       0       0       0       0       0       0       0       0       0       0       
      +0       0       0
  3013 ;;Total ram usage:        2 bytes
  3014 ;; Hardware stack levels used: 1
  3015 ;; Hardware stack levels required when called: 3
  3016 ;; This function calls:
  3017 ;;		_LEDarray_disp_bin
  3018 ;;		___lwmod
  3019 ;; This function is called by:
  3020 ;;		_disp_time
  3021 ;; This function uses a non-reentrant model
  3022 ;;
  3023                           
  3024                           	psect	text16
  3025   00198A                     __ptext16:
  3026                           	callstack 0
  3027   00198A                     _LEDarray_control:
  3028                           	callstack 26
  3029   00198A                     
  3030                           ;datetime.c: 115:     unsigned int temp = 0;
  3031   00198A  0E00               	movlw	0
  3032   00198C  6E0A               	movwf	(LEDarray_control@temp+1)^0,c
  3033   00198E  0E00               	movlw	0
  3034   001990  6E09               	movwf	LEDarray_control@temp^0,c
  3035   001992                     
  3036                           ;datetime.c: 116:     if (day % 3 == 0) {temp = 0b001001001;}
  3037   001992  C052  F004         	movff	_day,___lwmod@dividend
  3038   001996  C053  F005         	movff	_day+1,___lwmod@dividend+1
  3039   00199A  0E00               	movlw	0
  3040   00199C  6E07               	movwf	(___lwmod@divisor+1)^0,c
  3041   00199E  0E03               	movlw	3
  3042   0019A0  6E06               	movwf	___lwmod@divisor^0,c
  3043   0019A2  EC7E  F00E         	call	___lwmod	;wreg free
  3044   0019A6  5004               	movf	?___lwmod^0,w,c
  3045   0019A8  1005               	iorwf	(?___lwmod+1)^0,w,c
  3046   0019AA  A4D8               	btfss	status,2,c
  3047   0019AC  EFDA  F00C         	goto	u4131
  3048   0019B0  EFDC  F00C         	goto	u4130
  3049   0019B4                     u4131:
  3050   0019B4  EFE0  F00C         	goto	l3830
  3051   0019B8                     u4130:
  3052   0019B8  0E00               	movlw	0
  3053   0019BA  6E0A               	movwf	(LEDarray_control@temp+1)^0,c
  3054   0019BC  0E49               	movlw	73
  3055   0019BE  6E09               	movwf	LEDarray_control@temp^0,c
  3056   0019C0                     l3830:
  3057                           
  3058                           ;datetime.c: 117:     if (day % 3 == 1) {temp = 0b010010010;}
  3059   0019C0  C052  F004         	movff	_day,___lwmod@dividend
  3060   0019C4  C053  F005         	movff	_day+1,___lwmod@dividend+1
  3061   0019C8  0E00               	movlw	0
  3062   0019CA  6E07               	movwf	(___lwmod@divisor+1)^0,c
  3063   0019CC  0E03               	movlw	3
  3064   0019CE  6E06               	movwf	___lwmod@divisor^0,c
  3065   0019D0  EC7E  F00E         	call	___lwmod	;wreg free
  3066   0019D4  0404               	decf	?___lwmod^0,w,c
  3067   0019D6  1005               	iorwf	(?___lwmod+1)^0,w,c
  3068   0019D8  A4D8               	btfss	status,2,c
  3069   0019DA  EFF1  F00C         	goto	u4141
  3070   0019DE  EFF3  F00C         	goto	u4140
  3071   0019E2                     u4141:
  3072   0019E2  EFF7  F00C         	goto	l3834
  3073   0019E6                     u4140:
  3074   0019E6  0E00               	movlw	0
  3075   0019E8  6E0A               	movwf	(LEDarray_control@temp+1)^0,c
  3076   0019EA  0E92               	movlw	146
  3077   0019EC  6E09               	movwf	LEDarray_control@temp^0,c
  3078   0019EE                     l3834:
  3079                           
  3080                           ;datetime.c: 118:     if (day % 3 == 2) {temp = 0b100100100;}
  3081   0019EE  C052  F004         	movff	_day,___lwmod@dividend
  3082   0019F2  C053  F005         	movff	_day+1,___lwmod@dividend+1
  3083   0019F6  0E00               	movlw	0
  3084   0019F8  6E07               	movwf	(___lwmod@divisor+1)^0,c
  3085   0019FA  0E03               	movlw	3
  3086   0019FC  6E06               	movwf	___lwmod@divisor^0,c
  3087   0019FE  EC7E  F00E         	call	___lwmod	;wreg free
  3088   001A02  0E02               	movlw	2
  3089   001A04  1804               	xorwf	?___lwmod^0,w,c
  3090   001A06  1005               	iorwf	(?___lwmod+1)^0,w,c
  3091   001A08  A4D8               	btfss	status,2,c
  3092   001A0A  EF09  F00D         	goto	u4151
  3093   001A0E  EF0B  F00D         	goto	u4150
  3094   001A12                     u4151:
  3095   001A12  EF0F  F00D         	goto	l3838
  3096   001A16                     u4150:
  3097   001A16  0E01               	movlw	1
  3098   001A18  6E0A               	movwf	(LEDarray_control@temp+1)^0,c
  3099   001A1A  0E24               	movlw	36
  3100   001A1C  6E09               	movwf	LEDarray_control@temp^0,c
  3101   001A1E                     l3838:
  3102                           
  3103                           ;datetime.c: 119:     LEDarray_disp_bin(temp);
  3104   001A1E  C009  F004         	movff	LEDarray_control@temp,LEDarray_disp_bin@number
  3105   001A22  C00A  F005         	movff	LEDarray_control@temp+1,LEDarray_disp_bin@number+1
  3106   001A26  ECFB  F00A         	call	_LEDarray_disp_bin	;wreg free
  3107   001A2A  0012               	return		;funcret
  3108   001A2C                     __end_of_LEDarray_control:
  3109                           	callstack 0
  3110                           
  3111 ;; *************** function ___lwmod *****************
  3112 ;; Defined at:
  3113 ;;		line 7 in file "C:\Program Files\Microchip\xc8\v2.45\pic\sources\c99\common\lwmod.c"
  3114 ;; Parameters:    Size  Location     Type
  3115 ;;  dividend        2    3[COMRAM] unsigned int 
  3116 ;;  divisor         2    5[COMRAM] unsigned int 
  3117 ;; Auto vars:     Size  Location     Type
  3118 ;;  counter         1    7[COMRAM] unsigned char 
  3119 ;; Return value:  Size  Location     Type
  3120 ;;                  2    3[COMRAM] unsigned int 
  3121 ;; Registers used:
  3122 ;;		wreg, status,2, status,0
  3123 ;; Tracked objects:
  3124 ;;		On entry : 0/0
  3125 ;;		On exit  : 0/0
  3126 ;;		Unchanged: 0/0
  3127 ;; Data sizes:     COMRAM   BANK0   BANK1   BANK2   BANK3   BANK4   BANK5   BANK6   BANK7   BANK8   BANK9  BANK10  BANK1
      +1  BANK12  BANK13
  3128 ;;      Params:         4       0       0       0       0       0       0       0       0       0       0       0       
      +0       0       0
  3129 ;;      Locals:         1       0       0       0       0       0       0       0       0       0       0       0       
      +0       0       0
  3130 ;;      Temps:          0       0       0       0       0       0       0       0       0       0       0       0       
      +0       0       0
  3131 ;;      Totals:         5       0       0       0       0       0       0       0       0       0       0       0       
      +0       0       0
  3132 ;;Total ram usage:        5 bytes
  3133 ;; Hardware stack levels used: 1
  3134 ;; Hardware stack levels required when called: 2
  3135 ;; This function calls:
  3136 ;;		Nothing
  3137 ;; This function is called by:
  3138 ;;		_month_days
  3139 ;;		_LEDarray_control
  3140 ;;		_Callibrate
  3141 ;; This function uses a non-reentrant model
  3142 ;;
  3143                           
  3144                           	psect	text17
  3145   001CFC                     __ptext17:
  3146                           	callstack 0
  3147   001CFC                     ___lwmod:
  3148                           	callstack 26
  3149   001CFC  5006               	movf	___lwmod@divisor^0,w,c
  3150   001CFE  1007               	iorwf	(___lwmod@divisor+1)^0,w,c
  3151   001D00  B4D8               	btfsc	status,2,c
  3152   001D02  EF85  F00E         	goto	u3911
  3153   001D06  EF87  F00E         	goto	u3910
  3154   001D0A                     u3911:
  3155   001D0A  EFAB  F00E         	goto	l848
  3156   001D0E                     u3910:
  3157   001D0E  0E01               	movlw	1
  3158   001D10  6E08               	movwf	___lwmod@counter^0,c
  3159   001D12  EF8F  F00E         	goto	l3728
  3160   001D16                     l3726:
  3161   001D16  90D8               	bcf	status,0,c
  3162   001D18  3606               	rlcf	___lwmod@divisor^0,f,c
  3163   001D1A  3607               	rlcf	(___lwmod@divisor+1)^0,f,c
  3164   001D1C  2A08               	incf	___lwmod@counter^0,f,c
  3165   001D1E                     l3728:
  3166   001D1E  AE07               	btfss	(___lwmod@divisor+1)^0,7,c
  3167   001D20  EF94  F00E         	goto	u3921
  3168   001D24  EF96  F00E         	goto	u3920
  3169   001D28                     u3921:
  3170   001D28  EF8B  F00E         	goto	l3726
  3171   001D2C                     u3920:
  3172   001D2C                     l3730:
  3173   001D2C  5006               	movf	___lwmod@divisor^0,w,c
  3174   001D2E  5C04               	subwf	___lwmod@dividend^0,w,c
  3175   001D30  5007               	movf	(___lwmod@divisor+1)^0,w,c
  3176   001D32  5805               	subwfb	(___lwmod@dividend+1)^0,w,c
  3177   001D34  A0D8               	btfss	status,0,c
  3178   001D36  EF9F  F00E         	goto	u3931
  3179   001D3A  EFA1  F00E         	goto	u3930
  3180   001D3E                     u3931:
  3181   001D3E  EFA5  F00E         	goto	l3734
  3182   001D42                     u3930:
  3183   001D42  5006               	movf	___lwmod@divisor^0,w,c
  3184   001D44  5E04               	subwf	___lwmod@dividend^0,f,c
  3185   001D46  5007               	movf	(___lwmod@divisor+1)^0,w,c
  3186   001D48  5A05               	subwfb	(___lwmod@dividend+1)^0,f,c
  3187   001D4A                     l3734:
  3188   001D4A  90D8               	bcf	status,0,c
  3189   001D4C  3207               	rrcf	(___lwmod@divisor+1)^0,f,c
  3190   001D4E  3206               	rrcf	___lwmod@divisor^0,f,c
  3191   001D50  2E08               	decfsz	___lwmod@counter^0,f,c
  3192   001D52  EF96  F00E         	goto	l3730
  3193   001D56                     l848:
  3194   001D56  C004  F004         	movff	___lwmod@dividend,?___lwmod
  3195   001D5A  C005  F005         	movff	___lwmod@dividend+1,?___lwmod+1
  3196   001D5E  0012               	return		;funcret
  3197   001D60                     __end_of___lwmod:
  3198                           	callstack 0
  3199                           
  3200 ;; *************** function _LEDarray_disp_bin *****************
  3201 ;; Defined at:
  3202 ;;		line 45 in file "LEDarray.c"
  3203 ;; Parameters:    Size  Location     Type
  3204 ;;  number          2    3[COMRAM] unsigned int 
  3205 ;; Auto vars:     Size  Location     Type
  3206 ;;		None
  3207 ;; Return value:  Size  Location     Type
  3208 ;;                  1    wreg      void 
  3209 ;; Registers used:
  3210 ;;		None
  3211 ;; Tracked objects:
  3212 ;;		On entry : 0/0
  3213 ;;		On exit  : 0/0
  3214 ;;		Unchanged: 0/0
  3215 ;; Data sizes:     COMRAM   BANK0   BANK1   BANK2   BANK3   BANK4   BANK5   BANK6   BANK7   BANK8   BANK9  BANK10  BANK1
      +1  BANK12  BANK13
  3216 ;;      Params:         2       0       0       0       0       0       0       0       0       0       0       0       
      +0       0       0
  3217 ;;      Locals:         0       0       0       0       0       0       0       0       0       0       0       0       
      +0       0       0
  3218 ;;      Temps:          0       0       0       0       0       0       0       0       0       0       0       0       
      +0       0       0
  3219 ;;      Totals:         2       0       0       0       0       0       0       0       0       0       0       0       
      +0       0       0
  3220 ;;Total ram usage:        2 bytes
  3221 ;; Hardware stack levels used: 1
  3222 ;; Hardware stack levels required when called: 2
  3223 ;; This function calls:
  3224 ;;		Nothing
  3225 ;; This function is called by:
  3226 ;;		_disp_time
  3227 ;;		_LEDarray_control
  3228 ;;		_LEDarray_disp_dec
  3229 ;;		_LEDarray_disp_PPM
  3230 ;; This function uses a non-reentrant model
  3231 ;;
  3232                           
  3233                           	psect	text18
  3234   0015F6                     __ptext18:
  3235                           	callstack 0
  3236   0015F6                     _LEDarray_disp_bin:
  3237                           	callstack 27
  3238   0015F6                     
  3239                           ;LEDarray.c: 45: void LEDarray_disp_bin(unsigned int number);LEDarray.c: 46: {;LEDarray.
      +                          c: 49:     if (number & 0b000000001) LATGbits.LATG0 = 1; else LATGbits.LATG0 = 0;
  3240   0015F6  A004               	btfss	LEDarray_disp_bin@number^0,0,c
  3241   0015F8  EF00  F00B         	goto	u3821
  3242   0015FC  EF02  F00B         	goto	u3820
  3243   001600                     u3821:
  3244   001600  EF05  F00B         	goto	l105
  3245   001604                     u3820:
  3246   001604  807F               	bsf	127,0,c	;volatile
  3247   001606  EF06  F00B         	goto	l106
  3248   00160A                     l105:
  3249   00160A  907F               	bcf	127,0,c	;volatile
  3250   00160C                     l106:
  3251                           
  3252                           ;LEDarray.c: 50:     if (number & 0b000000010) LATGbits.LATG1 = 1; else LATGbits.LATG1 =
      +                           0;
  3253   00160C  A204               	btfss	LEDarray_disp_bin@number^0,1,c
  3254   00160E  EF0B  F00B         	goto	u3831
  3255   001612  EF0D  F00B         	goto	u3830
  3256   001616                     u3831:
  3257   001616  EF10  F00B         	goto	l107
  3258   00161A                     u3830:
  3259   00161A  827F               	bsf	127,1,c	;volatile
  3260   00161C  EF11  F00B         	goto	l108
  3261   001620                     l107:
  3262   001620  927F               	bcf	127,1,c	;volatile
  3263   001622                     l108:
  3264                           
  3265                           ;LEDarray.c: 51:     if (number & 0b000000100) LATAbits.LATA2 = 1; else LATAbits.LATA2 =
      +                           0;
  3266   001622  A404               	btfss	LEDarray_disp_bin@number^0,2,c
  3267   001624  EF16  F00B         	goto	u3841
  3268   001628  EF18  F00B         	goto	u3840
  3269   00162C                     u3841:
  3270   00162C  EF1B  F00B         	goto	l109
  3271   001630                     u3840:
  3272   001630  8479               	bsf	121,2,c	;volatile
  3273   001632  EF1C  F00B         	goto	l110
  3274   001636                     l109:
  3275   001636  9479               	bcf	121,2,c	;volatile
  3276   001638                     l110:
  3277                           
  3278                           ;LEDarray.c: 52:     if (number & 0b000001000) LATFbits.LATF6 = 1; else LATFbits.LATF6 =
      +                           0;
  3279   001638  A604               	btfss	LEDarray_disp_bin@number^0,3,c
  3280   00163A  EF21  F00B         	goto	u3851
  3281   00163E  EF23  F00B         	goto	u3850
  3282   001642                     u3851:
  3283   001642  EF26  F00B         	goto	l111
  3284   001646                     u3850:
  3285   001646  8C7E               	bsf	126,6,c	;volatile
  3286   001648  EF27  F00B         	goto	l112
  3287   00164C                     l111:
  3288   00164C  9C7E               	bcf	126,6,c	;volatile
  3289   00164E                     l112:
  3290                           
  3291                           ;LEDarray.c: 53:     if (number & 0b000010000) LATAbits.LATA4 = 1; else LATAbits.LATA4 =
      +                           0;
  3292   00164E  A804               	btfss	LEDarray_disp_bin@number^0,4,c
  3293   001650  EF2C  F00B         	goto	u3861
  3294   001654  EF2E  F00B         	goto	u3860
  3295   001658                     u3861:
  3296   001658  EF31  F00B         	goto	l113
  3297   00165C                     u3860:
  3298   00165C  8879               	bsf	121,4,c	;volatile
  3299   00165E  EF32  F00B         	goto	l114
  3300   001662                     l113:
  3301   001662  9879               	bcf	121,4,c	;volatile
  3302   001664                     l114:
  3303                           
  3304                           ;LEDarray.c: 54:     if (number & 0b000100000) LATAbits.LATA5 = 1; else LATAbits.LATA5 =
      +                           0;
  3305   001664  AA04               	btfss	LEDarray_disp_bin@number^0,5,c
  3306   001666  EF37  F00B         	goto	u3871
  3307   00166A  EF39  F00B         	goto	u3870
  3308   00166E                     u3871:
  3309   00166E  EF3C  F00B         	goto	l115
  3310   001672                     u3870:
  3311   001672  8A79               	bsf	121,5,c	;volatile
  3312   001674  EF3D  F00B         	goto	l116
  3313   001678                     l115:
  3314   001678  9A79               	bcf	121,5,c	;volatile
  3315   00167A                     l116:
  3316                           
  3317                           ;LEDarray.c: 55:     if (number & 0b001000000) LATFbits.LATF0 = 1; else LATFbits.LATF0 =
      +                           0;
  3318   00167A  AC04               	btfss	LEDarray_disp_bin@number^0,6,c
  3319   00167C  EF42  F00B         	goto	u3881
  3320   001680  EF44  F00B         	goto	u3880
  3321   001684                     u3881:
  3322   001684  EF47  F00B         	goto	l117
  3323   001688                     u3880:
  3324   001688  807E               	bsf	126,0,c	;volatile
  3325   00168A  EF48  F00B         	goto	l118
  3326   00168E                     l117:
  3327   00168E  907E               	bcf	126,0,c	;volatile
  3328   001690                     l118:
  3329                           
  3330                           ;LEDarray.c: 56:     if (number & 0b010000000) LATBbits.LATB0 = 1; else LATBbits.LATB0 =
      +                           0;
  3331   001690  AE04               	btfss	LEDarray_disp_bin@number^0,7,c
  3332   001692  EF4D  F00B         	goto	u3891
  3333   001696  EF4F  F00B         	goto	u3890
  3334   00169A                     u3891:
  3335   00169A  EF52  F00B         	goto	l119
  3336   00169E                     u3890:
  3337   00169E  807A               	bsf	122,0,c	;volatile
  3338   0016A0  EF53  F00B         	goto	l120
  3339   0016A4                     l119:
  3340   0016A4  907A               	bcf	122,0,c	;volatile
  3341   0016A6                     l120:
  3342                           
  3343                           ;LEDarray.c: 57:     if (number & 0b100000000) LATBbits.LATB1 = 1; else LATBbits.LATB1 =
      +                           0;
  3344   0016A6  A005               	btfss	(LEDarray_disp_bin@number+1)^0,0,c
  3345   0016A8  EF58  F00B         	goto	u3901
  3346   0016AC  EF5A  F00B         	goto	u3900
  3347   0016B0                     u3901:
  3348   0016B0  EF5D  F00B         	goto	l121
  3349   0016B4                     u3900:
  3350   0016B4  827A               	bsf	122,1,c	;volatile
  3351   0016B6  EF5E  F00B         	goto	l123
  3352   0016BA                     l121:
  3353   0016BA  927A               	bcf	122,1,c	;volatile
  3354   0016BC                     l123:
  3355   0016BC  0012               	return		;funcret
  3356   0016BE                     __end_of_LEDarray_disp_bin:
  3357                           	callstack 0
  3358                           
  3359 ;; *************** function _LCD_setline *****************
  3360 ;; Defined at:
  3361 ;;		line 99 in file "LCD.c"
  3362 ;; Parameters:    Size  Location     Type
  3363 ;;  line            1    wreg     unsigned char 
  3364 ;; Auto vars:     Size  Location     Type
  3365 ;;  line            1    6[COMRAM] unsigned char 
  3366 ;; Return value:  Size  Location     Type
  3367 ;;                  1    wreg      void 
  3368 ;; Registers used:
  3369 ;;		wreg, status,2, status,0, cstack
  3370 ;; Tracked objects:
  3371 ;;		On entry : 0/0
  3372 ;;		On exit  : 0/0
  3373 ;;		Unchanged: 0/0
  3374 ;; Data sizes:     COMRAM   BANK0   BANK1   BANK2   BANK3   BANK4   BANK5   BANK6   BANK7   BANK8   BANK9  BANK10  BANK1
      +1  BANK12  BANK13
  3375 ;;      Params:         0       0       0       0       0       0       0       0       0       0       0       0       
      +0       0       0
  3376 ;;      Locals:         1       0       0       0       0       0       0       0       0       0       0       0       
      +0       0       0
  3377 ;;      Temps:          0       0       0       0       0       0       0       0       0       0       0       0       
      +0       0       0
  3378 ;;      Totals:         1       0       0       0       0       0       0       0       0       0       0       0       
      +0       0       0
  3379 ;;Total ram usage:        1 bytes
  3380 ;; Hardware stack levels used: 1
  3381 ;; Hardware stack levels required when called: 5
  3382 ;; This function calls:
  3383 ;;		_LCD_sendbyte
  3384 ;; This function is called by:
  3385 ;;		_disp_time
  3386 ;;		_main
  3387 ;;		_Callibrate
  3388 ;; This function uses a non-reentrant model
  3389 ;;
  3390                           
  3391                           	psect	text19
  3392   001E36                     __ptext19:
  3393                           	callstack 0
  3394   001E36                     _LCD_setline:
  3395                           	callstack 24
  3396                           
  3397                           ;incstack = 0
  3398                           ;LCD_setline@line stored from wreg
  3399   001E36  6E07               	movwf	LCD_setline@line^0,c
  3400   001E38                     
  3401                           ;LCD.c: 99: void LCD_setline (char line);LCD.c: 100: {;LCD.c: 102:     if (line == 1)
  3402   001E38  0407               	decf	LCD_setline@line^0,w,c
  3403   001E3A  A4D8               	btfss	status,2,c
  3404   001E3C  EF22  F00F         	goto	u3951
  3405   001E40  EF24  F00F         	goto	u3950
  3406   001E44                     u3951:
  3407   001E44  EF29  F00F         	goto	l3752
  3408   001E48                     u3950:
  3409   001E48                     
  3410                           ;LCD.c: 103:         LCD_sendbyte(0x80,0);
  3411   001E48  0E00               	movlw	0
  3412   001E4A  6E05               	movwf	LCD_sendbyte@type^0,c
  3413   001E4C  0E80               	movlw	128
  3414   001E4E  ECA0  F00F         	call	_LCD_sendbyte
  3415   001E52                     l3752:
  3416                           
  3417                           ;LCD.c: 105:     if (line == 2)
  3418   001E52  0E02               	movlw	2
  3419   001E54  1807               	xorwf	LCD_setline@line^0,w,c
  3420   001E56  A4D8               	btfss	status,2,c
  3421   001E58  EF30  F00F         	goto	u3961
  3422   001E5C  EF32  F00F         	goto	u3960
  3423   001E60                     u3961:
  3424   001E60  EF37  F00F         	goto	l63
  3425   001E64                     u3960:
  3426   001E64                     
  3427                           ;LCD.c: 106:         LCD_sendbyte(0xC0,0);
  3428   001E64  0E00               	movlw	0
  3429   001E66  6E05               	movwf	LCD_sendbyte@type^0,c
  3430   001E68  0EC0               	movlw	192
  3431   001E6A  ECA0  F00F         	call	_LCD_sendbyte
  3432   001E6E                     l63:
  3433   001E6E  0012               	return		;funcret
  3434   001E70                     __end_of_LCD_setline:
  3435                           	callstack 0
  3436                           
  3437 ;; *************** function _LCD_sendstring *****************
  3438 ;; Defined at:
  3439 ;;		line 112 in file "LCD.c"
  3440 ;; Parameters:    Size  Location     Type
  3441 ;;  string          1    6[COMRAM] PTR unsigned char 
  3442 ;;		 -> main@lightString(4), timeString(10), lightString(10), 
  3443 ;; Auto vars:     Size  Location     Type
  3444 ;;		None
  3445 ;; Return value:  Size  Location     Type
  3446 ;;                  1    wreg      void 
  3447 ;; Registers used:
  3448 ;;		wreg, fsr2l, fsr2h, status,2, status,0, cstack
  3449 ;; Tracked objects:
  3450 ;;		On entry : 0/0
  3451 ;;		On exit  : 0/0
  3452 ;;		Unchanged: 0/0
  3453 ;; Data sizes:     COMRAM   BANK0   BANK1   BANK2   BANK3   BANK4   BANK5   BANK6   BANK7   BANK8   BANK9  BANK10  BANK1
      +1  BANK12  BANK13
  3454 ;;      Params:         1       0       0       0       0       0       0       0       0       0       0       0       
      +0       0       0
  3455 ;;      Locals:         0       0       0       0       0       0       0       0       0       0       0       0       
      +0       0       0
  3456 ;;      Temps:          0       0       0       0       0       0       0       0       0       0       0       0       
      +0       0       0
  3457 ;;      Totals:         1       0       0       0       0       0       0       0       0       0       0       0       
      +0       0       0
  3458 ;;Total ram usage:        1 bytes
  3459 ;; Hardware stack levels used: 1
  3460 ;; Hardware stack levels required when called: 5
  3461 ;; This function calls:
  3462 ;;		_LCD_sendbyte
  3463 ;; This function is called by:
  3464 ;;		_disp_time
  3465 ;;		_main
  3466 ;;		_ADC2String
  3467 ;;		_Callibrate
  3468 ;; This function uses a non-reentrant model
  3469 ;;
  3470                           
  3471                           	psect	text20
  3472   001F12                     __ptext20:
  3473                           	callstack 0
  3474   001F12                     _LCD_sendstring:
  3475                           	callstack 24
  3476   001F12                     
  3477                           ;LCD.c: 112: void LCD_sendstring(char *string);LCD.c: 113: {;LCD.c: 114:  while(*string 
      +                          != 0){
  3478   001F12  EF94  F00F         	goto	l3762
  3479   001F16                     l3758:
  3480                           
  3481                           ;LCD.c: 115:   LCD_sendbyte(*string++,1);
  3482   001F16  0E01               	movlw	1
  3483   001F18  6E05               	movwf	LCD_sendbyte@type^0,c
  3484   001F1A  5007               	movf	LCD_sendstring@string^0,w,c
  3485   001F1C  6ED9               	movwf	fsr2l,c
  3486   001F1E  6ADA               	clrf	fsr2h,c
  3487   001F20  50DF               	movf	indf2,w,c
  3488   001F22  ECA0  F00F         	call	_LCD_sendbyte
  3489   001F26  2A07               	incf	LCD_sendstring@string^0,f,c
  3490   001F28                     l3762:
  3491                           
  3492                           ;LCD.c: 114:  while(*string != 0){
  3493   001F28  5007               	movf	LCD_sendstring@string^0,w,c
  3494   001F2A  6ED9               	movwf	fsr2l,c
  3495   001F2C  6ADA               	clrf	fsr2h,c
  3496   001F2E  50DF               	movf	indf2,w,c
  3497   001F30  A4D8               	btfss	status,2,c
  3498   001F32  EF9D  F00F         	goto	u3971
  3499   001F36  EF9F  F00F         	goto	u3970
  3500   001F3A                     u3971:
  3501   001F3A  EF8B  F00F         	goto	l3758
  3502   001F3E                     u3970:
  3503   001F3E  0012               	return		;funcret
  3504   001F40                     __end_of_LCD_sendstring:
  3505                           	callstack 0
  3506                           
  3507 ;; *************** function _DST_adjust *****************
  3508 ;; Defined at:
  3509 ;;		line 96 in file "datetime.c"
  3510 ;; Parameters:    Size  Location     Type
  3511 ;;  month           2    3[COMRAM] unsigned int 
  3512 ;;  hour            2    5[COMRAM] unsigned int 
  3513 ;; Auto vars:     Size  Location     Type
  3514 ;;		None
  3515 ;; Return value:  Size  Location     Type
  3516 ;;                  2    3[COMRAM] unsigned int 
  3517 ;; Registers used:
  3518 ;;		wreg, status,2, status,0
  3519 ;; Tracked objects:
  3520 ;;		On entry : 0/0
  3521 ;;		On exit  : 0/0
  3522 ;;		Unchanged: 0/0
  3523 ;; Data sizes:     COMRAM   BANK0   BANK1   BANK2   BANK3   BANK4   BANK5   BANK6   BANK7   BANK8   BANK9  BANK10  BANK1
      +1  BANK12  BANK13
  3524 ;;      Params:         4       0       0       0       0       0       0       0       0       0       0       0       
      +0       0       0
  3525 ;;      Locals:         0       0       0       0       0       0       0       0       0       0       0       0       
      +0       0       0
  3526 ;;      Temps:          0       0       0       0       0       0       0       0       0       0       0       0       
      +0       0       0
  3527 ;;      Totals:         4       0       0       0       0       0       0       0       0       0       0       0       
      +0       0       0
  3528 ;;Total ram usage:        4 bytes
  3529 ;; Hardware stack levels used: 1
  3530 ;; Hardware stack levels required when called: 2
  3531 ;; This function calls:
  3532 ;;		Nothing
  3533 ;; This function is called by:
  3534 ;;		_disp_time
  3535 ;; This function uses a non-reentrant model
  3536 ;;
  3537                           
  3538                           	psect	text21
  3539   001AB6                     __ptext21:
  3540                           	callstack 0
  3541   001AB6                     _DST_adjust:
  3542                           	callstack 27
  3543   001AB6                     
  3544                           ;datetime.c: 96: unsigned int DST_adjust(unsigned int month,unsigned int hour);datetime.
      +                          c: 97: {;datetime.c: 98:     if (month == 3 && hour == 1 && LATHbits.LATH3 == 0)
  3545   001AB6  0E03               	movlw	3
  3546   001AB8  1804               	xorwf	DST_adjust@month^0,w,c
  3547   001ABA  1005               	iorwf	(DST_adjust@month+1)^0,w,c
  3548   001ABC  A4D8               	btfss	status,2,c
  3549   001ABE  EF63  F00D         	goto	u4161
  3550   001AC2  EF65  F00D         	goto	u4160
  3551   001AC6                     u4161:
  3552   001AC6  EF7A  F00D         	goto	l3850
  3553   001ACA                     u4160:
  3554   001ACA  0406               	decf	DST_adjust@hour^0,w,c
  3555   001ACC  1007               	iorwf	(DST_adjust@hour+1)^0,w,c
  3556   001ACE  A4D8               	btfss	status,2,c
  3557   001AD0  EF6C  F00D         	goto	u4171
  3558   001AD4  EF6E  F00D         	goto	u4170
  3559   001AD8                     u4171:
  3560   001AD8  EF7A  F00D         	goto	l3850
  3561   001ADC                     u4170:
  3562   001ADC  B680               	btfsc	128,3,c	;volatile
  3563   001ADE  EF73  F00D         	goto	u4181
  3564   001AE2  EF75  F00D         	goto	u4180
  3565   001AE6                     u4181:
  3566   001AE6  EF7A  F00D         	goto	l3850
  3567   001AEA                     u4180:
  3568   001AEA                     
  3569                           ;datetime.c: 99:     {;datetime.c: 100:         hour = 2;
  3570   001AEA  0E00               	movlw	0
  3571   001AEC  6E07               	movwf	(DST_adjust@hour+1)^0,c
  3572   001AEE  0E02               	movlw	2
  3573   001AF0  6E06               	movwf	DST_adjust@hour^0,c
  3574   001AF2                     
  3575                           ;datetime.c: 102:         LATHbits.LATH3 = 1;
  3576   001AF2  8680               	bsf	128,3,c	;volatile
  3577   001AF4                     l3850:
  3578                           
  3579                           ;datetime.c: 104:     if (month == 10 && hour == 2 && LATHbits.LATH3 == 1)
  3580   001AF4  0E0A               	movlw	10
  3581   001AF6  1804               	xorwf	DST_adjust@month^0,w,c
  3582   001AF8  1005               	iorwf	(DST_adjust@month+1)^0,w,c
  3583   001AFA  A4D8               	btfss	status,2,c
  3584   001AFC  EF82  F00D         	goto	u4191
  3585   001B00  EF84  F00D         	goto	u4190
  3586   001B04                     u4191:
  3587   001B04  EF9A  F00D         	goto	l3860
  3588   001B08                     u4190:
  3589   001B08  0E02               	movlw	2
  3590   001B0A  1806               	xorwf	DST_adjust@hour^0,w,c
  3591   001B0C  1007               	iorwf	(DST_adjust@hour+1)^0,w,c
  3592   001B0E  A4D8               	btfss	status,2,c
  3593   001B10  EF8C  F00D         	goto	u4201
  3594   001B14  EF8E  F00D         	goto	u4200
  3595   001B18                     u4201:
  3596   001B18  EF9A  F00D         	goto	l3860
  3597   001B1C                     u4200:
  3598   001B1C  A680               	btfss	128,3,c	;volatile
  3599   001B1E  EF93  F00D         	goto	u4211
  3600   001B22  EF95  F00D         	goto	u4210
  3601   001B26                     u4211:
  3602   001B26  EF9A  F00D         	goto	l3860
  3603   001B2A                     u4210:
  3604   001B2A                     
  3605                           ;datetime.c: 105:     {;datetime.c: 106:         hour = 1;
  3606   001B2A  0E00               	movlw	0
  3607   001B2C  6E07               	movwf	(DST_adjust@hour+1)^0,c
  3608   001B2E  0E01               	movlw	1
  3609   001B30  6E06               	movwf	DST_adjust@hour^0,c
  3610   001B32                     
  3611                           ;datetime.c: 108:         LATHbits.LATH3 = 0;
  3612   001B32  9680               	bcf	128,3,c	;volatile
  3613   001B34                     l3860:
  3614                           
  3615                           ;datetime.c: 110:     return hour;
  3616   001B34  C006  F004         	movff	DST_adjust@hour,?_DST_adjust
  3617   001B38  C007  F005         	movff	DST_adjust@hour+1,?_DST_adjust+1
  3618   001B3C  0012               	return		;funcret
  3619   001B3E                     __end_of_DST_adjust:
  3620                           	callstack 0
  3621                           
  3622 ;; *************** function _Timer0_init *****************
  3623 ;; Defined at:
  3624 ;;		line 7 in file "timers.c"
  3625 ;; Parameters:    Size  Location     Type
  3626 ;;		None
  3627 ;; Auto vars:     Size  Location     Type
  3628 ;;		None
  3629 ;; Return value:  Size  Location     Type
  3630 ;;                  1    wreg      void 
  3631 ;; Registers used:
  3632 ;;		wreg, status,2
  3633 ;; Tracked objects:
  3634 ;;		On entry : 0/0
  3635 ;;		On exit  : 0/0
  3636 ;;		Unchanged: 0/0
  3637 ;; Data sizes:     COMRAM   BANK0   BANK1   BANK2   BANK3   BANK4   BANK5   BANK6   BANK7   BANK8   BANK9  BANK10  BANK1
      +1  BANK12  BANK13
  3638 ;;      Params:         0       0       0       0       0       0       0       0       0       0       0       0       
      +0       0       0
  3639 ;;      Locals:         0       0       0       0       0       0       0       0       0       0       0       0       
      +0       0       0
  3640 ;;      Temps:          0       0       0       0       0       0       0       0       0       0       0       0       
      +0       0       0
  3641 ;;      Totals:         0       0       0       0       0       0       0       0       0       0       0       0       
      +0       0       0
  3642 ;;Total ram usage:        0 bytes
  3643 ;; Hardware stack levels used: 1
  3644 ;; Hardware stack levels required when called: 2
  3645 ;; This function calls:
  3646 ;;		Nothing
  3647 ;; This function is called by:
  3648 ;;		_main
  3649 ;; This function uses a non-reentrant model
  3650 ;;
  3651                           
  3652                           	psect	text22
  3653   001FB8                     __ptext22:
  3654                           	callstack 0
  3655   001FB8                     _Timer0_init:
  3656                           	callstack 28
  3657   001FB8                     
  3658                           ;timers.c: 9:     T0CON1bits.T0CS=0b010;
  3659   001FB8  50D6               	movf	214,w,c	;volatile
  3660   001FBA  0B1F               	andlw	-225
  3661   001FBC  0940               	iorlw	64
  3662   001FBE  6ED6               	movwf	214,c	;volatile
  3663   001FC0                     
  3664                           ;timers.c: 10:     T0CON1bits.T0ASYNC=1;
  3665   001FC0  88D6               	bsf	214,4,c	;volatile
  3666                           
  3667                           ;timers.c: 12:     T0CON1bits.T0CKPS=0b1000;
  3668   001FC2  50D6               	movf	214,w,c	;volatile
  3669   001FC4  0BF0               	andlw	-16
  3670   001FC6  0908               	iorlw	8
  3671   001FC8  6ED6               	movwf	214,c	;volatile
  3672   001FCA                     
  3673                           ;timers.c: 13:     T0CON0bits.T016BIT=1;
  3674   001FCA  88D5               	bsf	213,4,c	;volatile
  3675                           
  3676                           ;timers.c: 16:     TMR0H=0b00001011;
  3677   001FCC  0E0B               	movlw	11
  3678   001FCE  6ED4               	movwf	212,c	;volatile
  3679                           
  3680                           ;timers.c: 17:     TMR0L=0b11011011;
  3681   001FD0  0EDB               	movlw	219
  3682   001FD2  6ED3               	movwf	211,c	;volatile
  3683   001FD4                     
  3684                           ;timers.c: 18:     T0CON0bits.T0EN=1;
  3685   001FD4  8ED5               	bsf	213,7,c	;volatile
  3686   001FD6  0012               	return		;funcret
  3687   001FD8                     __end_of_Timer0_init:
  3688                           	callstack 0
  3689                           
  3690 ;; *************** function _LEDarray_init *****************
  3691 ;; Defined at:
  3692 ;;		line 8 in file "LEDarray.c"
  3693 ;; Parameters:    Size  Location     Type
  3694 ;;		None
  3695 ;; Auto vars:     Size  Location     Type
  3696 ;;		None
  3697 ;; Return value:  Size  Location     Type
  3698 ;;                  1    wreg      void 
  3699 ;; Registers used:
  3700 ;;		None
  3701 ;; Tracked objects:
  3702 ;;		On entry : 0/0
  3703 ;;		On exit  : 0/0
  3704 ;;		Unchanged: 0/0
  3705 ;; Data sizes:     COMRAM   BANK0   BANK1   BANK2   BANK3   BANK4   BANK5   BANK6   BANK7   BANK8   BANK9  BANK10  BANK1
      +1  BANK12  BANK13
  3706 ;;      Params:         0       0       0       0       0       0       0       0       0       0       0       0       
      +0       0       0
  3707 ;;      Locals:         0       0       0       0       0       0       0       0       0       0       0       0       
      +0       0       0
  3708 ;;      Temps:          0       0       0       0       0       0       0       0       0       0       0       0       
      +0       0       0
  3709 ;;      Totals:         0       0       0       0       0       0       0       0       0       0       0       0       
      +0       0       0
  3710 ;;Total ram usage:        0 bytes
  3711 ;; Hardware stack levels used: 1
  3712 ;; Hardware stack levels required when called: 2
  3713 ;; This function calls:
  3714 ;;		Nothing
  3715 ;; This function is called by:
  3716 ;;		_main
  3717 ;; This function uses a non-reentrant model
  3718 ;;
  3719                           
  3720                           	psect	text23
  3721   001E70                     __ptext23:
  3722                           	callstack 0
  3723   001E70                     _LEDarray_init:
  3724                           	callstack 28
  3725   001E70                     
  3726                           ;LEDarray.c: 10:     TRISGbits.TRISG0 = 0;
  3727   001E70  9087               	bcf	135,0,c	;volatile
  3728                           
  3729                           ;LEDarray.c: 11:  TRISGbits.TRISG1 = 0;
  3730   001E72  9287               	bcf	135,1,c	;volatile
  3731                           
  3732                           ;LEDarray.c: 12:     TRISAbits.TRISA2 = 0;
  3733   001E74  9481               	bcf	129,2,c	;volatile
  3734                           
  3735                           ;LEDarray.c: 13:     TRISFbits.TRISF6 = 0;
  3736   001E76  9C86               	bcf	134,6,c	;volatile
  3737                           
  3738                           ;LEDarray.c: 14:     TRISAbits.TRISA4 = 0;
  3739   001E78  9881               	bcf	129,4,c	;volatile
  3740                           
  3741                           ;LEDarray.c: 15:     TRISAbits.TRISA5 = 0;
  3742   001E7A  9A81               	bcf	129,5,c	;volatile
  3743                           
  3744                           ;LEDarray.c: 16:     TRISFbits.TRISF0 = 0;
  3745   001E7C  9086               	bcf	134,0,c	;volatile
  3746                           
  3747                           ;LEDarray.c: 17:     TRISBbits.TRISB0 = 0;
  3748   001E7E  9082               	bcf	130,0,c	;volatile
  3749                           
  3750                           ;LEDarray.c: 18:     TRISBbits.TRISB1 = 0;
  3751   001E80  9282               	bcf	130,1,c	;volatile
  3752                           
  3753                           ;LEDarray.c: 20:     LATGbits.LATG0 = 0;
  3754   001E82  907F               	bcf	127,0,c	;volatile
  3755                           
  3756                           ;LEDarray.c: 21:     LATGbits.LATG1 = 0;
  3757   001E84  927F               	bcf	127,1,c	;volatile
  3758                           
  3759                           ;LEDarray.c: 22:     LATAbits.LATA2 = 0;
  3760   001E86  9479               	bcf	121,2,c	;volatile
  3761                           
  3762                           ;LEDarray.c: 23:     LATFbits.LATF6 = 0;
  3763   001E88  9C7E               	bcf	126,6,c	;volatile
  3764                           
  3765                           ;LEDarray.c: 24:     LATAbits.LATA4 = 0;
  3766   001E8A  9879               	bcf	121,4,c	;volatile
  3767                           
  3768                           ;LEDarray.c: 25:     LATAbits.LATA5 = 0;
  3769   001E8C  9A79               	bcf	121,5,c	;volatile
  3770                           
  3771                           ;LEDarray.c: 26:     LATFbits.LATF0 = 0;
  3772   001E8E  907E               	bcf	126,0,c	;volatile
  3773                           
  3774                           ;LEDarray.c: 27:     LATBbits.LATB0 = 0;
  3775   001E90  907A               	bcf	122,0,c	;volatile
  3776                           
  3777                           ;LEDarray.c: 28:     LATBbits.LATB1 = 0;
  3778   001E92  927A               	bcf	122,1,c	;volatile
  3779                           
  3780                           ;LEDarray.c: 30:     ANSELGbits.ANSELG0=0;
  3781   001E94  010E               	movlb	14	; () banked
  3782   001E96  91BC               	bcf	188,0,b	;volatile
  3783                           
  3784                           ;LEDarray.c: 31:     ANSELGbits.ANSELG1=0;
  3785   001E98  93BC               	bcf	188,1,b	;volatile
  3786                           
  3787                           ;LEDarray.c: 32:     ANSELAbits.ANSELA2=0;
  3788   001E9A  9592               	bcf	146,2,b	;volatile
  3789                           
  3790                           ;LEDarray.c: 33:     ANSELFbits.ANSELF6=0;
  3791   001E9C  9DB4               	bcf	180,6,b	;volatile
  3792                           
  3793                           ;LEDarray.c: 34:     ANSELAbits.ANSELA4=0;
  3794   001E9E  9992               	bcf	146,4,b	;volatile
  3795                           
  3796                           ;LEDarray.c: 35:     ANSELAbits.ANSELA5=0;
  3797   001EA0  9B92               	bcf	146,5,b	;volatile
  3798                           
  3799                           ;LEDarray.c: 36:     ANSELFbits.ANSELF0=0;
  3800   001EA2  91B4               	bcf	180,0,b	;volatile
  3801                           
  3802                           ;LEDarray.c: 37:     ANSELBbits.ANSELB0=0;
  3803   001EA4  919A               	bcf	154,0,b	;volatile
  3804                           
  3805                           ;LEDarray.c: 38:     ANSELBbits.ANSELB1=0;
  3806   001EA6  939A               	bcf	154,1,b	;volatile
  3807   001EA8                     
  3808                           ; BSR set to: 14
  3809   001EA8  0012               	return		;funcret
  3810   001EAA                     __end_of_LEDarray_init:
  3811                           	callstack 0
  3812                           
  3813 ;; *************** function _LCD_Init *****************
  3814 ;; Defined at:
  3815 ;;		line 51 in file "LCD.c"
  3816 ;; Parameters:    Size  Location     Type
  3817 ;;		None
  3818 ;; Auto vars:     Size  Location     Type
  3819 ;;		None
  3820 ;; Return value:  Size  Location     Type
  3821 ;;                  1    wreg      void 
  3822 ;; Registers used:
  3823 ;;		wreg, status,2, status,0, cstack
  3824 ;; Tracked objects:
  3825 ;;		On entry : 0/0
  3826 ;;		On exit  : 0/0
  3827 ;;		Unchanged: 0/0
  3828 ;; Data sizes:     COMRAM   BANK0   BANK1   BANK2   BANK3   BANK4   BANK5   BANK6   BANK7   BANK8   BANK9  BANK10  BANK1
      +1  BANK12  BANK13
  3829 ;;      Params:         0       0       0       0       0       0       0       0       0       0       0       0       
      +0       0       0
  3830 ;;      Locals:         0       0       0       0       0       0       0       0       0       0       0       0       
      +0       0       0
  3831 ;;      Temps:          2       0       0       0       0       0       0       0       0       0       0       0       
      +0       0       0
  3832 ;;      Totals:         2       0       0       0       0       0       0       0       0       0       0       0       
      +0       0       0
  3833 ;;Total ram usage:        2 bytes
  3834 ;; Hardware stack levels used: 1
  3835 ;; Hardware stack levels required when called: 5
  3836 ;; This function calls:
  3837 ;;		_LCD_sendbyte
  3838 ;;		_LCD_sendnibble
  3839 ;; This function is called by:
  3840 ;;		_main
  3841 ;; This function uses a non-reentrant model
  3842 ;;
  3843                           
  3844                           	psect	text24
  3845   0014F4                     __ptext24:
  3846                           	callstack 0
  3847   0014F4                     _LCD_Init:
  3848                           	callstack 25
  3849   0014F4                     
  3850                           ;LCD.c: 54:     TRISCbits.TRISC6 = 0;
  3851   0014F4  9C83               	bcf	131,6,c	;volatile
  3852                           
  3853                           ;LCD.c: 55:     TRISCbits.TRISC2 = 0;
  3854   0014F6  9483               	bcf	131,2,c	;volatile
  3855                           
  3856                           ;LCD.c: 56:     TRISBbits.TRISB3 = 0;
  3857   0014F8  9682               	bcf	130,3,c	;volatile
  3858                           
  3859                           ;LCD.c: 57:     TRISBbits.TRISB2 = 0;
  3860   0014FA  9482               	bcf	130,2,c	;volatile
  3861                           
  3862                           ;LCD.c: 58:     TRISEbits.TRISE3 = 0;
  3863   0014FC  9685               	bcf	133,3,c	;volatile
  3864                           
  3865                           ;LCD.c: 59:     TRISEbits.TRISE1 = 0;
  3866   0014FE  9285               	bcf	133,1,c	;volatile
  3867                           
  3868                           ;LCD.c: 62:     LATCbits.LATC6 = 0;
  3869   001500  9C7B               	bcf	123,6,c	;volatile
  3870                           
  3871                           ;LCD.c: 63:     LATCbits.LATC2 = 0;
  3872   001502  947B               	bcf	123,2,c	;volatile
  3873                           
  3874                           ;LCD.c: 64:     LATBbits.LATB3 = 0;
  3875   001504  967A               	bcf	122,3,c	;volatile
  3876                           
  3877                           ;LCD.c: 65:     LATBbits.LATB2 = 0;
  3878   001506  947A               	bcf	122,2,c	;volatile
  3879                           
  3880                           ;LCD.c: 66:     LATEbits.LATE3 = 0;
  3881   001508  967D               	bcf	125,3,c	;volatile
  3882                           
  3883                           ;LCD.c: 67:     LATEbits.LATE1 = 0;
  3884   00150A  927D               	bcf	125,1,c	;volatile
  3885   00150C                     
  3886                           ;LCD.c: 72:     _delay((unsigned long)((150)*(64000000/4000.0)));
  3887   00150C  0E0D               	movlw	13
  3888   00150E  6E08               	movwf	(??_LCD_Init+1)^0,c
  3889   001510  0E2D               	movlw	45
  3890   001512  6E07               	movwf	??_LCD_Init^0,c
  3891   001514  0ED8               	movlw	216
  3892   001516                     u4487:
  3893   001516  2EE8               	decfsz	wreg,f,c
  3894   001518  D7FE               	bra	u4487
  3895   00151A  2E07               	decfsz	??_LCD_Init^0,f,c
  3896   00151C  D7FC               	bra	u4487
  3897   00151E  2E08               	decfsz	(??_LCD_Init+1)^0,f,c
  3898   001520  D7FA               	bra	u4487
  3899   001522                     
  3900                           ;LCD.c: 73:     LCD_sendnibble(0b0011);
  3901   001522  0E03               	movlw	3
  3902   001524  EC18  F00E         	call	_LCD_sendnibble
  3903   001528                     
  3904                           ;LCD.c: 74:     _delay((unsigned long)((5)*(64000000/4000.0)));
  3905   001528  0E68               	movlw	104
  3906   00152A  6E07               	movwf	??_LCD_Init^0,c
  3907   00152C  0EE4               	movlw	228
  3908   00152E                     u4497:
  3909   00152E  2EE8               	decfsz	wreg,f,c
  3910   001530  D7FE               	bra	u4497
  3911   001532  2E07               	decfsz	??_LCD_Init^0,f,c
  3912   001534  D7FC               	bra	u4497
  3913   001536  D000               	nop2	
  3914                           
  3915                           ;LCD.c: 75:     LCD_sendnibble(0b0011);
  3916   001538  0E03               	movlw	3
  3917   00153A  EC18  F00E         	call	_LCD_sendnibble
  3918   00153E                     
  3919                           ;LCD.c: 76:     _delay((unsigned long)((200)*(64000000/4000000.0)));
  3920   00153E  0E05               	movlw	5
  3921   001540  6E07               	movwf	??_LCD_Init^0,c
  3922   001542  0E26               	movlw	38
  3923   001544                     u4507:
  3924   001544  2EE8               	decfsz	wreg,f,c
  3925   001546  D7FE               	bra	u4507
  3926   001548  2E07               	decfsz	??_LCD_Init^0,f,c
  3927   00154A  D7FC               	bra	u4507
  3928   00154C  D000               	nop2	
  3929   00154E                     
  3930                           ;LCD.c: 77:     LCD_sendnibble(0b0011);
  3931   00154E  0E03               	movlw	3
  3932   001550  EC18  F00E         	call	_LCD_sendnibble
  3933                           
  3934                           ;LCD.c: 78:     _delay((unsigned long)((200)*(64000000/4000000.0)));
  3935   001554  0E05               	movlw	5
  3936   001556  6E07               	movwf	??_LCD_Init^0,c
  3937   001558  0E26               	movlw	38
  3938   00155A                     u4517:
  3939   00155A  2EE8               	decfsz	wreg,f,c
  3940   00155C  D7FE               	bra	u4517
  3941   00155E  2E07               	decfsz	??_LCD_Init^0,f,c
  3942   001560  D7FC               	bra	u4517
  3943   001562  D000               	nop2	
  3944   001564                     
  3945                           ;LCD.c: 79:     LCD_sendnibble(0b0010);
  3946   001564  0E02               	movlw	2
  3947   001566  EC18  F00E         	call	_LCD_sendnibble
  3948   00156A                     
  3949                           ;LCD.c: 80:     _delay((unsigned long)((200)*(64000000/4000000.0)));
  3950   00156A  0E05               	movlw	5
  3951   00156C  6E07               	movwf	??_LCD_Init^0,c
  3952   00156E  0E26               	movlw	38
  3953   001570                     u4527:
  3954   001570  2EE8               	decfsz	wreg,f,c
  3955   001572  D7FE               	bra	u4527
  3956   001574  2E07               	decfsz	??_LCD_Init^0,f,c
  3957   001576  D7FC               	bra	u4527
  3958   001578  D000               	nop2	
  3959   00157A                     
  3960                           ;LCD.c: 82:     LCD_sendbyte(0b00101100,0);
  3961   00157A  0E00               	movlw	0
  3962   00157C  6E05               	movwf	LCD_sendbyte@type^0,c
  3963   00157E  0E2C               	movlw	44
  3964   001580  ECA0  F00F         	call	_LCD_sendbyte
  3965   001584                     
  3966                           ;LCD.c: 83:     _delay((unsigned long)((100)*(64000000/4000000.0)));
  3967   001584  0EE4               	movlw	228
  3968   001586                     u4537:
  3969   001586  D000               	nop2	
  3970   001588  D000               	nop2	
  3971   00158A  2EE8               	decfsz	wreg,f,c
  3972   00158C  D7FC               	bra	u4537
  3973   00158E  D000               	nop2	
  3974   001590  D000               	nop2	
  3975   001592                     
  3976                           ;LCD.c: 84:     LCD_sendbyte(0b00001000,0);
  3977   001592  0E00               	movlw	0
  3978   001594  6E05               	movwf	LCD_sendbyte@type^0,c
  3979   001596  0E08               	movlw	8
  3980   001598  ECA0  F00F         	call	_LCD_sendbyte
  3981   00159C                     
  3982                           ;LCD.c: 85:     _delay((unsigned long)((100)*(64000000/4000000.0)));
  3983   00159C  0EE4               	movlw	228
  3984   00159E                     u4547:
  3985   00159E  D000               	nop2	
  3986   0015A0  D000               	nop2	
  3987   0015A2  2EE8               	decfsz	wreg,f,c
  3988   0015A4  D7FC               	bra	u4547
  3989   0015A6  D000               	nop2	
  3990   0015A8  D000               	nop2	
  3991   0015AA                     
  3992                           ;LCD.c: 86:     LCD_sendbyte(0b00000001,0);
  3993   0015AA  0E00               	movlw	0
  3994   0015AC  6E05               	movwf	LCD_sendbyte@type^0,c
  3995   0015AE  0E01               	movlw	1
  3996   0015B0  ECA0  F00F         	call	_LCD_sendbyte
  3997   0015B4                     
  3998                           ;LCD.c: 87:     _delay((unsigned long)((5)*(64000000/4000.0)));
  3999   0015B4  0E68               	movlw	104
  4000   0015B6  6E07               	movwf	??_LCD_Init^0,c
  4001   0015B8  0EE4               	movlw	228
  4002   0015BA                     u4557:
  4003   0015BA  2EE8               	decfsz	wreg,f,c
  4004   0015BC  D7FE               	bra	u4557
  4005   0015BE  2E07               	decfsz	??_LCD_Init^0,f,c
  4006   0015C0  D7FC               	bra	u4557
  4007   0015C2  D000               	nop2	
  4008   0015C4                     
  4009                           ;LCD.c: 88:     LCD_sendbyte(0b00000110,0);
  4010   0015C4  0E00               	movlw	0
  4011   0015C6  6E05               	movwf	LCD_sendbyte@type^0,c
  4012   0015C8  0E06               	movlw	6
  4013   0015CA  ECA0  F00F         	call	_LCD_sendbyte
  4014   0015CE                     
  4015                           ;LCD.c: 89:     _delay((unsigned long)((100)*(64000000/4000000.0)));
  4016   0015CE  0EE4               	movlw	228
  4017   0015D0                     u4567:
  4018   0015D0  D000               	nop2	
  4019   0015D2  D000               	nop2	
  4020   0015D4  2EE8               	decfsz	wreg,f,c
  4021   0015D6  D7FC               	bra	u4567
  4022   0015D8  D000               	nop2	
  4023   0015DA  D000               	nop2	
  4024   0015DC                     
  4025                           ;LCD.c: 92:     LCD_sendbyte(0b00001100,0);
  4026   0015DC  0E00               	movlw	0
  4027   0015DE  6E05               	movwf	LCD_sendbyte@type^0,c
  4028   0015E0  0E0C               	movlw	12
  4029   0015E2  ECA0  F00F         	call	_LCD_sendbyte
  4030   0015E6                     
  4031                           ;LCD.c: 93:     _delay((unsigned long)((100)*(64000000/4000000.0)));
  4032   0015E6  0EE4               	movlw	228
  4033   0015E8                     u4577:
  4034   0015E8  D000               	nop2	
  4035   0015EA  D000               	nop2	
  4036   0015EC  2EE8               	decfsz	wreg,f,c
  4037   0015EE  D7FC               	bra	u4577
  4038   0015F0  D000               	nop2	
  4039   0015F2  D000               	nop2	
  4040   0015F4  0012               	return		;funcret
  4041   0015F6                     __end_of_LCD_Init:
  4042                           	callstack 0
  4043                           
  4044 ;; *************** function _LCD_sendbyte *****************
  4045 ;; Defined at:
  4046 ;;		line 36 in file "LCD.c"
  4047 ;; Parameters:    Size  Location     Type
  4048 ;;  Byte            1    wreg     unsigned char 
  4049 ;;  type            1    4[COMRAM] unsigned char 
  4050 ;; Auto vars:     Size  Location     Type
  4051 ;;  Byte            1    5[COMRAM] unsigned char 
  4052 ;; Return value:  Size  Location     Type
  4053 ;;                  1    wreg      void 
  4054 ;; Registers used:
  4055 ;;		wreg, status,2, status,0, cstack
  4056 ;; Tracked objects:
  4057 ;;		On entry : 0/0
  4058 ;;		On exit  : 0/0
  4059 ;;		Unchanged: 0/0
  4060 ;; Data sizes:     COMRAM   BANK0   BANK1   BANK2   BANK3   BANK4   BANK5   BANK6   BANK7   BANK8   BANK9  BANK10  BANK1
      +1  BANK12  BANK13
  4061 ;;      Params:         1       0       0       0       0       0       0       0       0       0       0       0       
      +0       0       0
  4062 ;;      Locals:         1       0       0       0       0       0       0       0       0       0       0       0       
      +0       0       0
  4063 ;;      Temps:          0       0       0       0       0       0       0       0       0       0       0       0       
      +0       0       0
  4064 ;;      Totals:         2       0       0       0       0       0       0       0       0       0       0       0       
      +0       0       0
  4065 ;;Total ram usage:        2 bytes
  4066 ;; Hardware stack levels used: 1
  4067 ;; Hardware stack levels required when called: 4
  4068 ;; This function calls:
  4069 ;;		_LCD_sendnibble
  4070 ;; This function is called by:
  4071 ;;		_LCD_Init
  4072 ;;		_LCD_setline
  4073 ;;		_LCD_sendstring
  4074 ;;		_LCD_scroll
  4075 ;; This function uses a non-reentrant model
  4076 ;;
  4077                           
  4078                           	psect	text25
  4079   001F40                     __ptext25:
  4080                           	callstack 0
  4081   001F40                     _LCD_sendbyte:
  4082                           	callstack 24
  4083                           
  4084                           ;incstack = 0
  4085                           ;LCD_sendbyte@Byte stored from wreg
  4086   001F40  6E06               	movwf	LCD_sendbyte@Byte^0,c
  4087   001F42                     
  4088                           ;LCD.c: 36: void LCD_sendbyte(unsigned char Byte, char type);LCD.c: 37: {;LCD.c: 39:    
      +                           LATCbits.LATC6 = type;
  4089   001F42  B005               	btfsc	LCD_sendbyte@type^0,0,c
  4090   001F44  D002               	bra	u3815
  4091   001F46  9C7B               	bcf	123,6,c	;volatile
  4092   001F48  D001               	bra	u3816
  4093   001F4A                     u3815:
  4094   001F4A  8C7B               	bsf	123,6,c	;volatile
  4095   001F4C                     u3816:
  4096   001F4C                     
  4097                           ;LCD.c: 41:     LCD_sendnibble(Byte >> 4);
  4098   001F4C  3806               	swapf	LCD_sendbyte@Byte^0,w,c
  4099   001F4E  0B0F               	andlw	15
  4100   001F50  EC18  F00E         	call	_LCD_sendnibble
  4101   001F54                     
  4102                           ;LCD.c: 42:     _delay((unsigned long)((50)*(64000000/4000000.0)));
  4103   001F54  0EA0               	movlw	160
  4104   001F56                     u4587:
  4105   001F56  D000               	nop2	
  4106   001F58  2EE8               	decfsz	wreg,f,c
  4107   001F5A  D7FD               	bra	u4587
  4108   001F5C                     
  4109                           ;LCD.c: 44:  LCD_sendnibble(Byte);
  4110   001F5C  5006               	movf	LCD_sendbyte@Byte^0,w,c
  4111   001F5E  EC18  F00E         	call	_LCD_sendnibble
  4112   001F62                     
  4113                           ;LCD.c: 45:     _delay((unsigned long)((50)*(64000000/4000000.0)));
  4114   001F62  0EA0               	movlw	160
  4115   001F64                     u4597:
  4116   001F64  D000               	nop2	
  4117   001F66  2EE8               	decfsz	wreg,f,c
  4118   001F68  D7FD               	bra	u4597
  4119   001F6A  0012               	return		;funcret
  4120   001F6C                     __end_of_LCD_sendbyte:
  4121                           	callstack 0
  4122                           
  4123 ;; *************** function _LCD_sendnibble *****************
  4124 ;; Defined at:
  4125 ;;		line 21 in file "LCD.c"
  4126 ;; Parameters:    Size  Location     Type
  4127 ;;  number          1    wreg     unsigned char 
  4128 ;; Auto vars:     Size  Location     Type
  4129 ;;  number          1    3[COMRAM] unsigned char 
  4130 ;; Return value:  Size  Location     Type
  4131 ;;                  1    wreg      void 
  4132 ;; Registers used:
  4133 ;;		wreg, cstack
  4134 ;; Tracked objects:
  4135 ;;		On entry : 0/0
  4136 ;;		On exit  : 0/0
  4137 ;;		Unchanged: 0/0
  4138 ;; Data sizes:     COMRAM   BANK0   BANK1   BANK2   BANK3   BANK4   BANK5   BANK6   BANK7   BANK8   BANK9  BANK10  BANK1
      +1  BANK12  BANK13
  4139 ;;      Params:         0       0       0       0       0       0       0       0       0       0       0       0       
      +0       0       0
  4140 ;;      Locals:         1       0       0       0       0       0       0       0       0       0       0       0       
      +0       0       0
  4141 ;;      Temps:          0       0       0       0       0       0       0       0       0       0       0       0       
      +0       0       0
  4142 ;;      Totals:         1       0       0       0       0       0       0       0       0       0       0       0       
      +0       0       0
  4143 ;;Total ram usage:        1 bytes
  4144 ;; Hardware stack levels used: 1
  4145 ;; Hardware stack levels required when called: 3
  4146 ;; This function calls:
  4147 ;;		_LCD_E_TOG
  4148 ;; This function is called by:
  4149 ;;		_LCD_sendbyte
  4150 ;;		_LCD_Init
  4151 ;; This function uses a non-reentrant model
  4152 ;;
  4153                           
  4154                           	psect	text26
  4155   001C30                     __ptext26:
  4156                           	callstack 0
  4157   001C30                     _LCD_sendnibble:
  4158                           	callstack 24
  4159                           
  4160                           ;incstack = 0
  4161                           ;LCD_sendnibble@number stored from wreg
  4162   001C30  6E04               	movwf	LCD_sendnibble@number^0,c
  4163   001C32                     
  4164                           ;LCD.c: 21: void LCD_sendnibble(unsigned char number);LCD.c: 22: {;LCD.c: 24:     if (nu
      +                          mber & 0b000000001) LATBbits.LATB3 = 1; else LATBbits.LATB3 = 0;
  4165   001C32  A004               	btfss	LCD_sendnibble@number^0,0,c
  4166   001C34  EF1E  F00E         	goto	u3721
  4167   001C38  EF20  F00E         	goto	u3720
  4168   001C3C                     u3721:
  4169   001C3C  EF23  F00E         	goto	l44
  4170   001C40                     u3720:
  4171   001C40  867A               	bsf	122,3,c	;volatile
  4172   001C42  EF24  F00E         	goto	l3620
  4173   001C46                     l44:
  4174   001C46  967A               	bcf	122,3,c	;volatile
  4175   001C48                     l3620:
  4176                           
  4177                           ;LCD.c: 25:     if (number & 0b000000010) LATBbits.LATB2 = 1; else LATBbits.LATB2 = 0;
  4178   001C48  A204               	btfss	LCD_sendnibble@number^0,1,c
  4179   001C4A  EF29  F00E         	goto	u3731
  4180   001C4E  EF2B  F00E         	goto	u3730
  4181   001C52                     u3731:
  4182   001C52  EF2E  F00E         	goto	l46
  4183   001C56                     u3730:
  4184   001C56  847A               	bsf	122,2,c	;volatile
  4185   001C58  EF2F  F00E         	goto	l3624
  4186   001C5C                     l46:
  4187   001C5C  947A               	bcf	122,2,c	;volatile
  4188   001C5E                     l3624:
  4189                           
  4190                           ;LCD.c: 26:     if (number & 0b000000100) LATEbits.LATE3 = 1; else LATEbits.LATE3 = 0;
  4191   001C5E  A404               	btfss	LCD_sendnibble@number^0,2,c
  4192   001C60  EF34  F00E         	goto	u3741
  4193   001C64  EF36  F00E         	goto	u3740
  4194   001C68                     u3741:
  4195   001C68  EF39  F00E         	goto	l48
  4196   001C6C                     u3740:
  4197   001C6C  867D               	bsf	125,3,c	;volatile
  4198   001C6E  EF3A  F00E         	goto	l3628
  4199   001C72                     l48:
  4200   001C72  967D               	bcf	125,3,c	;volatile
  4201   001C74                     l3628:
  4202                           
  4203                           ;LCD.c: 27:     if (number & 0b000001000) LATEbits.LATE1 = 1; else LATEbits.LATE1 = 0;
  4204   001C74  A604               	btfss	LCD_sendnibble@number^0,3,c
  4205   001C76  EF3F  F00E         	goto	u3751
  4206   001C7A  EF41  F00E         	goto	u3750
  4207   001C7E                     u3751:
  4208   001C7E  EF44  F00E         	goto	l50
  4209   001C82                     u3750:
  4210   001C82  827D               	bsf	125,1,c	;volatile
  4211   001C84  EF45  F00E         	goto	l3632
  4212   001C88                     l50:
  4213   001C88  927D               	bcf	125,1,c	;volatile
  4214   001C8A                     l3632:
  4215                           
  4216                           ;LCD.c: 28:     LCD_E_TOG();
  4217   001C8A  EC21  F010         	call	_LCD_E_TOG	;wreg free
  4218   001C8E                     
  4219                           ;LCD.c: 29:     _delay((unsigned long)((50)*(64000000/4000000.0)));
  4220   001C8E  0EA0               	movlw	160
  4221   001C90                     u4607:
  4222   001C90  D000               	nop2	
  4223   001C92  2EE8               	decfsz	wreg,f,c
  4224   001C94  D7FD               	bra	u4607
  4225   001C96  0012               	return		;funcret
  4226   001C98                     __end_of_LCD_sendnibble:
  4227                           	callstack 0
  4228                           
  4229 ;; *************** function _LCD_E_TOG *****************
  4230 ;; Defined at:
  4231 ;;		line 9 in file "LCD.c"
  4232 ;; Parameters:    Size  Location     Type
  4233 ;;		None
  4234 ;; Auto vars:     Size  Location     Type
  4235 ;;		None
  4236 ;; Return value:  Size  Location     Type
  4237 ;;                  1    wreg      void 
  4238 ;; Registers used:
  4239 ;;		wreg
  4240 ;; Tracked objects:
  4241 ;;		On entry : 0/0
  4242 ;;		On exit  : 0/0
  4243 ;;		Unchanged: 0/0
  4244 ;; Data sizes:     COMRAM   BANK0   BANK1   BANK2   BANK3   BANK4   BANK5   BANK6   BANK7   BANK8   BANK9  BANK10  BANK1
      +1  BANK12  BANK13
  4245 ;;      Params:         0       0       0       0       0       0       0       0       0       0       0       0       
      +0       0       0
  4246 ;;      Locals:         0       0       0       0       0       0       0       0       0       0       0       0       
      +0       0       0
  4247 ;;      Temps:          0       0       0       0       0       0       0       0       0       0       0       0       
      +0       0       0
  4248 ;;      Totals:         0       0       0       0       0       0       0       0       0       0       0       0       
      +0       0       0
  4249 ;;Total ram usage:        0 bytes
  4250 ;; Hardware stack levels used: 1
  4251 ;; Hardware stack levels required when called: 2
  4252 ;; This function calls:
  4253 ;;		Nothing
  4254 ;; This function is called by:
  4255 ;;		_LCD_sendnibble
  4256 ;; This function uses a non-reentrant model
  4257 ;;
  4258                           
  4259                           	psect	text27
  4260   002042                     __ptext27:
  4261                           	callstack 0
  4262   002042                     _LCD_E_TOG:
  4263                           	callstack 24
  4264   002042                     
  4265                           ;LCD.c: 12:     LATCbits.LATC2 = 1;
  4266   002042  847B               	bsf	123,2,c	;volatile
  4267   002044                     
  4268                           ;LCD.c: 13:  _delay((unsigned long)((5)*(64000000/4000000.0)));
  4269   002044  0E1A               	movlw	26
  4270   002046                     u4617:
  4271   002046  2EE8               	decfsz	wreg,f,c
  4272   002048  D7FE               	bra	u4617
  4273   00204A  D000               	nop2	
  4274   00204C                     
  4275                           ;LCD.c: 15:     LATCbits.LATC2 = 0;
  4276   00204C  947B               	bcf	123,2,c	;volatile
  4277   00204E  0012               	return		;funcret
  4278   002050                     __end_of_LCD_E_TOG:
  4279                           	callstack 0
  4280                           
  4281 ;; *************** function _Interrupts_init *****************
  4282 ;; Defined at:
  4283 ;;		line 9 in file "interrupts.c"
  4284 ;; Parameters:    Size  Location     Type
  4285 ;;		None
  4286 ;; Auto vars:     Size  Location     Type
  4287 ;;		None
  4288 ;; Return value:  Size  Location     Type
  4289 ;;                  1    wreg      void 
  4290 ;; Registers used:
  4291 ;;		None
  4292 ;; Tracked objects:
  4293 ;;		On entry : 0/0
  4294 ;;		On exit  : 0/0
  4295 ;;		Unchanged: 0/0
  4296 ;; Data sizes:     COMRAM   BANK0   BANK1   BANK2   BANK3   BANK4   BANK5   BANK6   BANK7   BANK8   BANK9  BANK10  BANK1
      +1  BANK12  BANK13
  4297 ;;      Params:         0       0       0       0       0       0       0       0       0       0       0       0       
      +0       0       0
  4298 ;;      Locals:         0       0       0       0       0       0       0       0       0       0       0       0       
      +0       0       0
  4299 ;;      Temps:          0       0       0       0       0       0       0       0       0       0       0       0       
      +0       0       0
  4300 ;;      Totals:         0       0       0       0       0       0       0       0       0       0       0       0       
      +0       0       0
  4301 ;;Total ram usage:        0 bytes
  4302 ;; Hardware stack levels used: 1
  4303 ;; Hardware stack levels required when called: 2
  4304 ;; This function calls:
  4305 ;;		Nothing
  4306 ;; This function is called by:
  4307 ;;		_main
  4308 ;; This function uses a non-reentrant model
  4309 ;;
  4310                           
  4311                           	psect	text28
  4312   002030                     __ptext28:
  4313                           	callstack 0
  4314   002030                     _Interrupts_init:
  4315                           	callstack 28
  4316   002030                     
  4317                           ;interrupts.c: 13:     PIE0bits.TMR0IE=1;
  4318   002030  010E               	movlb	14	; () banked
  4319   002032  8B29               	bsf	41,5,b	;volatile
  4320                           
  4321                           ;interrupts.c: 14:     PIE2bits.C1IE=1;
  4322   002034  812B               	bsf	43,0,b	;volatile
  4323                           
  4324                           ;interrupts.c: 16:     IPR2bits.C1IP = 1;
  4325   002036  8121               	bsf	33,0,b	;volatile
  4326                           
  4327                           ;interrupts.c: 17:     IPR0bits.TMR0IP = 0;
  4328   002038  9B1F               	bcf	31,5,b	;volatile
  4329                           
  4330                           ;interrupts.c: 18:     INTCONbits.IPEN=1;
  4331   00203A  8AF2               	bsf	242,5,c	;volatile
  4332                           
  4333                           ;interrupts.c: 19:     INTCONbits.GIE=1;
  4334   00203C  8EF2               	bsf	242,7,c	;volatile
  4335                           
  4336                           ;interrupts.c: 20:     INTCONbits.PEIE = 1;
  4337   00203E  8CF2               	bsf	242,6,c	;volatile
  4338   002040                     
  4339                           ; BSR set to: 14
  4340   002040  0012               	return		;funcret
  4341   002042                     __end_of_Interrupts_init:
  4342                           	callstack 0
  4343                           
  4344 ;; *************** function _Comp1_init *****************
  4345 ;; Defined at:
  4346 ;;		line 22 in file "comparator.c"
  4347 ;; Parameters:    Size  Location     Type
  4348 ;;		None
  4349 ;; Auto vars:     Size  Location     Type
  4350 ;;		None
  4351 ;; Return value:  Size  Location     Type
  4352 ;;                  1    wreg      void 
  4353 ;; Registers used:
  4354 ;;		wreg, status,2, cstack
  4355 ;; Tracked objects:
  4356 ;;		On entry : 0/0
  4357 ;;		On exit  : 0/0
  4358 ;;		Unchanged: 0/0
  4359 ;; Data sizes:     COMRAM   BANK0   BANK1   BANK2   BANK3   BANK4   BANK5   BANK6   BANK7   BANK8   BANK9  BANK10  BANK1
      +1  BANK12  BANK13
  4360 ;;      Params:         0       0       0       0       0       0       0       0       0       0       0       0       
      +0       0       0
  4361 ;;      Locals:         0       0       0       0       0       0       0       0       0       0       0       0       
      +0       0       0
  4362 ;;      Temps:          0       0       0       0       0       0       0       0       0       0       0       0       
      +0       0       0
  4363 ;;      Totals:         0       0       0       0       0       0       0       0       0       0       0       0       
      +0       0       0
  4364 ;;Total ram usage:        0 bytes
  4365 ;; Hardware stack levels used: 1
  4366 ;; Hardware stack levels required when called: 3
  4367 ;; This function calls:
  4368 ;;		_DAC_init
  4369 ;; This function is called by:
  4370 ;;		_main
  4371 ;; This function uses a non-reentrant model
  4372 ;;
  4373                           
  4374                           	psect	text29
  4375   001F6C                     __ptext29:
  4376                           	callstack 0
  4377   001F6C                     _Comp1_init:
  4378                           	callstack 27
  4379   001F6C                     
  4380                           ;comparator.c: 24:     TRISFbits.TRISF7=1;
  4381   001F6C  8E86               	bsf	134,7,c	;volatile
  4382   001F6E                     
  4383                           ;comparator.c: 25:     CM1NCHbits.NCH=0b011;
  4384   001F6E  010E               	movlb	14	; () banked
  4385   001F70  51D2               	movf	210,w,b	;volatile
  4386   001F72  0BF8               	andlw	-8
  4387   001F74  0903               	iorlw	3
  4388   001F76  6FD2               	movwf	210,b	;volatile
  4389                           
  4390                           ;comparator.c: 26:     CM1PCHbits.PCH=0b101;
  4391   001F78  51D3               	movf	211,w,b	;volatile
  4392   001F7A  0BF8               	andlw	-8
  4393   001F7C  0905               	iorlw	5
  4394   001F7E  6FD3               	movwf	211,b	;volatile
  4395   001F80                     
  4396                           ; BSR set to: 14
  4397                           ;comparator.c: 27:     CM1CON0bits.HYS=1;
  4398   001F80  83D0               	bsf	208,1,b	;volatile
  4399   001F82                     
  4400                           ; BSR set to: 14
  4401                           ;comparator.c: 28:     CM1CON0bits.POL=1;
  4402   001F82  89D0               	bsf	208,4,b	;volatile
  4403   001F84                     
  4404                           ; BSR set to: 14
  4405                           ;comparator.c: 29:     CM1CON1bits.INTP=1;
  4406   001F84  83D1               	bsf	209,1,b	;volatile
  4407   001F86                     
  4408                           ; BSR set to: 14
  4409                           ;comparator.c: 30:     CM1CON1bits.INTN=1;
  4410   001F86  81D1               	bsf	209,0,b	;volatile
  4411   001F88                     
  4412                           ; BSR set to: 14
  4413                           ;comparator.c: 31:     DAC_init();
  4414   001F88  EC05  F010         	call	_DAC_init	;wreg free
  4415   001F8C                     
  4416                           ;comparator.c: 32:     CM1CON0bits.EN=1;
  4417   001F8C  010E               	movlb	14	; () banked
  4418   001F8E  8FD0               	bsf	208,7,b	;volatile
  4419   001F90                     
  4420                           ; BSR set to: 14
  4421   001F90  0012               	return		;funcret
  4422   001F92                     __end_of_Comp1_init:
  4423                           	callstack 0
  4424                           
  4425 ;; *************** function _DAC_init *****************
  4426 ;; Defined at:
  4427 ;;		line 7 in file "comparator.c"
  4428 ;; Parameters:    Size  Location     Type
  4429 ;;		None
  4430 ;; Auto vars:     Size  Location     Type
  4431 ;;		None
  4432 ;; Return value:  Size  Location     Type
  4433 ;;                  1    wreg      void 
  4434 ;; Registers used:
  4435 ;;		wreg, status,2
  4436 ;; Tracked objects:
  4437 ;;		On entry : 0/0
  4438 ;;		On exit  : 0/0
  4439 ;;		Unchanged: 0/0
  4440 ;; Data sizes:     COMRAM   BANK0   BANK1   BANK2   BANK3   BANK4   BANK5   BANK6   BANK7   BANK8   BANK9  BANK10  BANK1
      +1  BANK12  BANK13
  4441 ;;      Params:         0       0       0       0       0       0       0       0       0       0       0       0       
      +0       0       0
  4442 ;;      Locals:         0       0       0       0       0       0       0       0       0       0       0       0       
      +0       0       0
  4443 ;;      Temps:          0       0       0       0       0       0       0       0       0       0       0       0       
      +0       0       0
  4444 ;;      Totals:         0       0       0       0       0       0       0       0       0       0       0       0       
      +0       0       0
  4445 ;;Total ram usage:        0 bytes
  4446 ;; Hardware stack levels used: 1
  4447 ;; Hardware stack levels required when called: 2
  4448 ;; This function calls:
  4449 ;;		Nothing
  4450 ;; This function is called by:
  4451 ;;		_Comp1_init
  4452 ;; This function uses a non-reentrant model
  4453 ;;
  4454                           
  4455                           	psect	text30
  4456   00200A                     __ptext30:
  4457                           	callstack 0
  4458   00200A                     _DAC_init:
  4459                           	callstack 27
  4460   00200A                     
  4461                           ;comparator.c: 9:     DAC1CON0bits.PSS=0b00;
  4462   00200A  0EF3               	movlw	-13
  4463   00200C  010E               	movlb	14	; () banked
  4464   00200E  17C6               	andwf	198,f,b	;volatile
  4465   002010                     
  4466                           ; BSR set to: 14
  4467                           ;comparator.c: 10:     DAC1CON0bits.NSS=0b0;
  4468   002010  91C6               	bcf	198,0,b	;volatile
  4469                           
  4470                           ;comparator.c: 14:     DAC1CON1bits.DAC1R=0b11011;
  4471   002012  51C7               	movf	199,w,b	;volatile
  4472   002014  0BE0               	andlw	-32
  4473   002016  091B               	iorlw	27
  4474   002018  6FC7               	movwf	199,b	;volatile
  4475   00201A                     
  4476                           ; BSR set to: 14
  4477                           ;comparator.c: 15:     DAC1CON0bits.DAC1EN=1;
  4478   00201A  8FC6               	bsf	198,7,b	;volatile
  4479   00201C                     
  4480                           ; BSR set to: 14
  4481   00201C  0012               	return		;funcret
  4482   00201E                     __end_of_DAC_init:
  4483                           	callstack 0
  4484                           
  4485 ;; *************** function _ADC_init *****************
  4486 ;; Defined at:
  4487 ;;		line 9 in file "ADC.c"
  4488 ;; Parameters:    Size  Location     Type
  4489 ;;		None
  4490 ;; Auto vars:     Size  Location     Type
  4491 ;;		None
  4492 ;; Return value:  Size  Location     Type
  4493 ;;                  1    wreg      void 
  4494 ;; Registers used:
  4495 ;;		wreg, status,2
  4496 ;; Tracked objects:
  4497 ;;		On entry : 0/0
  4498 ;;		On exit  : 0/0
  4499 ;;		Unchanged: 0/0
  4500 ;; Data sizes:     COMRAM   BANK0   BANK1   BANK2   BANK3   BANK4   BANK5   BANK6   BANK7   BANK8   BANK9  BANK10  BANK1
      +1  BANK12  BANK13
  4501 ;;      Params:         0       0       0       0       0       0       0       0       0       0       0       0       
      +0       0       0
  4502 ;;      Locals:         0       0       0       0       0       0       0       0       0       0       0       0       
      +0       0       0
  4503 ;;      Temps:          0       0       0       0       0       0       0       0       0       0       0       0       
      +0       0       0
  4504 ;;      Totals:         0       0       0       0       0       0       0       0       0       0       0       0       
      +0       0       0
  4505 ;;Total ram usage:        0 bytes
  4506 ;; Hardware stack levels used: 1
  4507 ;; Hardware stack levels required when called: 2
  4508 ;; This function calls:
  4509 ;;		Nothing
  4510 ;; This function is called by:
  4511 ;;		_main
  4512 ;; This function uses a non-reentrant model
  4513 ;;
  4514                           
  4515                           	psect	text31
  4516   001FD8                     __ptext31:
  4517                           	callstack 0
  4518   001FD8                     _ADC_init:
  4519                           	callstack 28
  4520   001FD8                     
  4521                           ;ADC.c: 11:     TRISAbits.TRISA3=1;
  4522   001FD8  8681               	bsf	129,3,c	;volatile
  4523                           
  4524                           ;ADC.c: 12:     ANSELAbits.ANSELA3=1;
  4525   001FDA  010E               	movlb	14	; () banked
  4526   001FDC  8792               	bsf	146,3,b	;volatile
  4527                           
  4528                           ;ADC.c: 15:     ADREFbits.ADNREF = 0;
  4529   001FDE  010F               	movlb	15	; () banked
  4530   001FE0  9958               	bcf	88,4,b	;volatile
  4531   001FE2                     
  4532                           ; BSR set to: 15
  4533                           ;ADC.c: 16:     ADREFbits.ADPREF = 0b00;
  4534   001FE2  0EFC               	movlw	-4
  4535   001FE4  1758               	andwf	88,f,b	;volatile
  4536                           
  4537                           ;ADC.c: 17:     ADPCH=0b11;
  4538   001FE6  0E03               	movlw	3
  4539   001FE8  6F5F               	movwf	95,b	;volatile
  4540   001FEA                     
  4541                           ; BSR set to: 15
  4542                           ;ADC.c: 18:     ADCON0bits.ADFM = 0;
  4543   001FEA  9460               	bcf	96,2,c	;volatile
  4544   001FEC                     
  4545                           ; BSR set to: 15
  4546                           ;ADC.c: 19:     ADCON0bits.ADCS = 1;
  4547   001FEC  8860               	bsf	96,4,c	;volatile
  4548   001FEE                     
  4549                           ; BSR set to: 15
  4550                           ;ADC.c: 20:     ADCON0bits.ADON = 1;
  4551   001FEE  8E60               	bsf	96,7,c	;volatile
  4552   001FF0                     
  4553                           ; BSR set to: 15
  4554   001FF0  0012               	return		;funcret
  4555   001FF2                     __end_of_ADC_init:
  4556                           	callstack 0
  4557                           
  4558 ;; *************** function _ADC_getval *****************
  4559 ;; Defined at:
  4560 ;;		line 23 in file "ADC.c"
  4561 ;; Parameters:    Size  Location     Type
  4562 ;;		None
  4563 ;; Auto vars:     Size  Location     Type
  4564 ;;  tmpval          2   22[COMRAM] unsigned int 
  4565 ;; Return value:  Size  Location     Type
  4566 ;;                  2   20[COMRAM] unsigned int 
  4567 ;; Registers used:
  4568 ;;		wreg, status,2, status,0, prodl, prodh, cstack
  4569 ;; Tracked objects:
  4570 ;;		On entry : 0/0
  4571 ;;		On exit  : 0/0
  4572 ;;		Unchanged: 0/0
  4573 ;; Data sizes:     COMRAM   BANK0   BANK1   BANK2   BANK3   BANK4   BANK5   BANK6   BANK7   BANK8   BANK9  BANK10  BANK1
      +1  BANK12  BANK13
  4574 ;;      Params:         2       0       0       0       0       0       0       0       0       0       0       0       
      +0       0       0
  4575 ;;      Locals:         2       0       0       0       0       0       0       0       0       0       0       0       
      +0       0       0
  4576 ;;      Temps:          0       0       0       0       0       0       0       0       0       0       0       0       
      +0       0       0
  4577 ;;      Totals:         4       0       0       0       0       0       0       0       0       0       0       0       
      +0       0       0
  4578 ;;Total ram usage:        4 bytes
  4579 ;; Hardware stack levels used: 1
  4580 ;; Hardware stack levels required when called: 3
  4581 ;; This function calls:
  4582 ;;		___lwdiv
  4583 ;;		___wmul
  4584 ;; This function is called by:
  4585 ;;		_main
  4586 ;; This function uses a non-reentrant model
  4587 ;;
  4588                           
  4589                           	psect	text32
  4590   001B3E                     __ptext32:
  4591                           	callstack 0
  4592   001B3E                     _ADC_getval:
  4593                           	callstack 27
  4594   001B3E                     
  4595                           ;ADC.c: 25:     unsigned int tmpval;;ADC.c: 26:     ADCON0bits.GO = 1;
  4596   001B3E  8060               	bsf	96,0,c	;volatile
  4597   001B40                     l18:
  4598   001B40  B060               	btfsc	96,0,c	;volatile
  4599   001B42  EFA5  F00D         	goto	u4251
  4600   001B46  EFA7  F00D         	goto	u4250
  4601   001B4A                     u4251:
  4602   001B4A  EFA0  F00D         	goto	l18
  4603   001B4E                     u4250:
  4604   001B4E                     
  4605                           ;ADC.c: 30:     tmpval = ADRESH;
  4606   001B4E  CF64 F017          	movff	3940,ADC_getval@tmpval	;volatile
  4607   001B52  6A18               	clrf	(ADC_getval@tmpval+1)^0,c
  4608   001B54                     
  4609                           ;ADC.c: 34:     tmpval = 255 - tmpval;
  4610   001B54  5017               	movf	ADC_getval@tmpval^0,w,c
  4611   001B56  08FF               	sublw	255
  4612   001B58  6E17               	movwf	ADC_getval@tmpval^0,c
  4613   001B5A  5018               	movf	(ADC_getval@tmpval+1)^0,w,c
  4614   001B5C  A0D8               	btfss	status,0,c
  4615   001B5E  2AE8               	incf	wreg,f,c
  4616   001B60  0800               	sublw	0
  4617   001B62  6E18               	movwf	(ADC_getval@tmpval+1)^0,c
  4618   001B64                     
  4619                           ;ADC.c: 40:     tmpval = ((tmpval - 20 + 2) *255)/(106-20+2) ;
  4620   001B64  0EEE               	movlw	238
  4621   001B66  2417               	addwf	ADC_getval@tmpval^0,w,c
  4622   001B68  6E08               	movwf	___wmul@multiplier^0,c
  4623   001B6A  0EFF               	movlw	255
  4624   001B6C  2018               	addwfc	(ADC_getval@tmpval+1)^0,w,c
  4625   001B6E  6E09               	movwf	(___wmul@multiplier+1)^0,c
  4626   001B70  0E00               	movlw	0
  4627   001B72  6E0B               	movwf	(___wmul@multiplicand+1)^0,c
  4628   001B74  680A               	setf	___wmul@multiplicand^0,c
  4629   001B76  ECC9  F00F         	call	___wmul	;wreg free
  4630   001B7A  C008  F00E         	movff	?___wmul,___lwdiv@dividend
  4631   001B7E  C009  F00F         	movff	?___wmul+1,___lwdiv@dividend+1
  4632   001B82  0E00               	movlw	0
  4633   001B84  6E11               	movwf	(___lwdiv@divisor+1)^0,c
  4634   001B86  0E58               	movlw	88
  4635   001B88  6E10               	movwf	___lwdiv@divisor^0,c
  4636   001B8A  ECDE  F00D         	call	___lwdiv	;wreg free
  4637   001B8E  C00E  F017         	movff	?___lwdiv,ADC_getval@tmpval
  4638   001B92  C00F  F018         	movff	?___lwdiv+1,ADC_getval@tmpval+1
  4639   001B96                     
  4640                           ;ADC.c: 41:     if (tmpval > 512) {tmpval = 0;}
  4641   001B96  0417               	decf	ADC_getval@tmpval^0,w,c
  4642   001B98  0E02               	movlw	2
  4643   001B9A  5818               	subwfb	(ADC_getval@tmpval+1)^0,w,c
  4644   001B9C  A0D8               	btfss	status,0,c
  4645   001B9E  EFD3  F00D         	goto	u4261
  4646   001BA2  EFD5  F00D         	goto	u4260
  4647   001BA6                     u4261:
  4648   001BA6  EFD9  F00D         	goto	l3908
  4649   001BAA                     u4260:
  4650   001BAA  0E00               	movlw	0
  4651   001BAC  6E18               	movwf	(ADC_getval@tmpval+1)^0,c
  4652   001BAE  0E00               	movlw	0
  4653   001BB0  6E17               	movwf	ADC_getval@tmpval^0,c
  4654   001BB2                     l3908:
  4655                           
  4656                           ;ADC.c: 43:     return tmpval;
  4657   001BB2  C017  F015         	movff	ADC_getval@tmpval,?_ADC_getval
  4658   001BB6  C018  F016         	movff	ADC_getval@tmpval+1,?_ADC_getval+1
  4659   001BBA  0012               	return		;funcret
  4660   001BBC                     __end_of_ADC_getval:
  4661                           	callstack 0
  4662                           
  4663 ;; *************** function ___wmul *****************
  4664 ;; Defined at:
  4665 ;;		line 15 in file "C:\Program Files\Microchip\xc8\v2.45\pic\sources\c99\common\Umul16.c"
  4666 ;; Parameters:    Size  Location     Type
  4667 ;;  multiplier      2    7[COMRAM] unsigned int 
  4668 ;;  multiplicand    2    9[COMRAM] unsigned int 
  4669 ;; Auto vars:     Size  Location     Type
  4670 ;;  product         2   11[COMRAM] unsigned int 
  4671 ;; Return value:  Size  Location     Type
  4672 ;;                  2    7[COMRAM] unsigned int 
  4673 ;; Registers used:
  4674 ;;		wreg, status,2, status,0, prodl, prodh
  4675 ;; Tracked objects:
  4676 ;;		On entry : 0/0
  4677 ;;		On exit  : 0/0
  4678 ;;		Unchanged: 0/0
  4679 ;; Data sizes:     COMRAM   BANK0   BANK1   BANK2   BANK3   BANK4   BANK5   BANK6   BANK7   BANK8   BANK9  BANK10  BANK1
      +1  BANK12  BANK13
  4680 ;;      Params:         4       0       0       0       0       0       0       0       0       0       0       0       
      +0       0       0
  4681 ;;      Locals:         2       0       0       0       0       0       0       0       0       0       0       0       
      +0       0       0
  4682 ;;      Temps:          0       0       0       0       0       0       0       0       0       0       0       0       
      +0       0       0
  4683 ;;      Totals:         6       0       0       0       0       0       0       0       0       0       0       0       
      +0       0       0
  4684 ;;Total ram usage:        6 bytes
  4685 ;; Hardware stack levels used: 1
  4686 ;; Hardware stack levels required when called: 2
  4687 ;; This function calls:
  4688 ;;		Nothing
  4689 ;; This function is called by:
  4690 ;;		_ADC_getval
  4691 ;;		_disp_time
  4692 ;;		_read_prec_or_width
  4693 ;;		_ADC2String
  4694 ;;		_Callibrate
  4695 ;; This function uses a non-reentrant model
  4696 ;;
  4697                           
  4698                           	psect	text33
  4699   001F92                     __ptext33:
  4700                           	callstack 0
  4701   001F92                     ___wmul:
  4702                           	callstack 24
  4703   001F92  5008               	movf	___wmul@multiplier^0,w,c
  4704   001F94  020A               	mulwf	___wmul@multiplicand^0,c
  4705   001F96  CFF3 F00C          	movff	prodl,___wmul@product
  4706   001F9A  CFF4 F00D          	movff	prodh,___wmul@product+1
  4707   001F9E  5008               	movf	___wmul@multiplier^0,w,c
  4708   001FA0  020B               	mulwf	(___wmul@multiplicand+1)^0,c
  4709   001FA2  50F3               	movf	243,w,c
  4710   001FA4  260D               	addwf	(___wmul@product+1)^0,f,c
  4711   001FA6  5009               	movf	(___wmul@multiplier+1)^0,w,c
  4712   001FA8  020A               	mulwf	___wmul@multiplicand^0,c
  4713   001FAA  50F3               	movf	243,w,c
  4714   001FAC  260D               	addwf	(___wmul@product+1)^0,f,c
  4715   001FAE  C00C  F008         	movff	___wmul@product,?___wmul
  4716   001FB2  C00D  F009         	movff	___wmul@product+1,?___wmul+1
  4717   001FB6  0012               	return		;funcret
  4718   001FB8                     __end_of___wmul:
  4719                           	callstack 0
  4720                           
  4721 ;; *************** function ___lwdiv *****************
  4722 ;; Defined at:
  4723 ;;		line 7 in file "C:\Program Files\Microchip\xc8\v2.45\pic\sources\c99\common\lwdiv.c"
  4724 ;; Parameters:    Size  Location     Type
  4725 ;;  dividend        2   13[COMRAM] unsigned int 
  4726 ;;  divisor         2   15[COMRAM] unsigned int 
  4727 ;; Auto vars:     Size  Location     Type
  4728 ;;  quotient        2   18[COMRAM] unsigned int 
  4729 ;;  counter         1   17[COMRAM] unsigned char 
  4730 ;; Return value:  Size  Location     Type
  4731 ;;                  2   13[COMRAM] unsigned int 
  4732 ;; Registers used:
  4733 ;;		wreg, status,2, status,0
  4734 ;; Tracked objects:
  4735 ;;		On entry : 0/0
  4736 ;;		On exit  : 0/0
  4737 ;;		Unchanged: 0/0
  4738 ;; Data sizes:     COMRAM   BANK0   BANK1   BANK2   BANK3   BANK4   BANK5   BANK6   BANK7   BANK8   BANK9  BANK10  BANK1
      +1  BANK12  BANK13
  4739 ;;      Params:         4       0       0       0       0       0       0       0       0       0       0       0       
      +0       0       0
  4740 ;;      Locals:         3       0       0       0       0       0       0       0       0       0       0       0       
      +0       0       0
  4741 ;;      Temps:          0       0       0       0       0       0       0       0       0       0       0       0       
      +0       0       0
  4742 ;;      Totals:         7       0       0       0       0       0       0       0       0       0       0       0       
      +0       0       0
  4743 ;;Total ram usage:        7 bytes
  4744 ;; Hardware stack levels used: 1
  4745 ;; Hardware stack levels required when called: 2
  4746 ;; This function calls:
  4747 ;;		Nothing
  4748 ;; This function is called by:
  4749 ;;		_ADC_getval
  4750 ;;		_disp_time
  4751 ;;		_ADC2String
  4752 ;;		_Callibrate
  4753 ;; This function uses a non-reentrant model
  4754 ;;
  4755                           
  4756                           	psect	text34
  4757   001BBC                     __ptext34:
  4758                           	callstack 0
  4759   001BBC                     ___lwdiv:
  4760                           	callstack 27
  4761   001BBC  0E00               	movlw	0
  4762   001BBE  6E14               	movwf	(___lwdiv@quotient+1)^0,c
  4763   001BC0  0E00               	movlw	0
  4764   001BC2  6E13               	movwf	___lwdiv@quotient^0,c
  4765   001BC4  5010               	movf	___lwdiv@divisor^0,w,c
  4766   001BC6  1011               	iorwf	(___lwdiv@divisor+1)^0,w,c
  4767   001BC8  B4D8               	btfsc	status,2,c
  4768   001BCA  EFE9  F00D         	goto	u4221
  4769   001BCE  EFEB  F00D         	goto	u4220
  4770   001BD2                     u4221:
  4771   001BD2  EF13  F00E         	goto	l838
  4772   001BD6                     u4220:
  4773   001BD6  0E01               	movlw	1
  4774   001BD8  6E12               	movwf	___lwdiv@counter^0,c
  4775   001BDA  EFF3  F00D         	goto	l3874
  4776   001BDE                     l3872:
  4777   001BDE  90D8               	bcf	status,0,c
  4778   001BE0  3610               	rlcf	___lwdiv@divisor^0,f,c
  4779   001BE2  3611               	rlcf	(___lwdiv@divisor+1)^0,f,c
  4780   001BE4  2A12               	incf	___lwdiv@counter^0,f,c
  4781   001BE6                     l3874:
  4782   001BE6  AE11               	btfss	(___lwdiv@divisor+1)^0,7,c
  4783   001BE8  EFF8  F00D         	goto	u4231
  4784   001BEC  EFFA  F00D         	goto	u4230
  4785   001BF0                     u4231:
  4786   001BF0  EFEF  F00D         	goto	l3872
  4787   001BF4                     u4230:
  4788   001BF4                     l3876:
  4789   001BF4  90D8               	bcf	status,0,c
  4790   001BF6  3613               	rlcf	___lwdiv@quotient^0,f,c
  4791   001BF8  3614               	rlcf	(___lwdiv@quotient+1)^0,f,c
  4792   001BFA  5010               	movf	___lwdiv@divisor^0,w,c
  4793   001BFC  5C0E               	subwf	___lwdiv@dividend^0,w,c
  4794   001BFE  5011               	movf	(___lwdiv@divisor+1)^0,w,c
  4795   001C00  580F               	subwfb	(___lwdiv@dividend+1)^0,w,c
  4796   001C02  A0D8               	btfss	status,0,c
  4797   001C04  EF06  F00E         	goto	u4241
  4798   001C08  EF08  F00E         	goto	u4240
  4799   001C0C                     u4241:
  4800   001C0C  EF0D  F00E         	goto	l3884
  4801   001C10                     u4240:
  4802   001C10  5010               	movf	___lwdiv@divisor^0,w,c
  4803   001C12  5E0E               	subwf	___lwdiv@dividend^0,f,c
  4804   001C14  5011               	movf	(___lwdiv@divisor+1)^0,w,c
  4805   001C16  5A0F               	subwfb	(___lwdiv@dividend+1)^0,f,c
  4806   001C18  8013               	bsf	___lwdiv@quotient^0,0,c
  4807   001C1A                     l3884:
  4808   001C1A  90D8               	bcf	status,0,c
  4809   001C1C  3211               	rrcf	(___lwdiv@divisor+1)^0,f,c
  4810   001C1E  3210               	rrcf	___lwdiv@divisor^0,f,c
  4811   001C20  2E12               	decfsz	___lwdiv@counter^0,f,c
  4812   001C22  EFFA  F00D         	goto	l3876
  4813   001C26                     l838:
  4814   001C26  C013  F00E         	movff	___lwdiv@quotient,?___lwdiv
  4815   001C2A  C014  F00F         	movff	___lwdiv@quotient+1,?___lwdiv+1
  4816   001C2E  0012               	return		;funcret
  4817   001C30                     __end_of___lwdiv:
  4818                           	callstack 0
  4819                           
  4820 ;; *************** function _LowISR *****************
  4821 ;; Defined at:
  4822 ;;		line 36 in file "interrupts.c"
  4823 ;; Parameters:    Size  Location     Type
  4824 ;;		None
  4825 ;; Auto vars:     Size  Location     Type
  4826 ;;		None
  4827 ;; Return value:  Size  Location     Type
  4828 ;;                  1    wreg      void 
  4829 ;; Registers used:
  4830 ;;		wreg, status,2
  4831 ;; Tracked objects:
  4832 ;;		On entry : 0/0
  4833 ;;		On exit  : 0/0
  4834 ;;		Unchanged: 0/0
  4835 ;; Data sizes:     COMRAM   BANK0   BANK1   BANK2   BANK3   BANK4   BANK5   BANK6   BANK7   BANK8   BANK9  BANK10  BANK1
      +1  BANK12  BANK13
  4836 ;;      Params:         0       0       0       0       0       0       0       0       0       0       0       0       
      +0       0       0
  4837 ;;      Locals:         0       0       0       0       0       0       0       0       0       0       0       0       
      +0       0       0
  4838 ;;      Temps:          3       0       0       0       0       0       0       0       0       0       0       0       
      +0       0       0
  4839 ;;      Totals:         3       0       0       0       0       0       0       0       0       0       0       0       
      +0       0       0
  4840 ;;Total ram usage:        3 bytes
  4841 ;; Hardware stack levels used: 1
  4842 ;; Hardware stack levels required when called: 1
  4843 ;; This function calls:
  4844 ;;		Nothing
  4845 ;; This function is called by:
  4846 ;;		Interrupt level 1
  4847 ;; This function uses a non-reentrant model
  4848 ;;
  4849                           
  4850                           	psect	intcodelo
  4851   000018                     __pintcodelo:
  4852                           	callstack 0
  4853   000018                     _LowISR:
  4854                           	callstack 20
  4855                           
  4856                           ;incstack = 0
  4857   000018  805B               	bsf	int$flags,0,c	;set compiler interrupt flag (level 1)
  4858   00001A  CFD8 F001          	movff	status,??_LowISR
  4859   00001E  CFE8 F002          	movff	wreg,??_LowISR+1
  4860   000022  CFE0 F003          	movff	bsr,??_LowISR+2
  4861   000026                     
  4862                           ;interrupts.c: 39:     if(PIR0bits.TMR0IF){
  4863   000026  010E               	movlb	14	; () banked
  4864   000028  AB33               	btfss	51,5,b	;volatile
  4865   00002A  EF19  F000         	goto	i1u111_21
  4866   00002E  EF1B  F000         	goto	i1u111_20
  4867   000032                     i1u111_21:
  4868   000032  EF21  F000         	goto	i1l290
  4869   000036                     i1u111_20:
  4870   000036                     
  4871                           ; BSR set to: 14
  4872                           ;interrupts.c: 40:         TMR0H=0b00001011;
  4873   000036  0E0B               	movlw	11
  4874   000038  6ED4               	movwf	212,c	;volatile
  4875                           
  4876                           ;interrupts.c: 41:         TMR0L=0b11011011;
  4877   00003A  0EDB               	movlw	219
  4878   00003C  6ED3               	movwf	211,c	;volatile
  4879   00003E                     
  4880                           ; BSR set to: 14
  4881                           ;interrupts.c: 43:         LATDbits.LATD4 = 1;
  4882   00003E  887C               	bsf	124,4,c	;volatile
  4883   000040                     
  4884                           ; BSR set to: 14
  4885                           ;interrupts.c: 44:         PIR0bits.TMR0IF=0;
  4886   000040  9B33               	bcf	51,5,b	;volatile
  4887   000042                     i1l290:
  4888                           
  4889                           ; BSR set to: 14
  4890   000042  C003  FFE0         	movff	??_LowISR+2,bsr
  4891   000046  C002  FFE8         	movff	??_LowISR+1,wreg
  4892   00004A  C001  FFD8         	movff	??_LowISR,status
  4893   00004E  905B               	bcf	int$flags,0,c	;clear compiler interrupt flag (level 1)
  4894   000050  0010               	retfie	
  4895   000052                     __end_of_LowISR:
  4896                           	callstack 0
  4897                           
  4898 ;; *************** function _HighISR *****************
  4899 ;; Defined at:
  4900 ;;		line 27 in file "interrupts.c"
  4901 ;; Parameters:    Size  Location     Type
  4902 ;;		None
  4903 ;; Auto vars:     Size  Location     Type
  4904 ;;		None
  4905 ;; Return value:  Size  Location     Type
  4906 ;;                  1    wreg      void 
  4907 ;; Registers used:
  4908 ;;		None
  4909 ;; Tracked objects:
  4910 ;;		On entry : 0/0
  4911 ;;		On exit  : 0/0
  4912 ;;		Unchanged: 0/0
  4913 ;; Data sizes:     COMRAM   BANK0   BANK1   BANK2   BANK3   BANK4   BANK5   BANK6   BANK7   BANK8   BANK9  BANK10  BANK1
      +1  BANK12  BANK13
  4914 ;;      Params:         0       0       0       0       0       0       0       0       0       0       0       0       
      +0       0       0
  4915 ;;      Locals:         0       0       0       0       0       0       0       0       0       0       0       0       
      +0       0       0
  4916 ;;      Temps:          0       0       0       0       0       0       0       0       0       0       0       0       
      +0       0       0
  4917 ;;      Totals:         0       0       0       0       0       0       0       0       0       0       0       0       
      +0       0       0
  4918 ;;Total ram usage:        0 bytes
  4919 ;; Hardware stack levels used: 1
  4920 ;; This function calls:
  4921 ;;		Nothing
  4922 ;; This function is called by:
  4923 ;;		Interrupt level 2
  4924 ;; This function uses a non-reentrant model
  4925 ;;
  4926                           
  4927                           	psect	intcode
  4928   000008                     __pintcode:
  4929                           	callstack 0
  4930   000008                     _HighISR:
  4931                           	callstack 20
  4932                           
  4933                           ; BSR set to: 14
  4934                           ;incstack = 0
  4935   000008  825B               	bsf	int$flags,1,c	;set compiler interrupt flag (level 2)
  4936   00000A  EFF9  F00F         	goto	int_func
  4937                           
  4938                           	psect	intcode_body
  4939   001FF2                     __pintcode_body:
  4940                           	callstack 20
  4941   001FF2                     int_func:
  4942                           	callstack 20
  4943   001FF2                     
  4944                           ;interrupts.c: 30:     if(PIR2bits.C1IF){
  4945   001FF2  010E               	movlb	14	; () banked
  4946   001FF4  A135               	btfss	53,0,b	;volatile
  4947   001FF6  EFFF  F00F         	goto	i2u110_41
  4948   001FFA  EF01  F010         	goto	i2u110_40
  4949   001FFE                     i2u110_41:
  4950   001FFE  EF03  F010         	goto	i2l284
  4951   002002                     i2u110_40:
  4952   002002                     
  4953                           ; BSR set to: 14
  4954                           ;interrupts.c: 31:         LATDbits.LATD7 = 1;
  4955   002002  8E7C               	bsf	124,7,c	;volatile
  4956                           
  4957                           ;interrupts.c: 32:         PIR2bits.C1IF=0;
  4958   002004  9135               	bcf	53,0,b	;volatile
  4959   002006                     i2l284:
  4960                           
  4961                           ; BSR set to: 14
  4962   002006  925B               	bcf	int$flags,1,c	;clear compiler interrupt flag (level 2)
  4963   002008  0011               	retfie		f
  4964   00200A                     __end_of_HighISR:
  4965                           	callstack 0
  4966                           
  4967                           	psect	rparam
  4968   000000                     
  4969                           	psect	temp
  4970   00005B                     btemp:
  4971                           	callstack 0
  4972   00005B                     	ds	1
  4973   000000                     int$flags	set	btemp
  4974   000000                     wtemp8	set	btemp+1
  4975   000000                     ttemp5	set	btemp+1
  4976   000000                     ttemp6	set	btemp+4
  4977   000000                     ttemp7	set	btemp+8
  4978                           
  4979                           	psect	config
  4980                           
  4981                           ;Config register CONFIG1L @ 0x300000
  4982                           ;	External Oscillator mode Selection bits
  4983                           ;	FEXTOSC = HS, HS (crystal oscillator) above 8 MHz; PFM set to high power
  4984                           ;	Power-up default value for COSC bits
  4985                           ;	RSTOSC = EXTOSC_4PLL, EXTOSC with 4x PLL, with EXTOSC operating per FEXTOSC bits
  4986   300000                     	org	3145728
  4987   300000  AA                 	db	170
  4988                           
  4989                           ;Config register CONFIG1H @ 0x300001
  4990                           ;	unspecified, using default values
  4991                           ;	Clock Out Enable bit
  4992                           ;	CLKOUTEN = 0x1, unprogrammed default
  4993                           ;	Clock Switch Enable bit
  4994                           ;	CSWEN = 0x1, unprogrammed default
  4995                           ;	Fail-Safe Clock Monitor Enable bit
  4996                           ;	FCMEN = 0x1, unprogrammed default
  4997   300001                     	org	3145729
  4998   300001  FF                 	db	255
  4999                           
  5000                           ;Config register CONFIG3L @ 0x300004
  5001                           ;	WDT Period Select bits
  5002                           ;	WDTCPS = 0x1F, unprogrammed default
  5003                           ;	WDT operating mode
  5004                           ;	WDTE = OFF, WDT Disabled
  5005   300004                     	org	3145732
  5006   300004  9F                 	db	159
  5007                           
  5008                           ;Config register CONFIG3H @ 0x300005
  5009                           ;	unspecified, using default values
  5010                           ;	WDT Window Select bits
  5011                           ;	WDTCWS = 0x7, unprogrammed default
  5012                           ;	WDT input clock selector
  5013                           ;	WDTCCS = 0x7, unprogrammed default
  5014   300005                     	org	3145733
  5015   300005  FF                 	db	255
  5016                           tosu	equ	0xFFF
  5017                           tosh	equ	0xFFE
  5018                           tosl	equ	0xFFD
  5019                           stkptr	equ	0xFFC
  5020                           pclatu	equ	0xFFB
  5021                           pclath	equ	0xFFA
  5022                           pcl	equ	0xFF9
  5023                           tblptru	equ	0xFF8
  5024                           tblptrh	equ	0xFF7
  5025                           tblptrl	equ	0xFF6
  5026                           tablat	equ	0xFF5
  5027                           prodh	equ	0xFF4
  5028                           prodl	equ	0xFF3
  5029                           indf0	equ	0xFEF
  5030                           postinc0	equ	0xFEE
  5031                           postdec0	equ	0xFED
  5032                           preinc0	equ	0xFEC
  5033                           plusw0	equ	0xFEB
  5034                           fsr0h	equ	0xFEA
  5035                           fsr0l	equ	0xFE9
  5036                           wreg	equ	0xFE8
  5037                           indf1	equ	0xFE7
  5038                           postinc1	equ	0xFE6
  5039                           postdec1	equ	0xFE5
  5040                           preinc1	equ	0xFE4
  5041                           plusw1	equ	0xFE3
  5042                           fsr1h	equ	0xFE2
  5043                           fsr1l	equ	0xFE1
  5044                           bsr	equ	0xFE0
  5045                           indf2	equ	0xFDF
  5046                           postinc2	equ	0xFDE
  5047                           postdec2	equ	0xFDD
  5048                           preinc2	equ	0xFDC
  5049                           plusw2	equ	0xFDB
  5050                           fsr2h	equ	0xFDA
  5051                           fsr2l	equ	0xFD9
  5052                           status	equ	0xFD8

Data Sizes:
    Strings     48
    Constant    64
    Data        12
    BSS         83
    Persistent  0
    Stack       0

Auto Spaces:
    Space          Size  Autos    Used
    COMRAM           94     75      90
    BANK0           160      4      84
    BANK1           256      0       0
    BANK2           256      0       0
    BANK3           256      0       0
    BANK4           256      0       0
    BANK5           256      0       0
    BANK6           256      0       0
    BANK7           256      0       0
    BANK8           256      0       0
    BANK9           256      0       0
    BANK10          256      0       0
    BANK11          256      0       0
    BANK12          256      0       0
    BANK13          234      0       0

Pointer List with Targets:

    dtoa@fp	PTR struct _IO_FILE size(1) Largest target is 12
		 -> sprintf@f(COMRAM[12]), 

    f$.$buffer	PTR unsigned char  size(2) Largest target is 0

    f$.$source	PTR const unsigned char  size(2) Largest target is 0

    fputc@fp	PTR struct _IO_FILE size(1) Largest target is 12
		 -> sprintf@f(COMRAM[12]), 

    fputc@fp$.$buffer	PTR unsigned char  size(2) Largest target is 0

    fputc@fp$.$source	PTR const unsigned char  size(2) Largest target is 0

    fputs@fp	PTR struct _IO_FILE size(1) Largest target is 12
		 -> sprintf@f(COMRAM[12]), 

    fputs@s	PTR const unsigned char  size(1) Largest target is 32
		 -> dbuf(BANK0[32]), 

    LCD_sendstring@string	PTR unsigned char  size(1) Largest target is 10
		 -> lightString(BANK0[10]), main@lightString(BANK0[4]), timeString(BANK0[10]), 

    pad@buf	PTR unsigned char  size(1) Largest target is 32
		 -> dbuf(BANK0[32]), 

    pad@fp	PTR struct _IO_FILE size(1) Largest target is 12
		 -> sprintf@f(COMRAM[12]), 

    read_prec_or_width@ap	PTR PTR void [1] size(1) Largest target is 1
		 -> sprintf@ap(COMRAM[1]), 

    read_prec_or_width@fmt	PTR PTR const unsigned char  size(1) Largest target is 1
		 -> vfprintf@cfmt(COMRAM[1]), 

    S2055$buffer	PTR unsigned char  size(2) Largest target is 0

    S2055$source	PTR const unsigned char  size(2) Largest target is 0

    sprintf@ap	PTR void [1] size(1) Largest target is 2
		 -> ?_sprintf(COMRAM[2]), 

    sprintf@fmt	PTR const unsigned char  size(1) Largest target is 25
		 -> STR_1(CODE[8]), STR_2(CODE[10]), STR_3(CODE[25]), STR_4(CODE[5]), 

    sprintf@s	PTR unsigned char  size(1) Largest target is 10
		 -> lightString(BANK0[10]), main@lightString(BANK0[4]), timeString(BANK0[10]), 

    vfpfcnvrt@ap	PTR PTR void  size(1) Largest target is 1
		 -> sprintf@ap(COMRAM[1]), 

    vfpfcnvrt@cp	PTR unsigned char  size(1) Largest target is 25
		 -> STR_1(CODE[8]), STR_2(CODE[10]), STR_3(CODE[25]), STR_4(CODE[5]), 

    vfpfcnvrt@fmt	PTR PTR unsigned char  size(1) Largest target is 1
		 -> vfprintf@cfmt(COMRAM[1]), 

    vfpfcnvrt@fp	PTR struct _IO_FILE size(1) Largest target is 12
		 -> sprintf@f(COMRAM[12]), 

    vfprintf@ap	PTR PTR void  size(1) Largest target is 1
		 -> sprintf@ap(COMRAM[1]), 

    vfprintf@cfmt	PTR unsigned char  size(1) Largest target is 25
		 -> STR_1(CODE[8]), STR_2(CODE[10]), STR_3(CODE[25]), STR_4(CODE[5]), 

    vfprintf@fmt	PTR const unsigned char  size(1) Largest target is 25
		 -> STR_1(CODE[8]), STR_2(CODE[10]), STR_3(CODE[25]), STR_4(CODE[5]), 

    vfprintf@fp	PTR struct _IO_FILE size(1) Largest target is 12
		 -> sprintf@f(COMRAM[12]), 


Critical Paths under _main in COMRAM

    _main->_sprintf
    _disp_time->_sprintf
    _sprintf->_vfprintf
    _vfprintf->_vfpfcnvrt
    _vfpfcnvrt->_dtoa
    _read_prec_or_width->___wmul
    _dtoa->_pad
    _pad->_fputs
    _fputs->_fputc
    _abs->___awmod
    _month_days->___lwmod
    _LEDarray_control->___lwmod
    _LCD_setline->_LCD_sendbyte
    _LCD_sendstring->_LCD_sendbyte
    _LCD_Init->_LCD_sendbyte
    _LCD_sendbyte->_LCD_sendnibble
    _ADC_getval->___lwdiv
    ___wmul->_get16bitTMR0val
    ___lwdiv->___wmul

Critical Paths under _LowISR in COMRAM

    None.

Critical Paths under _HighISR in COMRAM

    None.

Critical Paths under _main in BANK0

    None.

Critical Paths under _LowISR in BANK0

    None.

Critical Paths under _HighISR in BANK0

    None.

Critical Paths under _main in BANK1

    None.

Critical Paths under _LowISR in BANK1

    None.

Critical Paths under _HighISR in BANK1

    None.

Critical Paths under _main in BANK2

    None.

Critical Paths under _LowISR in BANK2

    None.

Critical Paths under _HighISR in BANK2

    None.

Critical Paths under _main in BANK3

    None.

Critical Paths under _LowISR in BANK3

    None.

Critical Paths under _HighISR in BANK3

    None.

Critical Paths under _main in BANK4

    None.

Critical Paths under _LowISR in BANK4

    None.

Critical Paths under _HighISR in BANK4

    None.

Critical Paths under _main in BANK5

    None.

Critical Paths under _LowISR in BANK5

    None.

Critical Paths under _HighISR in BANK5

    None.

Critical Paths under _main in BANK6

    None.

Critical Paths under _LowISR in BANK6

    None.

Critical Paths under _HighISR in BANK6

    None.

Critical Paths under _main in BANK7

    None.

Critical Paths under _LowISR in BANK7

    None.

Critical Paths under _HighISR in BANK7

    None.

Critical Paths under _main in BANK8

    None.

Critical Paths under _LowISR in BANK8

    None.

Critical Paths under _HighISR in BANK8

    None.

Critical Paths under _main in BANK9

    None.

Critical Paths under _LowISR in BANK9

    None.

Critical Paths under _HighISR in BANK9

    None.

Critical Paths under _main in BANK10

    None.

Critical Paths under _LowISR in BANK10

    None.

Critical Paths under _HighISR in BANK10

    None.

Critical Paths under _main in BANK11

    None.

Critical Paths under _LowISR in BANK11

    None.

Critical Paths under _HighISR in BANK11

    None.

Critical Paths under _main in BANK12

    None.

Critical Paths under _LowISR in BANK12

    None.

Critical Paths under _HighISR in BANK12

    None.

Critical Paths under _main in BANK13

    None.

Critical Paths under _LowISR in BANK13

    None.

Critical Paths under _HighISR in BANK13

    None.

Call Graph Tables:

 ---------------------------------------------------------------------------------
 (Depth) Function   	        Calls       Base Space   Used Autos Params    Refs
 ---------------------------------------------------------------------------------
 (0) _main                                                 5     5      0   38764
                                             74 COMRAM     1     1      0
                                              0 BANK0      4     4      0
                         _ADC_getval
                           _ADC_init
                         _Comp1_init
                    _Interrupts_init
                           _LCD_Init
                     _LCD_sendstring
                        _LCD_setline
                      _LEDarray_init
                        _Timer0_init
                          _disp_time
                            _sprintf
 ---------------------------------------------------------------------------------
 (1) _disp_time                                            0     0      0   21384
                         _DST_adjust
                     _LCD_sendstring
                        _LCD_setline
                   _LEDarray_control
                  _LEDarray_disp_bin
                            ___lwdiv
                             ___wmul
                    _get16bitTMR0val
                         _month_days
                            _sprintf
 ---------------------------------------------------------------------------------
 (1) _sprintf                                             27    15     12   10479
                                             49 COMRAM    25    13     12
                         _ADC_getval (ARG)
                           _vfprintf
 ---------------------------------------------------------------------------------
 (2) _vfprintf                                             4     1      3    9447
                                             45 COMRAM     4     1      3
                          _vfpfcnvrt
 ---------------------------------------------------------------------------------
 (3) _vfpfcnvrt                                           12     9      3    8959
                                             34 COMRAM    11     8      3
                               _dtoa
                              _fputc
                 _read_prec_or_width
 ---------------------------------------------------------------------------------
 (4) _read_prec_or_width                                   5     3      2    2292
                                             13 COMRAM     5     3      2
                             ___wmul
 ---------------------------------------------------------------------------------
 (4) _dtoa                                                11     8      3    4939
                                             23 COMRAM    11     8      3
                            ___awdiv
                            ___awmod
                                _abs
                                _pad
 ---------------------------------------------------------------------------------
 (5) _pad                                                  7     3      4    2741
                                             16 COMRAM     7     3      4
                              _fputc
                              _fputs
 ---------------------------------------------------------------------------------
 (6) _fputs                                                5     3      2    1357
                                             11 COMRAM     5     3      2
                              _fputc
 ---------------------------------------------------------------------------------
 (4) _fputc                                                8     5      3     857
                                              3 COMRAM     8     5      3
                              _putch
 ---------------------------------------------------------------------------------
 (5) _putch                                                1     1      0       0
 ---------------------------------------------------------------------------------
 (5) _abs                                                  4     2      2     183
                                              9 COMRAM     4     2      2
                            ___awmod (ARG)
 ---------------------------------------------------------------------------------
 (5) ___awmod                                              6     2      4     613
                                              3 COMRAM     6     2      4
 ---------------------------------------------------------------------------------
 (5) ___awdiv                                              8     4      4     625
                                              3 COMRAM     8     4      4
 ---------------------------------------------------------------------------------
 (2) _month_days                                           8     4      4    2000
                                              8 COMRAM     8     4      4
                            ___lwmod
 ---------------------------------------------------------------------------------
 (2) _get16bitTMR0val                                      6     4      2      37
                                              3 COMRAM     4     2      2
 ---------------------------------------------------------------------------------
 (2) _LEDarray_control                                     2     2      0    2174
                                              8 COMRAM     2     2      0
                  _LEDarray_disp_bin
                            ___lwmod
 ---------------------------------------------------------------------------------
 (3) ___lwmod                                              5     1      4    1312
                                              3 COMRAM     5     1      4
 ---------------------------------------------------------------------------------
 (2) _LEDarray_disp_bin                                    2     0      2     819
                                              3 COMRAM     2     0      2
 ---------------------------------------------------------------------------------
 (2) _LCD_setline                                          1     1      0    1089
                                              6 COMRAM     1     1      0
                       _LCD_sendbyte
 ---------------------------------------------------------------------------------
 (2) _LCD_sendstring                                       1     0      1    1452
                                              6 COMRAM     1     0      1
                       _LCD_sendbyte
 ---------------------------------------------------------------------------------
 (2) _DST_adjust                                           4     0      4     341
                                              3 COMRAM     4     0      4
 ---------------------------------------------------------------------------------
 (1) _Timer0_init                                          0     0      0       0
 ---------------------------------------------------------------------------------
 (1) _LEDarray_init                                        0     0      0       0
 ---------------------------------------------------------------------------------
 (1) _LCD_Init                                             2     2      0    1151
                                              6 COMRAM     2     2      0
                       _LCD_sendbyte
                     _LCD_sendnibble
 ---------------------------------------------------------------------------------
 (3) _LCD_sendbyte                                         2     1      1    1027
                                              4 COMRAM     2     1      1
                     _LCD_sendnibble
 ---------------------------------------------------------------------------------
 (4) _LCD_sendnibble                                       1     1      0     124
                                              3 COMRAM     1     1      0
                          _LCD_E_TOG
 ---------------------------------------------------------------------------------
 (5) _LCD_E_TOG                                            0     0      0       0
 ---------------------------------------------------------------------------------
 (1) _Interrupts_init                                      0     0      0       0
 ---------------------------------------------------------------------------------
 (1) _Comp1_init                                           0     0      0       0
                           _DAC_init
 ---------------------------------------------------------------------------------
 (2) _DAC_init                                             0     0      0       0
 ---------------------------------------------------------------------------------
 (1) _ADC_init                                             0     0      0       0
 ---------------------------------------------------------------------------------
 (1) _ADC_getval                                           4     2      2    3129
                                             20 COMRAM     4     2      2
                            ___lwdiv
                             ___wmul
 ---------------------------------------------------------------------------------
 (5) ___wmul                                               6     2      4    1852
                                              7 COMRAM     6     2      4
                    _get16bitTMR0val (ARG)
 ---------------------------------------------------------------------------------
 (2) ___lwdiv                                              7     3      4    1141
                                             13 COMRAM     7     3      4
                             ___wmul (ARG)
                    _get16bitTMR0val (ARG)
 ---------------------------------------------------------------------------------
 Estimated maximum stack depth 6
 ---------------------------------------------------------------------------------
 (Depth) Function   	        Calls       Base Space   Used Autos Params    Refs
 ---------------------------------------------------------------------------------
 (10) _LowISR                                              3     3      0       0
                                              0 COMRAM     3     3      0
 ---------------------------------------------------------------------------------
 Estimated maximum stack depth 10
 ---------------------------------------------------------------------------------
 (Depth) Function   	        Calls       Base Space   Used Autos Params    Refs
 ---------------------------------------------------------------------------------
 (11) _HighISR                                             0     0      0       0
 ---------------------------------------------------------------------------------
 Estimated maximum stack depth 11
 ---------------------------------------------------------------------------------

 Call Graph Graphs:

 _main (ROOT)
   _ADC_getval
     ___lwdiv
       ___wmul (ARG)
         _get16bitTMR0val (ARG)
       _get16bitTMR0val (ARG)
     ___wmul
   _ADC_init
   _Comp1_init
     _DAC_init
   _Interrupts_init
   _LCD_Init
     _LCD_sendbyte
       _LCD_sendnibble
         _LCD_E_TOG
     _LCD_sendnibble
   _LCD_sendstring
     _LCD_sendbyte
   _LCD_setline
     _LCD_sendbyte
   _LEDarray_init
   _Timer0_init
   _disp_time
     _DST_adjust
     _LCD_sendstring
     _LCD_setline
     _LEDarray_control
       _LEDarray_disp_bin
       ___lwmod
     _LEDarray_disp_bin
     ___lwdiv
     ___wmul
     _get16bitTMR0val
     _month_days
       ___lwmod
     _sprintf
       _ADC_getval (ARG)
       _vfprintf (ARG)
         _vfpfcnvrt
           _dtoa
             ___awdiv
             ___awmod
             _abs
               ___awmod (ARG)
             _pad
               _fputc
                 _putch
               _fputs
                 _fputc
           _fputc
           _read_prec_or_width
             ___wmul
   _sprintf

 _LowISR (ROOT)

 _HighISR (ROOT)

 Address spaces:
Name               Size   Autos  Total    Cost      Usage
BIGRAM             DE9      0       0      52        0.0%
EEDATA             400      0       0       0        0.0%
BITBANK12          100      0       0      28        0.0%
BANK12             100      0       0      29        0.0%
BITBANK11          100      0       0      26        0.0%
BANK11             100      0       0      27        0.0%
BITBANK10          100      0       0      24        0.0%
BANK10             100      0       0      25        0.0%
BITBANK9           100      0       0      22        0.0%
BANK9              100      0       0      23        0.0%
BITBANK8           100      0       0      20        0.0%
BANK8              100      0       0      21        0.0%
BITBANK7           100      0       0      18        0.0%
BANK7              100      0       0      19        0.0%
BITBANK6           100      0       0      16        0.0%
BANK6              100      0       0      17        0.0%
BITBANK5           100      0       0      14        0.0%
BANK5              100      0       0      15        0.0%
BITBANK4           100      0       0      12        0.0%
BANK4              100      0       0      13        0.0%
BITBANK3           100      0       0      10        0.0%
BANK3              100      0       0      11        0.0%
BITBANK2           100      0       0       8        0.0%
BANK2              100      0       0       9        0.0%
BITBANK1           100      0       0       6        0.0%
BANK1              100      0       0       7        0.0%
BITBANK13           EA      0       0      30        0.0%
BANK13              EA      0       0      31        0.0%
BITBANK0            A0      0       0       4        0.0%
BANK0               A0      4      54       5       52.5%
BITBIGSFRlhlhhh     84      0       0      38        0.0%
BITCOMRAM           5E      0       0       0        0.0%
COMRAM              5E     4B      5A       1       95.7%
BITBIGSFRllhhh      5C      0       0      44        0.0%
BITBIGSFRhhhhll     4A      0       0      34        0.0%
BITBIGSFRlllll      30      0       0      50        0.0%
BITBIGSFRhhhhlh     1B      0       0      33        0.0%
BITBIGSFRlhlllh     19      0       0      42        0.0%
BITBIGSFRlhhhhl     14      0       0      35        0.0%
BITBIGSFRhhhhh       D      0       0      32        0.0%
BITBIGSFRlhlhl       9      0       0      40        0.0%
BITBIGSFRlhlhhl      8      0       0      39        0.0%
BITBIGSFRlllh        7      0       0      48        0.0%
BITBIGSFRllhhll      7      0       0      46        0.0%
BITBIGSFRlhllh       7      0       0      41        0.0%
BITBIGSFRlhllll      7      0       0      43        0.0%
BITBIGSFRlhhl        6      0       0      37        0.0%
BITBIGSFRlhhhl       3      0       0      36        0.0%
BITBIGSFRllhhlh      1      0       0      45        0.0%
BITBIGSFRllllh       1      0       0      49        0.0%
BITBIGSFRllhl        1      0       0      47        0.0%
BIGSFR               0      0       0     200        0.0%
BITSFR_3             0      0       0     200        0.0%
SFR_3                0      0       0     200        0.0%
BITSFR_2             0      0       0     200        0.0%
SFR_2                0      0       0     200        0.0%
BITSFR_1             0      0       0     200        0.0%
SFR_1                0      0       0     200        0.0%
BITSFR               0      0       0     200        0.0%
SFR                  0      0       0     200        0.0%
STACK                0      0       0       2        0.0%
NULL                 0      0       0       0        0.0%
ABS                  0      0      AE      51        0.0%
DATA                 0      0      AE       3        0.0%
CODE                 0      0       0       0        0.0%


Microchip Technology PIC18 Macro Assembler V2.45 build 20230818022343 
Symbol Table                                                                                   Mon Nov 06 13:32:39 2023

                        _C0 0E2D                          _C1 0E29                          _C2 0E25  
                        _C3 0E21                          l20 1B4E                          l22 1BBA  
                        l15 1FF0                          l41 204E                          l18 1B40  
                        l50 1C88                          l52 1C96                          l44 1C46  
                        l46 1C5C                          l55 1F6A                          l63 1E6E  
                        l48 1C72                          l58 15F4                          _S1 0E0D  
                        _S2 0E09                          l69 1F3E                          _S3 0E05  
                        _S4 0E01                ___awdiv@sign 0009                          bsr 0FE0  
       ___wmul@multiplicand 000A           ??_Interrupts_init 0004                         l102 1EA8  
                       l110 1638                         l111 164C                         l120 16A6  
                       l112 164E                         l121 16BA                         l113 1662  
                       l105 160A                         l114 1664                         l106 160C  
                       l123 16BC                         l115 1678                         l107 1620  
                       l116 167A                         l108 1622                         l117 168E  
                       l109 1636                         l150 1F90                         l118 1690  
                       l119 16A4                         l147 201C                         l228 1206  
                       l244 1078                         l341 1FD6                         l255 1A2A  
                       l344 202E                         l249 1B3C                         l347 1FB6  
                       l278 2040                         l591 1830                         l578 1780  
                       l845 1C2E                         l838 1C26                         l855 1D5E  
                       l848 1D56                         _abs 1EDE                         _day 0052  
                       _eot 006E                         _pad 1A2C                ___awmod@sign 0009  
                       wreg 0FE8                        l1102 1F10                        l1025 1EDC  
                      l1114 1988                        l1122 1E34                        l1050 1AB4  
                      ?_abs 000A                        l1125 205C                        l1045 1A5C  
                      l1053 13EA                        l1070 18D6                        l1048 1A9A  
                      l1066 14F2                        l1074 18DE                        l1095 1DF8  
                      l4000 0F40                        l1089 138A                        l4010 0F78  
                      l4002 0F56                        l1099 1EF8                        l4020 0FD2  
                      l4012 0F8C                        l4004 0F5E                        l4030 1070  
                      l4022 0FE8                        l4014 0F96                        l4006 0F62  
                      l4110 1CA0                        l4032 2030                        l4040 1FD4  
                      l4024 1004                        l4016 0FAA                        l4008 0F74  
                      l4120 1CB2                        l4112 1CA4                        l4034 1FB8  
                      l4026 1036                        l4018 0FBE                        l4130 1CBC  
                      l4122 1CB4                        l4114 1CA8                        l4106 1C98  
                      l4036 1FC0                        l3500 17AE                        l3420 18F0  
                      l4028 103C                        l4132 1CC2                        l4124 1CB6  
                      l4116 1CAC                        l4108 1C9C                        l4038 1FCA  
                      l3510 17E6                        l3502 17B6                        l3422 1900  
                      l4134 1CDA                        l4126 1CB8                        l4118 1CB0  
                      l3440 1F92                        l3520 1820                        l3512 17FC  
                      l3504 17C8                        l3424 190A                        l3432 1DFA  
                      l4160 128E                        l4136 1CE2                        l4128 1CBA  
                      l3442 1FAE                        l3450 16D0                        l3522 1828  
                      l3514 1804                        l3506 17D0                        l3426 1926  
                      l3418 18E0                        l3434 1E06                        l3530 1A46  
                      l3610 1884                        l3602 1832                        l4138 1CE6  
                      l3620 1C48                        l3700 1F62                        l3460 16F6  
                      l3452 16D8                        l3516 180A                        l3508 17D8  
                      l3428 1958                        l3436 1E14                        l3540 1AA8  
                      l3532 1A54                        l3612 18A4                        l3604 183A  
                      l3550 204C                        l3630 1C82                        l3622 1C56  
                      l3710 1646                        l3702 15F6                        l3470 172E  
                      l3462 16FE                        l3454 16DC                        l3446 16BE  
                      l3518 1810                        l3542 1EDE                        l3438 1E18  
                      l3534 1A68                        l3526 1A2C                        l3606 1860  
                      l3614 18AC                        l3632 1C8A                        l3624 1C5E  
                      l3616 1C32                        l3720 16B4                        l3712 165C  
                      l3704 1604                        l3800 1124                        l3480 175A  
                      l3472 1734                        l3464 1710                        l3456 16EA  
                      l3448 16C2                        l3544 1EEC                        l3536 1A78  
                      l3528 1A3A                        l3560 13BC                        l3552 138C  
                      l3608 1868                        l3640 1236                        l3546 2042  
                      l3634 1C8E                        l3626 1C6C                        l3618 1C40  
                      l3714 1672                        l3706 161A                        l3730 1D2C  
                      l3722 1CFC                        l3810 1180                        l3802 1138  
                      l3474 174A                        l3466 1718                        l3482 1760  
                      l3458 16F2                        l3490 1782                        l3538 1A7C  
                      l3570 13F2                        l3562 13C2                        l3554 1390  
                      l3650 125E                        l3642 1242                        l3900 1B54  
                      l3548 2044                        l3628 1C74                        l3716 1688  
                      l3708 1630                        l3732 1D42                        l3724 1D0E  
                      l3812 119E                        l3804 114C                        l3820 11FE  
                      l3484 1770                        l3476 1752                        l3468 1720  
                      l3492 1786                        l3580 143A                        l3572 13FC  
                      l3564 13D2                        l3556 13A4                        l3660 12C0  
                      l3644 1248                        l3636 1208                        l3740 1DC0  
                      l3902 1B64                        l3750 1E48                        l3718 169E  
                      l3734 1D4A                        l3726 1D16                        l3830 19C0  
                      l3814 11C4                        l3806 1160                        l3486 1778  
                      l3478 1754                        l3494 1794                        l3590 14AC  
                      l3574 1402                        l3582 1456                        l3566 13DE  
                      l3558 13AC                        l3670 1322                        l3662 12CE  
                      l3654 1266                        l3646 1250                        l3638 122E  
                      l3742 1DD0                        ?_pad 0011                        l3904 1B96  
                      l3920 153E                        l3912 14F4                        l3840 1AB6  
                      l3760 1F26                        l3752 1E52                        l3736 1D50  
                      l3728 1D1E                        l3832 19E6                        l3824 198A  
                      l3816 11EA                        l3808 116C                        l3496 179C  
                      l3584 1470                        l3592 14BA                        l3576 1430  
                      l3568 13E6                        l3672 133A                        l3664 12D8  
                      l3648 1252                        l3656 129C                        l3744 1DF0  
                      l3906 1BAA                        l3930 1584                        l3922 154E  
                      l3914 150C                        l3842 1ACA                        l3850 1AF4  
                      l3762 1F28                        l3754 1E64                        l3834 19EE  
                      l3826 1992                        l3818 11F6                        l3498 17A0  
                      l3594 14CA                        l3586 1482                        l3578 1434  
                      l3674 1344                        l3666 12E2                        l3658 12AC  
                      l3682 1364                        l3738 1DB8                        l3770 1EC2  
                      l3908 1BB2                        l3780 201A                        l3692 1F42  
                      l3940 15C4                        l3932 1592                        l3924 1564  
                      l3916 1522                        l3852 1B08                        l3860 1B34  
                      l3844 1ADC                        l3756 1F12                        l3748 1E38  
                      l3836 1A16                        l3828 19B8                        l3596 14D0  
                      l3588 1492                        l3668 1302                        l3772 1ED2  
                      l3764 1EAA                        l3870 1BD6                        l3950 1F6C  
                      l3694 1F4C                        l3942 15CE                        l3934 159C  
                      l3926 156A                        l3918 1528                        l3854 1B1C  
                      l3846 1AEA                        l3758 1F16                        l3838 1A1E  
                      l3790 10C8                        l3782 107A                        l3598 14DC  
                      l3678 1358                        l3766 1EB2                        l3880 1C10  
                      l3872 1BDE                        l3776 200A                        l3960 1F86  
                      l3952 1F6E                        l3696 1F54                        l3944 15DC  
                      l3936 15AA                        l3928 157A                        l3856 1B2A  
                      l3848 1AF2                        l3864 201E                        l3792 10DC  
                      l3784 108C                        l3768 1EBA                        l3882 1C18  
                      l3874 1BE6                        l3866 1BBC                        l3890 1FE2  
                      l3778 2010                        l3962 1F88                        l3954 1F80  
                      l3698 1F5C                        l3946 15E6                        l3938 15B4  
                      l3858 1B32                        l3794 10F0                        l3786 10A0  
                      l3970 0E96                        l3884 1C1A                        l3876 1BF4  
                      l3868 1BC4                        l3892 1FEA                        l3964 1F8C  
                      l3956 1F82                        l3948 1E70                        l3788 10B4  
                      l3796 1104                        l3980 0EC4                        l3972 0EA4  
                      l3886 1C20                        l3878 1BFA                        l3894 1FEC  
                      l3958 1F84                        l3798 1110                        l3990 0EEC  
                      l3982 0EC6                        l3974 0EB0                        l3966 0E72  
                      l3896 1FEE                        l3888 1FD8                        l3992 0F02  
                      l3984 0EDC                        l3968 0E80                        l3976 0EB2  
                      l3898 1B3E                        l3994 0F0A                        l3986 0EE4  
                      l3978 0EC0                        l3996 0F34                        l3988 0EE8  
                      l3998 0F3C                        STR_1 0E64                        STR_2 0E5A  
                      STR_3 0E41                        STR_4 0E6C                        u4000 10B4  
                      u4001 10B0                        u4010 10C8                        u4011 10C4  
                      u4100 119E                        u4020 10DC                        u4101 119A  
                      u4021 10D8                        u4110 11C4                        u4030 10F0  
                      u4111 11C0                        u4031 10EC                        u4200 1B1C  
                      u4120 11EA                        u4040 1104                        u3400 1926  
                      u4201 1B18                        u4121 11E6                        u4041 1100  
                      u3401 1922                        u4210 1B2A                        u4130 19B8  
                      u4050 1124                        u3410 1958                        u4211 1B26  
                      u4131 19B4                        u4051 1120                        u3411 1954  
                      u4220 1BD6                        u4140 19E6                        u4060 1138  
                      u3500 17AE                        u3420 1E34                        u4300 0EDC  
                      u4221 1BD2                        u4141 19E2                        u4061 1134  
                      u3501 17AA                        u3421 1E30                        u4301 0ED8  
                      u4230 1BF4                        u4150 1A16                        u4070 114C  
                      u3430 16D0                        u3510 17C8                        u4310 0F02  
                      u4231 1BF0                        u4151 1A12                        u4071 1148  
                      u3431 16CC                        u3511 17C4                        u4311 0EFE  
                      u4240 1C10                        u4160 1ACA                        u4080 1160  
                      u3440 16EA                        u3520 17E6                        u3600 13A0  
                      u4320 0F34                        u4241 1C0C                        u4161 1AC6  
                      u4081 115C                        u3441 16E6                        u3521 17E2  
                      u3601 139A                        u4321 0F30                        u4250 1B4E  
                      u4170 1ADC                        u4090 1180                        u3450 1710  
                      u3530 17FC                        u3610 13A2                        u4330 0F56  
                      u4251 1B4A                        u4171 1AD8                        u4091 117C  
                      u3451 170C                        u3531 17F8                        u4331 0F52  
                      u4260 1BAA                        u4180 1AEA                        u3460 172E  
                      u3540 1820                        u3380 18F0                        u3620 13BC  
                      u3700 1860                        u4340 0F74                        u4261 1BA6  
                      u4181 1AE6                        u3461 172A                        u3541 181C  
                      u3381 18EC                        u3621 13B8                        u3701 185C  
                      u4341 0F70                        u4190 1B08                        u3470 174A  
                      u3390 1900                        u3550 1A3A                        u3630 13D2  
                      u3710 18D6                        u4350 0F8C                        u4270 0E80  
                      u4191 1B04                        u3471 1746                        u3391 18FC  
                      u3551 1A36                        u3631 13CE                        u3711 18D2  
                      u4351 0F88                        u4271 0E7C                        u3720 1C40  
                      u3480 1770                        u3560 1A54                        u3640 1470  
                      u3800 1322                        u4360 0FAA                        u4280 0E96  
                      u3721 1C3C                        u3481 176C                        u3561 1A50  
                      u3641 146C                        u3801 131E                        u4361 0FA6  
                      u4281 0E92                        u3730 1C56                        u3490 1794  
                      u3570 1A9A                        u3650 1482                        u4370 0FBE  
                      u4290 0EC0                        u3731 1C52                        u4507 1544  
                      u3491 1790                        u3571 1A96                        u3651 147E  
                      u4371 0FBA                        u4291 0EBC                        u3740 1C6C  
                      u3900 16B4                        u3820 1604                        u3580 1AA8  
                      u3660 1492                        u4380 0FD2                        u3741 1C68  
                      u4517 155A                        u3901 16B0                        u3821 1600  
                      u3581 1AA4                        u3661 148E                        u4381 0FCE  
                      u3750 1C82                        u3830 161A                        u3910 1D0E  
                      u3590 1EEC                        u3670 14AC                        u4390 0FE8  
                      u4607 1C90                        u3751 1C7E                        u3815 1F4A  
                      u4527 1570                        u3831 1616                        u3911 1D0A  
                      u3591 1EE8                        u3671 14A8                        u4391 0FE4  
                      u3816 1F4C                        u3840 1630                        u3920 1D2C  
                      u3680 14BA                        u3760 122E                        u4617 2046  
                      u4537 1586                        u3841 162C                        u3921 1D28  
                      u3681 14B6                        u3761 122A                        u3850 1646  
                      u3930 1D42                        u3690 14CA                        u3770 12AC  
                      u4547 159E                        u3851 1642                        u3931 1D3E  
                      u3691 14C6                        u3771 12A8                        u3860 165C  
                      u3780 12CE                        u3940 1DF0                        u4557 15BA  
                      u3861 1658                        u3781 12CA                        u3941 1DEC  
                      u4477 1CEC                        u3950 1E48                        u3870 1672  
                      u3790 1302                        u4567 15D0                        u4487 1516  
                      u3951 1E44                        u3871 166E                        u3791 12FE  
                      u3960 1E64                        u3880 1688                        u4577 15E8  
                      u4497 152E                        u3961 1E60                        u3881 1684  
                      u3970 1F3E                        u3890 169E                        u4587 1F56  
                      u3971 1F3A                        u3891 169A                        u3980 108C  
                      u4597 1F64                        u3981 1088                        u3990 10A0  
                      u3991 109C                        abs@a 000A                        _dbuf 007A  
                      _half 0E1D                        _main 1C98                 ?_DST_adjust 0004  
                      _dtoa 138C                        _hour 0054                        _prec 0068  
                      _year 004C                        pad@i 0016                        pad@p 0013  
                      fsr1h 0FE2                        fsr2h 0FDA                        indf2 0FDF  
                      fsr1l 0FE1                        fsr2l 0FD9                        btemp 005B  
              ?_LCD_setline 0001                        prodh 0FF4                        prodl 0FF3  
                      start 0052            __end_of_ADC_init 1FF2            _solarnoonminutes 0070  
          __end_of_DAC_init 201E             __end_of_HighISR 200A                ___param_bank 0000  
                _Comp1_init 1F6C                       ??_abs 000C                       ??_pad 0015  
          __end_of_LCD_Init 15F6                       ?_main 0001                       ?_dtoa 0018  
                     _ADPCH 0F5F             __end_of___awdiv 1782             __end_of___awmod 1832  
               _sunrisetime 0078             ___awdiv@divisor 0006             __end_of___lwdiv 1C30  
           __end_of___lwmod 1D60                       i1l290 0042                       i2l284 2006  
           ___awdiv@counter 0008                vfpfcnvrt@fmt 0024                       _TMR0H 0FD4  
                     _TMR0L 0FD3            _LEDarray_control 198A             __end_of_pio2_1t 0E15  
                     _flags 005A         read_prec_or_width@c 0010         read_prec_or_width@n 0011  
                     _fputc 18E0                       _fputs 1DFA                       _month 004E  
                     pad@fp 0011                       _width 0056             __end_of_invpio2 0E1D  
                     _putch 205C                       dtoa@d 0019                       dtoa@i 0021  
                     dtoa@p 001D                       dtoa@s 0020                       dtoa@w 001E  
             ?_LCD_sendbyte 0005                       tablat 0FF5                       ttemp5 005C  
                     ttemp6 005F                       ttemp7 0063                       status 0FD8  
                     wtemp8 005C             __end_of_sprintf 1EDE             __initialization 1D60  
              __end_of_half 0E21                __end_of_main 1CFC                __end_of_dtoa 14F4  
         __end_of_LCD_E_TOG 2050             _get16bitTMR0val 201E                      ??_main 004B  
                    ??_dtoa 001B               __activetblptr 0003  __end_of_read_prec_or_width 18E0  
       get16bitTMR0val@time 0006                      ?_fputc 0004                      ?_fputs 000C  
                    _ADRESH 0F64              ??_LCD_sendbyte 0006            ___awdiv@dividend 0004  
                    ?_putch 0001                      i1l1910 0026                      i1l1912 0036  
                    i1l1914 003E                      i1l1916 0040                      i2l1906 1FF2  
                    i2l1908 2002               vfpfcnvrt@done 002C                   ??_HighISR 0001  
         _LEDarray_disp_bin 15F6                      _LowISR 0018          ?_LEDarray_disp_bin 0004  
              ??_ADC_getval 0017               ??_Timer0_init 0004                vfprintf@cfmt 0031  
                    _s1pio2 0E3D                      _s2pio2 0E39                      _s3pio2 0E35  
                    _s4pio2 0E31                      ___wmul 1F92                 ?_Comp1_init 0001  
                 ??___awdiv 0008                   ??___awmod 0008                   ??___lwdiv 0012  
                 ??___lwmod 0008                      _pio2_1 0E15        read_prec_or_width@ap 000F  
       ??_LEDarray_disp_bin 0006                      clear_0 1D9E            ___awdiv@quotient 000A  
                    _minute 0058             ___awmod@divisor 0006                      isa$std 0001  
           ___awmod@counter 0008                      pad@buf 0012                      dtoa@fp 0018  
                    fputc@c 0004                      fputs@c 000E                      fputs@i 000F  
              __pdataCOMRAM 004C                      fputs@s 000C                __mediumconst 0000  
                    tblptrh 0FF7                      tblptrl 0FF6                      tblptru 0FF8  
                 ?_ADC_init 0001                      putch@c 0001                   ?_DAC_init 0001  
          __end_of_vfprintf 1DFA                   ??_sprintf 003E          __end_of_ADC_getval 1BBC  
 __end_of_LEDarray_disp_bin 16BE                  __accesstop 0060     __end_of__initialization 1DAE  
                 ?_LCD_Init 0001               ___rparam_used 0001               _LEDarray_init 1E70  
           _Interrupts_init 2030              __pcstackCOMRAM 0001     __end_of_get16bitTMR0val 2030  
              __pidataBANK0 205A               __end_of_fputc 198A               __end_of_fputs 1E36  
             __end_of_putch 205E                  __end_of_C0 0E31                  __end_of_C1 0E2D  
                __end_of_C2 0E29                  __end_of_C3 0E25                  __end_of_S1 0E11  
                __end_of_S2 0E0D                  __end_of_S3 0E09                  __end_of_S4 0E05  
       __end_of_Timer0_init 1FD8                  ??_ADC_init 0004                  ??_DAC_init 0004  
                   ??_fputc 0007                     ??_fputs 000E                     ??_putch 0004  
                __pbssBANK0 0060                  ??_LCD_Init 0007                ??_DST_adjust 0008  
            _LCD_sendnibble 1C30              ?_LEDarray_init 0001              _LCD_sendstring 1F12  
                   ?_LowISR 0001    __end_of_LEDarray_control 1A2C                  _difference 0072  
                   ?___wmul 0008        __end_of_LCD_sendbyte 1F6C              month_days@year 000B  
        __end_of_DST_adjust 1B3E      __end_of_LCD_sendnibble 1C98     __end_of_Interrupts_init 2042  
                   _HighISR 0008      __end_of_LCD_sendstring 1F40                   _ADREFbits 0F58  
                   __Hparam 0000                     __Lparam 0000                 _Timer0_init 1FB8  
       month_days@monthDays 000F            ?_get16bitTMR0val 0004           __end_of_disp_time 107A  
                   ___awdiv 16BE                     ___awmod 1782                     ___lwdiv 1BBC  
                   ___lwmod 1CFC                   ?_vfprintf 002E                __psmallconst 0E00  
                   __pcinit 1D60                     __ramtop 0E00                     __ptext0 1C98  
                   __ptext1 0E72                     __ptext2 1EAA                     __ptext3 1DB8  
                   __ptext4 1208                     __ptext5 1832                     __ptext6 138C  
                   __ptext7 1A2C                     __ptext8 1DFA                     __ptext9 18E0  
                   _pio2_1t 0E11       read_prec_or_width@fmt 000E            ___awmod@dividend 0004  
                   _invpio2 0E19                   _LCD_E_TOG 2042             LCD_setline@line 0007  
                   _weekday 0050                     _sprintf 1EAA              __pintcode_body 1FF2  
      end_of_initialization 1DAE             ?_LCD_sendnibble 0001            ADC_getval@tmpval 0017  
                   fputc@fp 0006             ??_LEDarray_init 0004            ___rem_pio2f@F526 0064  
                   int_func 1FF2                     fputs@fp 000D             ?_LCD_sendstring 0007  
        _read_prec_or_width 1832                  _month_days 107A           __end_of_vfpfcnvrt 138C  
                   postdec1 0FE5                     postdec2 0FDD         ?_read_prec_or_width 000E  
              ??_Comp1_init 0004                     postinc0 0FEE                     postinc1 0FE6  
                   postinc2 0FDE            vfpfcnvrt@convarg 0028                  _timeString 00A4  
                ??_vfprintf 0031                  ?_LCD_E_TOG 0001                   _TRISAbits 0F81  
                 _TRISBbits 0F82                   _TRISCbits 0F83                   _TRISDbits 0F84  
                 _TRISEbits 0F85                   _TRISFbits 0F86                   _TRISGbits 0F87  
                 _TRISHbits 0F88        ??_read_prec_or_width 0010          __end_of_Comp1_init 1F92  
               _CM1CON0bits 0ED0                 _CM1CON1bits 0ED1            ?_Interrupts_init 0001  
            __end_of_LowISR 0052              __end_of_s1pio2 0E41              __end_of_s2pio2 0E3D  
            __end_of_s3pio2 0E39              __end_of_s4pio2 0E35                  _sunsettime 0076  
               vfpfcnvrt@ap 0025                 vfpfcnvrt@cp 002D                 vfpfcnvrt@fp 0023  
            __end_of___wmul 1FB8        LCD_sendnibble@number 0004               __pidataCOMRAM 2050  
            __end_of_pio2_1 0E19         start_initialization 1D60                 __end_of_abs 1F12  
               __end_of_pad 1AB6                _LCD_sendbyte 1F40               ??_LCD_setline 0007  
               ?_month_days 0009                    ??_LowISR 0001                 vfprintf@fmt 002F  
         ?_LEDarray_control 0001        LCD_sendstring@string 0007                    ??___wmul 000C  
        ??_LEDarray_control 0009                 __pdataBANK0 00B2                 __pbssCOMRAM 0056  
               ??_LCD_E_TOG 0004               __pcstackBANK0 00AE                    ?_HighISR 0001  
          ___lwdiv@dividend 000E                   _dtoa$2134 001B                ?_Timer0_init 0001  
                 __pintcode 0008                    ?___awdiv 0004                    ?___awmod 0004  
       __end_of_LCD_setline 1E70                    ?___lwdiv 000E                    ?___lwmod 0004  
               __pintcodelo 0018                   _disp_time 0E72                   fabsf@F465 0060  
               __smallconst 0E00        LEDarray_control@temp 0009            ??_LCD_sendnibble 0004  
                  _ADC_init 1FD8                    _DAC_init 200A            ___lwdiv@quotient 0013  
          ??_LCD_sendstring 0008                    ?_sprintf 0032            LCD_sendbyte@Byte 0006  
           month_days@month 0009                    _LCD_Init 14F4            LCD_sendbyte@type 0005  
            ___wmul@product 000C                    _LATAbits 0F79                    _LATBbits 0F7A  
                  _LATCbits 0F7B                    _LATDbits 0F7C                    _LATEbits 0F7D  
                  _LATFbits 0F7E                    _LATGbits 0F7F                    _LATHbits 0F80  
                 _longitude 006C                    _IPR0bits 0E1F                    _PIE0bits 0E29  
                  _IPR2bits 0E21                    _PIE2bits 0E2B                    i1u111_20 0036  
                  i1u111_21 0032                    i2u110_40 2002                    i2u110_41 1FFE  
                  _PIR0bits 0E33                    _PIR2bits 0E35       _calculatedmidday_hour 00B2  
                 _vfpfcnvrt 1208             main@lightString 00AE                  ?_disp_time 0001  
                _ADCON0bits 0F60           ___wmul@multiplier 0008                  _CM1NCHbits 0ED2  
                _CM1PCHbits 0ED3                   copy_data0 1D8C       __end_of_LEDarray_init 1EAA  
               _LCD_setline 1E36                    __Hrparam 0000                _longitudestz 006A  
                _ADC_getval 1B3E                  vfprintf@ap 0030                    __Lrparam 0000  
                vfprintf@fp 002E                  ?_vfpfcnvrt 0023                 _lightString 009A  
                _ANSELAbits 0E92                  _ANSELBbits 0E9A                  _ANSELFbits 0EB4  
                _ANSELGbits 0EBC                  sprintf@fmt 0033                  _T0CON0bits 0FD5  
                _T0CON1bits 0FD6             ___lwdiv@divisor 0010             ___lwdiv@counter 0012  
                  __ptext10 205C                    __ptext11 1EDE                    __ptext20 1F12  
                  __ptext12 1782                    __ptext21 1AB6                    __ptext13 16BE  
                  __ptext30 200A                    __ptext22 1FB8                    __ptext14 107A  
                  __ptext31 1FD8                    __ptext23 1E70                    __ptext15 201E  
                  __ptext32 1B3E                    __ptext24 14F4                    __ptext16 198A  
                  __ptext33 1F92                    __ptext25 1F40                    __ptext17 1CFC  
                  __ptext34 1BBC                    __ptext26 1C30                    __ptext18 15F6  
                  __ptext27 2042                    __ptext19 1E36                    __ptext28 2030  
                  __ptext29 1F6C     LEDarray_disp_bin@number 0004                ??_month_days 000D  
                  isa$xinst 0000                    int$flags 005B                    _vfprintf 1DB8  
               ??_disp_time 004B                  _INTCONbits 0FF2          __end_of_month_days 1208  
         ??_get16bitTMR0val 0006                    intlevel1 0000                    intlevel2 0000  
                 sprintf@ap 003E                _DAC1CON0bits 0EC6                _DAC1CON1bits 0EC7  
          ___lwmod@dividend 0004                  _DST_adjust 1AB6                 ?_ADC_getval 0015  
               ??_vfpfcnvrt 0026             DST_adjust@month 0004                    sprintf@f 003F  
                  sprintf@s 0032             ___lwmod@divisor 0006     _calculatedmidday_minute 0074  
           ___lwmod@counter 0008              DST_adjust@hour 0006  
